(dp0
I1
(dp1
S'FleeBehavior'
p2
(lp3
F0.5284353340072787
aF0.45632529746944794
aF0.21600524327764592
aF-42.58188742926821
aF-63.30546605596511
aF17.478355625881175
aF-38.073130760946476
aF-31.86990675976086
aF0.7612100715532437
asS'PursueBehavior'
p4
(lp5
F0.8257235639705778
aF0.9960935658266042
aF0.9782075541602937
aF-40.13600956687545
aF-56.93325357124713
aF-13.357407526604112
aF-29.98881400622797
aF-17.53893096552168
aF0.9728964298993448
asS'SeekBehavior'
p6
(lp7
F0.6090152594369991
aF0.8343516311436416
aF0.062280057585193394
aF-45.33855950765367
aF13.331299803450129
aF21.257832971680394
aF-35.20865804884374
aF-46.332490113190595
aF0.20883183680369521
assI2
(dp8
S'FleeBehavior'
p9
(lp10
F0.6695289329035491
aF0.6809398134511644
aF0.5772328222741663
aF-44.31744498488185
aF-39.35354502904437
aF-16.00233242061735
aF-10.698022561528695
aF-26.365179245574982
aF0.38695636963424573
asS'PursueBehavior'
p11
(lp12
F0.5394416860518276
aF0.3770795971330504
aF0.834352796843663
aF-53.228219384430496
aF18.30595082623904
aF-22.549316260314427
aF0.30648994255753514
aF-33.86386781850925
aF0.960612009567394
asS'SeekBehavior'
p13
(lp14
F0.5625654927278427
aF0.8331532680292327
aF0.18112095376442294
aF-47.07099002044814
aF-27.50766860884651
aF-12.71921518261061
aF-40.948505182370994
aF-8.906139976239006
aF0.6876142614441395
assI3
(dp15
S'FleeBehavior'
p16
(lp17
F0.567747066502457
aF0.5097975146905002
aF0.8335937168597589
aF-34.28488226870618
aF-37.86529318382022
aF-33.5986460477753
aF5.769274977429454
aF-24.035238952056865
aF0.14026528878230515
asS'PursueBehavior'
p18
(lp19
F0.2537670277193066
aF0.44536093544318656
aF0.2567847172046863
aF-43.76068402628425
aF-52.21985824193271
aF-6.760983969922851
aF-21.99494697554745
aF-23.215532565136545
aF0.154286806332243
asS'SeekBehavior'
p20
(lp21
F0.12093178565635287
aF0.004878834301588086
aF0.2868290401871567
aF-54.490093657934786
aF2.9427296256715967
aF-35.47660659428479
aF3.9490843208998876
aF-27.655155370932903
aF0.13174852806837434
ass.