(dp0
I1
(dp1
S'FleeBehavior'
p2
(lp3
F0.522819004782235
aF0.764507098328488
aF0.4592974769205316
aF-55.04238243103864
aF-11.375824153569763
aF-27.521210897634624
aF-11.21853555463929
aF0.3038486289481047
asS'PursueBehavior'
p4
(lp5
F0.42524064896524405
aF0.5393892656154718
aF0.8228743336008696
aF-45.904006170472464
aF-69.01926101430594
aF-21.737734971160773
aF-13.531737549036288
aF0.5795459405956331
asS'SeekBehavior'
p6
(lp7
F0.22481879180630227
aF0.8124775148280232
aF0.346892680808075
aF-51.03959783386451
aF-45.19944510559284
aF-21.95161945695342
aF-14.957746075471125
aF0.4167408107715068
assI2
(dp8
S'FleeBehavior'
p9
(lp10
F0.470644986471203
aF0.7216101441708851
aF0.7049813935176485
aF-58.18075822957069
aF-37.63469958314092
aF-13.937710675722132
aF-20.098293063815884
aF0.6783879796705888
asS'PursueBehavior'
p11
(lp12
F0.5610591858634467
aF0.3241234719913968
aF0.9780643412220946
aF-45.714775748000605
aF-83.73339570173215
aF-3.414032368993215
aF-32.87713462908038
aF0.7253390927436788
asS'SeekBehavior'
p13
(lp14
F0.5748414681405136
aF0.05605628836900445
aF0.3922801987380645
aF-48.33537837142785
aF-64.13751116282472
aF-23.491375628587168
aF-18.744087345419242
aF0.9242359243467008
ass.