(dp0
I1
(dp1
S'FleeBehavior'
p2
(lp3
F-40.04950865854009
aF-71.11852702240766
aF-16.87438261787022
aF-15.554865100790275
aF0.7518171272885511
asS'PursueBehavior'
p4
(lp5
F-42.288593881796125
aF-58.321386365303454
aF-10.279174240160103
aF-32.19927268392165
aF0.7483177794612479
asS'SeekBehavior'
p6
(lp7
F-49.95571719366164
aF-4.155963331373879
aF-5.215185749530061
aF-35.5556342630667
aF0.43840333535220866
assI2
(dp8
S'FleeBehavior'
p9
(lp10
F-19.79938205142614
aF-35.765509551501516
aF-17.538092273080494
aF-3.6026436256692964
aF0.2843687817489442
aF-20.276719196183354
aF-34.82233034584545
aF-3.2143317738005712
aF-17.34208391719146
aF0.9568037706894393
asS'PursueBehavior'
p11
(lp12
F-24.8241591103038
aF-14.31732529102734
aF-0.686303587374361
aF-21.26874739945607
aF0.8098412580361513
aF-25.199053502373648
aF-14.32927713537939
aF-21.253616997127903
aF-1.1299596750052407
aF0.062286894345132904
asS'SeekBehavior'
p13
(lp14
F-22.31610337244891
aF-32.621661251795615
aF-2.9282545720949624
aF-11.022043039247233
aF0.49930372556943947
aF-21.76544694561508
aF-33.433410449236455
aF-11.005969677519186
aF-3.034580690972205
aF0.34491805187168767
ass.