(dp0
I1
(dp1
S'FleeBehavior'
p2
(lp3
F-32.60204594879349
aF-79.24681034682344
aF-28.56435835661295
aF-18.129444206120418
aF-14.351056809657207
aF10.557612404820448
aF0.6322892415312955
asS'PursueBehavior'
p4
(lp5
F-44.69125514344745
aF-26.96168843434621
aF-8.138752005298354
aF-17.36973544104246
aF-22.85302883194654
aF-10.688165720007117
aF0.19791858289598796
asS'SeekBehavior'
p6
(lp7
F-52.17531558442716
aF35.204035805097725
aF-17.281568511855028
aF-19.073821605325236
aF24.014938536582598
aF-40.17693790954346
aF0.6562700964823884
assI2
(dp8
S'FleeBehavior'
p9
(lp10
F-25.245392476930515
aF-24.66235949837331
aF-12.500444591742317
aF-1.4870955437328408
aF0.7905671836747103
aF-14.840581241721726
aF0.26189953588399606
aF-25.225278594171964
aF-24.590919287024686
aF-1.1189900412063924
aF-12.002222630196082
aF0.6397774319976595
aF-14.535862694512982
aF0.0003970779919650891
asS'PursueBehavior'
p11
(lp12
F-11.797665195127184
aF-53.23154391586103
aF-16.10799167429699
aF16.142818873671015
aF-11.301385025690678
aF-13.592681747390397
aF0.3921721506749941
aF-11.862288550439004
aF-53.67650184252307
aF15.277966009211347
aF-15.764404563861294
aF-11.868367441062567
aF-12.975490962521878
aF0.2778006155044057
asS'SeekBehavior'
p13
(lp14
F-15.44079214078624
aF-112.49253292630063
aF2.7050865772367483
aF33.199281717559266
aF-28.15804246929365
aF-40.99872822214727
aF0.12855685776433
aF-14.979857725492792
aF-112.2125117068491
aF33.10866220128272
aF2.0520332449851457
aF-27.314690181486018
aF-41.1223643111534
aF0.48294292708718267
assI3
(dp15
S'FleeBehavior'
p16
(lp17
F-38.753656320472395
aF691.1045038451891
aF-718.6521193095325
aF2181.957524638493
aF-396.13191505080596
aF-1145.1619855950769
aF0.6640593418518163
aF-38.63682802798055
aF690.3796858181274
aF2181.769133391427
aF-718.386963165198
aF-395.77754616820295
aF-1145.3936368982024
aF0.7991660310030207
aF-38.02087199061713
aF691.071466583923
aF-395.6036990403807
aF-718.1671495845733
aF2182.0514724580435
aF-1145.046835210472
aF0.6563067356064765
asS'PursueBehavior'
p18
(lp19
F270.06886346745347
aF-4712.224605060237
aF503.9240242330848
aF99.37241124997509
aF-567.8866257288237
aF-128.96078770052762
aF0.30243586031505454
aF270.4127526199099
aF-4712.055112139249
aF99.94280800271211
aF503.57488562344173
aF-568.6748275250056
aF-128.64528683314907
aF0.8493999099388633
aF270.562918454083
aF-4712.422175037747
aF-568.0215413811593
aF503.0558749399341
aF99.16362630332715
aF-129.09046506024083
aF0.07331769774450358
asS'SeekBehavior'
p20
(lp21
F-15.463477594520965
aF578.8504621906754
aF-500.7212844299145
aF588.2615436241706
aF-75.31001139095054
aF-27.026194467136026
aF0.009679068205544206
aF-15.637903376953075
aF578.2656073273988
aF589.0584473440342
aF-500.51289915880693
aF-75.32360118197278
aF-26.78960127510017
aF0.7992970881335484
aF-16.189538137525673
aF578.3011568195939
aF-75.61600614540393
aF-501.06805161115403
aF588.83334403502
aF-27.260163521349956
aF0.8467289126485522
assI4
(dp22
S'FleeBehavior'
p23
(lp24
F-86578.32556367443
aF1588323.389220148
aF9716.541006727672
aF144250.23693488174
aF-135914.68887709785
aF-16796.04071788075
aF0.2504021320357672
aF-86578.16900709794
aF1588323.91472128
aF144250.3361087405
aF9716.60479369626
aF-135914.6043067943
aF-16795.872770350004
aF0.053904849032556656
aF-86577.79781479166
aF1588324.181646101
aF-135915.04380837787
aF9716.393472282743
aF144250.36301011973
aF-16795.453549395825
aF0.06565393406480347
aF-86577.70304298923
aF1588323.7803690357
aF-16796.216698210264
aF9716.176245673156
aF144250.20116670066
aF-135914.85380489338
aF0.963326663261206
asS'PursueBehavior'
p25
(lp26
F-100009.95061697699
aF1598300.7361822985
aF137935.28942697338
aF360634.6270306078
aF-216950.81292832375
aF-274570.79165822355
aF0.6668195203821836
aF-100009.50153984762
aF1598300.7050052434
aF360634.23707765015
aF137935.6546552687
aF-216950.96353185654
aF-274571.1588877448
aF0.38325396357456376
aF-100009.51054908968
aF1598300.7722258978
aF-216951.09851539612
aF137935.22932585172
aF360635.11106151016
aF-274570.3670905837
aF0.8020490224625896
aF-100009.78928094245
aF1598300.0901959278
aF-274570.82535004703
aF137935.91071899823
aF360634.24275362166
aF-216951.2902497697
aF0.46504642292276255
asS'SeekBehavior'
p27
(lp28
F-64538.281608586076
aF1372245.366537781
aF-142891.1114836771
aF1145561.4051119199
aF-367156.17803990695
aF-756082.5575320575
aF0.8175469012952646
aF-64538.285919193986
aF1372245.1925786673
aF1145560.9998369922
aF-142891.0143768329
aF-367155.8863585577
aF-756082.298981652
aF0.5485677148363794
aF-64538.34427381015
aF1372245.304896304
aF-367155.7742375717
aF-142891.02635897583
aF1145561.0766905954
aF-756082.6106886718
aF0.23243665858682094
aF-64538.89547265029
aF1372245.9919430106
aF-756082.4428927753
aF-142891.10539291686
aF1145561.1683897187
aF-367156.0522214458
aF0.7077302909310174
ass.