(dp0
S'learn_scores'
p1
(lp2
F2617.0
aF3469.0
aF2782.0
aF1220.0
aF2654.0
aF2860.0
aF3247.0
aF1005.0
aF2823.0
aF3675.0
aF2460.0
aF2853.0
aF1189.0
aF2447.0
aF-143.0
aF2619.0
aF815.0
aF2605.0
aF675.0
aF2680.0
aF1483.0
aF1551.0
aF1378.0
aF2374.0
aF2623.0
aF-248.0
aF3017.0
aF2877.0
aF2660.0
aF2802.0
aF1587.0
aF1148.0
aF2822.0
aF1232.0
aF2783.0
aF3067.0
aF2628.0
aF22.0
aF742.0
aF1503.0
aF2670.0
aF2666.0
aF2739.0
aF1496.0
aF2591.0
aF1488.0
aF2960.0
aF579.0
aF1414.0
aF543.0
aF2827.0
aF2455.0
aF968.0
aF2007.0
aF2623.0
aF1755.0
aF2433.0
aF1368.0
aF2612.0
aF631.0
aF1599.0
aF2605.0
aF2426.0
aF2617.0
aF2639.0
aF2647.0
aF2845.0
aF2826.0
aF2603.0
aF2457.0
aF1420.0
aF772.0
aF2553.0
aF2858.0
aF1691.0
aF836.0
aF2849.0
aF2846.0
aF2831.0
aF2401.0
aF2642.0
aF1107.0
aF2368.0
aF1047.0
aF2865.0
aF2441.0
aF3062.0
aF138.0
aF1787.0
aF2590.0
aF2851.0
aF-356.0
aF3059.0
aF1693.0
aF3040.0
aF2857.0
aF2439.0
aF2662.0
aF2477.0
aF1196.0
asS'test_scores'
p3
(lp4
F3233.0
aF2443.0
aF954.0
aF386.0
aF3013.0
aF1012.0
aF2859.0
aF2853.0
aF2423.0
aF3022.0
asS'behavior_count'
p5
(dp6
s.