(dp0
S'learn_scores'
p1
(lp2
F1371.0
aF661.0
aF505.0
aF2620.0
aF864.0
aF2652.0
aF2660.0
aF2832.0
aF2662.0
aF2664.0
aF689.0
aF2641.0
aF1139.0
aF2441.0
aF2460.0
aF2625.0
aF2844.0
aF2433.0
aF2645.0
aF816.0
aF2659.0
aF2639.0
aF2852.0
aF3043.0
aF2451.0
aF1276.0
aF3050.0
aF2634.0
aF2597.0
aF3061.0
aF2445.0
aF1037.0
aF2655.0
aF2678.0
aF2446.0
aF2639.0
aF2460.0
aF2442.0
aF2815.0
aF1317.0
aF2813.0
aF2681.0
aF2666.0
aF2343.0
aF2651.0
aF437.0
aF2465.0
aF130.0
aF2885.0
aF464.0
aF2456.0
aF-36.0
aF2848.0
aF2855.0
aF2663.0
aF2660.0
aF1304.0
aF2458.0
aF2610.0
aF458.0
aF2782.0
aF1449.0
aF2429.0
aF2586.0
aF2638.0
aF2643.0
aF3049.0
aF1501.0
aF2858.0
aF2643.0
aF2665.0
aF2598.0
aF838.0
aF2846.0
aF2662.0
aF2680.0
aF3030.0
aF2630.0
aF2664.0
aF2666.0
aF2617.0
aF2459.0
aF2377.0
aF373.0
aF3020.0
aF1129.0
aF2619.0
aF2673.0
aF2643.0
aF-12.0
aF2642.0
aF2653.0
aF2402.0
aF2644.0
aF2650.0
aF2851.0
aF3044.0
aF691.0
aF2645.0
aF2460.0
asS'test_scores'
p3
(lp4
F2451.0
aF2420.0
aF1639.0
aF2861.0
aF2641.0
aF2459.0
aF2653.0
aF2456.0
aF2417.0
aF2448.0
asS'behavior_count'
p5
(dp6
s.