(dp0
S'learn_scores'
p1
(lp2
F2415.0
aF1534.0
aF2825.0
aF1307.0
aF2824.0
aF1493.0
aF843.0
aF2827.0
aF226.0
aF2635.0
aF2664.0
aF919.0
aF678.0
aF3045.0
aF2614.0
aF2453.0
aF1478.0
aF2538.0
aF2658.0
aF3026.0
aF3574.0
aF2685.0
aF594.0
aF161.0
aF1434.0
aF2631.0
aF2653.0
aF300.0
aF2469.0
aF-303.0
aF2658.0
aF2657.0
aF2464.0
aF2486.0
aF2843.0
aF2842.0
aF2471.0
aF2878.0
aF1300.0
aF2995.0
aF3043.0
aF1180.0
aF860.0
aF2667.0
aF3050.0
aF2858.0
aF1655.0
aF2648.0
aF1620.0
aF1084.0
aF2642.0
aF2447.0
aF2469.0
aF2643.0
aF2636.0
aF2831.0
aF-15.0
aF230.0
aF2765.0
aF609.0
aF743.0
aF1091.0
aF12.0
aF2847.0
aF1707.0
aF2679.0
aF3047.0
aF2826.0
aF2614.0
aF94.0
aF1250.0
aF666.0
aF351.0
aF2645.0
aF2661.0
aF2833.0
aF2616.0
aF2455.0
aF2656.0
aF470.0
aF2598.0
aF285.0
aF2834.0
aF2617.0
aF2580.0
aF2818.0
aF2448.0
aF2623.0
aF2642.0
aF2876.0
aF1390.0
aF2451.0
aF2421.0
aF1374.0
aF2449.0
aF3011.0
aF2451.0
aF2592.0
aF716.0
aF2460.0
asS'test_scores'
p3
(lp4
F2432.0
asS'behavior_count'
p5
(dp6
I1
(dp7
S'FleeBehavior'
p8
(lp9
I116
aI94
aI43
aI105
aI182
aI51
aI31
aI76
aI61
aI139
aI24
aI53
aI27
aI156
aI110
aI73
aI48
aI140
aI243
aI143
aI128
aI209
aI13
aI43
aI168
aI229
aI105
aI11
aI229
aI1
aI19
aI208
aI34
aI177
aI192
aI127
aI217
aI19
aI186
aI173
aI59
aI124
aI174
aI196
aI135
aI198
aI186
aI208
aI30
aI136
aI149
aI163
aI157
aI60
aI164
aI152
aI2
aI41
aI161
aI44
aI50
aI93
aI2
aI63
aI21
aI191
aI52
aI32
aI51
aI5
aI46
aI65
aI22
aI151
aI49
aI58
aI121
aI161
aI136
aI16
aI128
aI2
aI165
aI116
aI202
aI138
aI128
aI132
aI145
aI111
aI43
aI177
aI172
aI79
aI120
aI109
aI135
aI93
aI16
aI144
aI76
asS'PursueBehavior'
p10
(lp11
I165
aI35
aI209
aI127
aI52
aI77
aI77
aI174
aI7
aI103
aI88
aI12
aI16
aI122
aI66
aI180
aI107
aI92
aI40
aI53
aI154
aI24
aI38
aI7
aI41
aI13
aI50
aI32
aI17
aI2
aI213
aI17
aI111
aI36
aI55
aI82
aI43
aI159
aI33
aI81
aI176
aI36
aI20
aI52
aI80
aI65
aI29
aI11
aI218
aI22
aI77
aI78
aI58
aI141
aI44
aI121
aI31
aI10
aI80
aI56
aI52
aI43
aI33
aI164
aI217
aI30
aI161
aI30
aI67
aI30
aI100
aI31
aI41
aI67
aI184
aI89
aI95
aI102
aI57
aI64
aI98
aI44
aI71
aI122
aI44
aI89
aI43
aI58
aI71
aI121
aI112
aI35
aI33
aI88
aI96
aI160
aI62
aI101
aI46
aI51
aI89
asS'SeekBehavior'
p12
(lp13
I94
aI97
aI113
aI42
aI132
aI139
aI60
aI113
aI37
aI113
aI214
aI167
aI90
aI67
aI200
aI84
aI118
aI220
aI49
aI168
aI134
aI72
aI45
aI30
aI68
aI117
aI182
aI38
aI75
aI31
aI100
aI108
aI181
aI91
aI100
aI139
aI59
aI134
aI62
aI141
aI112
aI131
aI17
aI75
aI125
aI69
aI101
aI123
aI113
aI69
aI122
aI102
aI106
aI146
aI146
aI86
aI33
aI50
aI184
aI82
aI36
aI84
aI33
aI116
aI86
aI90
aI130
aI302
aI258
aI52
aI115
aI29
aI27
aI127
aI96
aI210
aI158
aI72
aI141
aI51
aI166
aI60
aI120
aI135
aI164
aI145
aI171
aI177
aI132
aI82
aI106
aI127
aI164
aI80
aI125
aI110
aI142
aI204
aI83
aI135
aI193
assI2
(dp14
S'FleeBehavior'
p15
(lp16
I112
aI97
aI122
aI74
aI245
aI23
aI60
aI124
aI54
aI119
aI30
aI107
aI49
aI62
aI251
aI234
aI58
aI146
aI133
aI208
aI128
aI163
aI48
aI38
aI165
aI243
aI226
aI29
aI225
aI2
aI198
aI246
aI187
aI208
aI201
aI132
aI212
aI50
aI193
aI247
aI244
aI174
aI174
aI238
aI83
aI235
aI97
aI138
aI239
aI153
aI52
aI199
aI187
aI99
aI244
aI91
aI19
aI55
aI243
aI99
aI72
aI127
aI22
aI212
aI32
aI246
aI245
aI81
aI196
aI46
aI123
aI77
aI36
aI227
aI252
aI242
aI245
aI227
aI247
aI38
aI254
aI65
aI230
aI135
aI232
aI201
aI194
aI225
aI201
aI172
aI76
aI231
aI306
aI179
aI239
aI186
aI182
aI197
aI81
aI182
aI273
asS'PursueBehavior'
p17
(lp18
I154
aI95
aI60
aI52
aI23
aI109
aI48
aI79
aI36
aI94
aI61
aI58
aI47
aI59
aI89
aI59
aI67
aI243
aI153
aI65
aI204
aI72
aI16
aI31
aI47
aI95
aI62
aI21
aI80
aI28
aI68
aI63
aI75
aI65
aI76
aI111
aI82
aI171
aI73
aI109
aI72
aI90
aI20
aI57
aI78
aI69
aI200
aI140
aI107
aI65
aI148
aI128
aI91
aI126
aI78
aI81
aI39
aI41
aI138
aI80
aI62
aI65
aI42
aI86
aI243
aI27
aI58
aI239
aI131
aI37
aI112
aI46
aI48
aI102
aI70
aI106
aI96
aI49
aI73
aI49
aI107
aI10
aI111
aI142
aI147
aI132
aI55
aI91
aI70
aI65
aI79
aI90
aI46
aI32
aI88
aI147
aI129
aI62
aI60
aI129
aI83
asS'SeekBehavior'
p19
(lp20
I109
aI34
aI183
aI147
aI98
aI135
aI60
aI160
aI14
aI142
aI235
aI66
aI36
aI224
aI36
aI44
aI148
aI63
aI46
aI91
aI84
aI70
aI32
aI11
aI65
aI21
aI49
aI31
aI16
aI4
aI66
aI24
aI64
aI31
aI70
aI105
aI25
aI91
aI15
aI39
aI31
aI27
aI17
aI28
aI179
aI28
aI19
aI64
aI15
aI8
aI148
aI16
aI43
aI122
aI32
aI187
aI7
aI5
aI44
aI3
aI4
aI28
aI4
aI45
aI49
aI38
aI40
aI44
aI49
aI4
aI25
aI2
aI6
aI16
aI7
aI9
aI33
aI59
aI14
aI43
aI31
aI30
aI15
aI96
aI31
aI39
aI93
aI51
aI77
aI77
aI105
aI18
aI17
aI35
aI14
aI46
aI28
aI139
aI4
aI19
aI2
assI3
(dp21
S'FleeBehavior'
p22
(lp23
I101
aI76
aI59
aI79
aI274
aI110
aI72
aI74
aI24
aI279
aI135
aI193
aI94
aI83
aI102
aI232
aI106
aI277
aI147
aI181
aI300
aI259
aI60
aI71
aI235
aI297
aI124
aI41
aI276
aI31
aI183
aI268
aI290
aI91
aI270
aI267
aI266
aI189
aI240
aI289
aI276
aI245
aI187
aI278
aI231
aI307
aI80
aI288
aI190
aI196
aI139
aI295
aI295
aI281
aI296
aI202
aI59
aI87
aI321
aI153
aI125
aI199
aI58
aI234
aI196
aI248
aI290
aI306
aI309
aI81
aI207
aI113
aI77
aI312
aI216
aI220
aI307
aI293
aI309
aI96
aI322
aI86
aI218
aI260
aI373
aI283
aI293
aI293
aI281
aI202
aI209
aI303
aI329
aI222
aI310
aI298
aI312
aI234
aI97
aI300
aI349
asS'PursueBehavior'
p24
(lp25
I103
aI87
aI73
aI160
aI59
aI141
aI68
aI93
aI14
aI20
aI152
aI14
aI34
aI42
aI80
aI81
aI107
aI90
aI139
aI73
aI79
aI24
aI9
aI2
aI39
aI37
aI156
aI27
aI16
aI1
aI108
aI29
aI13
aI207
aI20
aI61
aI11
aI110
aI19
aI45
aI34
aI14
aI9
aI9
aI70
aI10
aI213
aI15
aI145
aI11
aI169
aI20
aI10
aI25
aI22
aI142
aI2
aI5
aI44
aI24
aI5
aI13
aI1
aI68
aI86
aI50
aI33
aI32
aI20
aI2
aI12
aI5
aI4
aI19
aI95
aI120
aI27
aI12
aI8
aI23
aI27
aI6
aI99
aI80
aI21
aI57
aI13
aI41
aI59
aI91
aI44
aI12
aI18
aI14
aI17
aI29
aI15
aI91
aI6
aI14
aI2
asS'SeekBehavior'
p26
(lp27
I171
aI63
aI233
aI34
aI33
aI16
aI28
aI196
aI66
aI56
aI39
aI24
aI4
aI220
aI194
aI24
aI60
aI85
aI46
aI110
aI37
aI22
aI27
aI6
aI2
aI25
aI57
aI13
aI29
aI1
aI41
aI36
aI23
aI6
aI57
aI20
aI42
aI13
aI21
aI61
aI37
aI32
aI15
aI36
aI39
aI15
aI22
aI39
aI25
aI19
aI40
aI28
aI16
aI41
aI36
aI15
aI4
aI9
aI60
aI4
aI8
aI7
aI9
aI41
aI42
aI13
aI20
aI26
aI47
aI3
aI41
aI6
aI8
aI14
aI18
aI17
aI40
aI30
aI17
aI11
aI43
aI13
aI39
aI33
aI16
aI32
aI36
aI33
aI8
aI21
aI7
aI24
aI22
aI10
aI14
aI52
aI12
aI73
aI42
aI16
aI7
asss.