(dp0
S'learn_scores'
p1
(lp2
F2475.0
aF2827.0
aF2668.0
aF2619.0
aF2460.0
aF2618.0
aF1233.0
aF2461.0
aF2467.0
aF2457.0
aF2637.0
aF2849.0
aF944.0
aF2653.0
aF2573.0
aF2636.0
aF1187.0
aF622.0
aF1408.0
aF2850.0
aF2851.0
aF2661.0
aF1108.0
aF1561.0
aF2484.0
aF2467.0
aF2446.0
aF3066.0
aF-142.0
aF2642.0
aF696.0
aF2836.0
aF2442.0
aF2448.0
aF2857.0
aF2368.0
aF2569.0
aF2662.0
aF2628.0
aF2636.0
aF2702.0
aF2841.0
aF2457.0
aF2614.0
aF2824.0
aF2624.0
aF2642.0
aF2415.0
aF2671.0
aF2455.0
asS'test_scores'
p3
(lp4
F2459.0
asS'behavior_count'
p5
(dp6
I1
(dp7
S'FleeBehavior'
p8
(lp9
I100
aI139
aI101
aI188
aI59
aI92
aI162
aI231
aI27
aI150
aI246
aI17
aI14
aI197
aI149
aI195
aI50
aI37
aI69
aI29
aI69
aI231
aI65
aI52
aI209
aI24
aI22
aI141
aI21
aI67
aI65
aI59
aI157
aI86
aI33
aI72
aI115
aI183
aI133
aI149
aI214
aI187
aI37
aI85
aI52
aI55
aI60
aI46
aI76
aI82
aI63
asS'PursueBehavior'
p10
(lp11
I87
aI95
aI142
aI79
aI148
aI113
aI58
aI71
aI81
aI51
aI76
aI101
aI31
aI72
aI111
aI105
aI16
aI61
aI60
aI52
aI153
aI82
aI86
aI184
aI70
aI85
aI102
aI111
aI18
aI122
aI50
aI75
aI71
aI149
aI76
aI142
aI111
aI98
aI200
aI92
aI251
aI116
aI79
aI128
aI117
aI134
aI89
aI176
aI122
aI99
aI184
asS'SeekBehavior'
p12
(lp13
I128
aI129
aI79
aI104
aI123
aI167
aI58
aI27
aI215
aI132
aI31
aI223
aI152
aI68
aI157
aI54
aI178
aI71
aI173
aI259
aI117
aI16
aI132
aI44
aI27
aI214
aI220
aI72
aI4
aI159
aI20
aI220
aI120
aI107
aI224
aI208
aI195
aI47
aI29
aI113
aI23
aI46
aI217
aI163
aI197
aI177
aI199
aI153
aI121
aI154
aI84
assI2
(dp14
S'FleeBehavior'
p15
(lp16
I92
aI142
aI26
aI105
aI193
aI41
aI209
aI86
aI150
aI266
aI36
aI24
aI159
aI210
aI106
aI47
aI68
aI101
aI230
aI265
aI158
aI124
aI163
aI194
aI61
aI240
aI86
aI154
aI23
aI30
aI93
aI233
aI172
aI227
aI183
aI297
aI112
aI272
aI240
aI165
aI247
aI239
aI223
aI222
aI200
aI272
aI277
aI294
aI66
aI253
aI210
asS'PursueBehavior'
p17
(lp18
I50
aI101
aI189
aI186
aI113
aI241
aI37
aI191
aI114
aI58
aI216
aI174
aI32
aI114
aI244
aI277
aI92
aI42
aI63
aI64
aI40
aI106
aI111
aI75
aI230
aI68
aI251
aI108
aI19
aI298
aI40
aI88
aI127
aI105
aI88
aI117
aI288
aI46
aI84
aI162
aI223
aI96
aI89
aI144
aI102
aI80
aI48
aI69
aI137
aI66
aI121
asS'SeekBehavior'
p19
(lp20
I173
aI120
aI107
aI80
aI24
aI90
aI31
aI52
aI59
aI9
aI101
aI143
aI5
aI13
aI67
aI30
aI83
aI25
aI9
aI11
aI141
aI99
aI8
aI11
aI15
aI15
aI7
aI62
aI0
aI20
aI1
aI33
aI49
aI10
aI62
aI8
aI21
aI10
aI38
aI27
aI18
aI14
aI21
aI10
aI64
aI14
aI23
aI12
aI116
aI16
aI0
asss.