(dp0
S'learn_scores'
p1
(lp2
F2641.0
aF2673.0
aF2589.0
aF2439.0
aF2847.0
aF2458.0
aF2663.0
aF2440.0
aF2677.0
aF2844.0
aF2425.0
aF1519.0
aF2615.0
aF2670.0
aF2474.0
aF2448.0
aF2425.0
aF2671.0
aF2731.0
aF2851.0
aF2662.0
aF2451.0
aF2471.0
aF2640.0
aF2670.0
aF2660.0
aF2654.0
aF82.0
aF1470.0
aF2666.0
aF1907.0
aF2472.0
aF2643.0
aF2810.0
aF2667.0
aF2599.0
aF2633.0
aF2849.0
aF2357.0
aF2823.0
aF2601.0
aF2819.0
aF2639.0
aF85.0
aF2678.0
aF2864.0
aF2438.0
aF122.0
aF413.0
aF2632.0
asS'test_scores'
p3
(lp4
F2471.0
asS'behavior_count'
p5
(dp6
I1
(dp7
S'FleeBehavior'
p8
(lp9
I134
aI181
aI204
aI274
aI245
aI130
aI121
aI252
aI145
aI158
aI321
aI98
aI203
aI199
aI240
aI244
aI239
aI268
aI391
aI66
aI180
aI287
aI271
aI314
aI228
aI227
aI206
aI36
aI272
aI196
aI193
aI275
aI207
aI256
aI167
aI293
aI257
aI210
aI288
aI252
aI294
aI219
aI135
aI74
aI205
aI175
aI301
aI52
aI69
aI234
aI221
asS'PursueBehavior'
p10
(lp11
I173
aI88
aI102
aI35
aI42
aI99
aI161
aI30
aI143
aI38
aI33
aI120
aI95
aI76
aI33
aI37
aI96
aI33
aI44
aI191
aI42
aI31
aI14
aI24
aI26
aI55
aI91
aI51
aI49
aI59
aI77
aI31
aI76
aI101
aI24
aI68
aI86
aI87
aI123
aI101
aI72
aI93
aI35
aI8
aI94
aI116
aI38
aI23
aI33
aI100
aI98
asS'SeekBehavior'
p12
(lp13
I42
aI48
aI95
aI42
aI56
aI103
aI45
aI68
aI25
aI150
aI11
aI94
aI77
aI45
aI43
aI61
aI30
aI18
aI24
aI82
aI106
aI21
aI34
aI12
aI66
aI48
aI39
aI2
aI10
aI69
aI34
aI12
aI64
aI23
aI132
aI30
aI14
aI44
aI22
aI14
aI23
aI59
aI181
aI4
aI13
aI35
aI13
aI4
aI5
aI24
aI0
assI2
(dp14
S'FleeBehavior'
p15
(lp16
I110
aI88
aI148
aI135
aI46
aI37
aI119
aI55
aI62
aI91
aI102
aI146
aI175
aI229
aI54
aI114
aI98
aI76
aI81
aI84
aI121
aI63
aI69
aI219
aI57
aI89
aI116
aI45
aI37
aI116
aI109
aI73
aI125
aI183
aI110
aI113
aI132
aI137
aI127
aI78
aI76
aI187
aI132
aI5
aI68
aI139
aI89
aI17
aI30
aI113
aI95
asS'PursueBehavior'
p17
(lp18
I75
aI130
aI125
aI102
aI38
aI171
aI50
aI161
aI72
aI62
aI65
aI126
aI41
aI36
aI104
aI15
aI33
aI18
aI13
aI130
aI20
aI111
aI93
aI34
aI32
aI90
aI72
aI4
aI62
aI42
aI87
aI32
aI20
aI18
aI19
aI6
aI101
aI78
aI31
aI31
aI9
aI89
aI48
aI2
aI46
aI22
aI25
aI3
aI2
aI59
aI0
asS'SeekBehavior'
p19
(lp20
I164
aI99
aI128
aI114
aI259
aI124
aI158
aI134
aI179
aI193
aI198
aI39
aI159
aI55
aI158
aI213
aI234
aI225
aI365
aI125
aI187
aI165
aI157
aI97
aI231
aI151
aI148
aI40
aI231
aI166
aI107
aI213
aI202
aI179
aI194
aI272
aI124
aI126
aI275
aI258
aI304
aI95
aI171
aI78
aI198
aI165
aI238
aI58
aI75
aI186
aI224
asss.