(dp0
S'learn_scores'
p1
(lp2
F2641.0
aF2673.0
aF2589.0
aF2439.0
aF2847.0
aF2458.0
aF2663.0
aF2440.0
aF2677.0
aF2844.0
aF2425.0
aF1519.0
aF2615.0
aF2670.0
aF2474.0
aF2448.0
aF2425.0
aF2671.0
aF2731.0
aF2851.0
aF2662.0
aF2451.0
aF2471.0
aF2640.0
aF2670.0
aF2660.0
aF2654.0
aF82.0
aF1470.0
aF2666.0
aF1907.0
aF2472.0
aF2643.0
aF2810.0
aF2667.0
aF2599.0
aF2633.0
aF2849.0
aF2357.0
aF2823.0
aF2601.0
aF2819.0
aF2639.0
aF85.0
aF2678.0
aF2864.0
aF2438.0
aF122.0
aF413.0
aF2632.0
asS'test_scores'
p3
(lp4
F2471.0
asS'behavior_count'
p5
(dp6
I1
(dp7
S'FleeBehavior'
p8
(lp9
I140
aI79
aI167
aI123
aI101
aI89
aI65
aI187
aI107
aI217
aI236
aI229
aI314
aI173
aI265
aI152
aI56
aI155
aI292
aI187
aI282
aI296
aI193
aI141
aI245
aI135
aI172
aI5
aI48
aI121
aI211
aI269
aI304
aI207
aI172
aI108
aI205
aI218
aI165
aI137
aI154
aI69
aI97
aI74
aI159
aI219
aI307
aI67
aI86
aI287
aI221
asS'PursueBehavior'
p10
(lp11
I129
aI166
aI156
aI175
aI88
aI173
aI154
aI18
aI146
aI64
aI15
aI58
aI9
aI137
aI33
aI171
aI214
aI59
aI124
aI142
aI25
aI11
aI2
aI13
aI9
aI27
aI130
aI82
aI273
aI119
aI59
aI7
aI10
aI58
aI45
aI141
aI17
aI57
aI244
aI219
aI204
aI106
aI39
aI1
aI41
aI13
aI35
aI8
aI16
aI57
aI98
asS'SeekBehavior'
p12
(lp13
I80
aI72
aI78
aI53
aI154
aI70
aI108
aI145
aI60
aI65
aI114
aI25
aI52
aI10
aI18
aI19
aI95
aI105
aI43
aI10
aI21
aI32
aI124
aI196
aI66
aI168
aI34
aI2
aI10
aI84
aI34
aI42
aI33
aI115
aI106
aI142
aI135
aI66
aI24
aI11
aI31
aI196
aI215
aI11
aI112
aI94
aI10
aI4
aI5
aI14
aI0
assI2
(dp14
S'FleeBehavior'
p15
(lp16
I136
aI138
aI220
aI133
aI154
aI250
aI65
aI58
aI157
aI76
aI11
aI81
aI73
aI171
aI12
aI16
aI209
aI253
aI77
aI15
aI159
aI206
aI15
aI141
aI180
aI125
aI84
aI3
aI173
aI167
aI157
aI73
aI144
aI141
aI113
aI179
aI170
aI299
aI226
aI80
aI61
aI257
aI132
aI5
aI79
aI140
aI90
aI17
aI30
aI114
aI95
asS'PursueBehavior'
p17
(lp18
I90
aI104
aI82
aI76
aI45
aI15
aI79
aI9
aI62
aI156
aI198
aI58
aI16
aI30
aI191
aI209
aI13
aI18
aI12
aI61
aI44
aI17
aI183
aI183
aI69
aI21
aI14
aI2
aI11
aI48
aI52
aI63
aI17
aI218
aI199
aI198
aI12
aI31
aI175
aI237
aI8
aI69
aI206
aI2
aI9
aI13
aI10
aI3
aI2
aI29
aI0
asS'SeekBehavior'
p19
(lp20
I123
aI75
aI99
aI142
aI144
aI67
aI183
aI283
aI94
aI114
aI156
aI172
aI286
aI119
aI113
aI117
aI143
aI48
aI370
aI263
aI125
aI116
aI121
aI26
aI71
aI184
aI238
aI84
aI146
aI109
aI94
aI182
aI186
aI21
aI11
aI14
aI175
aI11
aI32
aI50
aI320
aI45
aI13
aI78
aI224
aI173
aI252
aI58
aI75
aI215
aI224
asss.