(dp0
S'learn_scores'
p1
(lp2
F-251.0
aF2670.0
aF2477.0
aF2608.0
aF2865.0
aF2683.0
aF2449.0
aF2845.0
aF2662.0
aF2686.0
aF1145.0
aF2635.0
aF1162.0
aF2615.0
aF-53.0
aF2468.0
aF2599.0
aF415.0
aF149.0
aF2636.0
aF2607.0
aF2649.0
aF2659.0
aF2635.0
aF2826.0
aF2645.0
aF1452.0
aF93.0
aF2633.0
aF692.0
aF5.0
aF2646.0
aF2825.0
aF2666.0
aF117.0
aF3043.0
aF2866.0
aF-72.0
aF2647.0
aF2670.0
aF2418.0
aF2658.0
aF2856.0
aF2440.0
aF2792.0
aF2656.0
aF2810.0
aF1729.0
aF2671.0
aF119.0
aF2478.0
aF2869.0
aF250.0
aF2452.0
aF3059.0
aF991.0
aF187.0
aF2652.0
aF840.0
aF2395.0
aF3194.0
aF2460.0
aF3075.0
aF2863.0
aF1148.0
aF113.0
aF2839.0
aF3054.0
aF2614.0
aF2447.0
aF2365.0
aF2646.0
aF1143.0
aF861.0
aF241.0
aF2867.0
aF578.0
aF2858.0
aF2840.0
aF2558.0
aF2822.0
aF2638.0
aF2646.0
aF1755.0
aF2427.0
aF1483.0
aF2424.0
aF2860.0
aF754.0
aF2439.0
aF2861.0
aF423.0
aF-283.0
aF2453.0
aF-291.0
aF2864.0
aF3221.0
aF2792.0
aF286.0
aF2420.0
asS'test_scores'
p3
(lp4
F1297.0
asS'behavior_count'
p5
(dp6
I1
(dp7
S'FleeBehavior'
p8
(lp9
I41
aI136
aI85
aI240
aI140
aI110
aI157
aI146
aI118
aI104
aI44
aI81
aI88
aI99
aI22
aI100
aI140
aI44
aI24
aI138
aI130
aI86
aI107
aI138
aI159
aI163
aI53
aI39
aI181
aI39
aI59
aI223
aI122
aI130
aI20
aI182
aI205
aI41
aI164
aI118
aI237
aI120
aI89
aI154
aI180
aI121
aI135
aI142
aI136
aI33
aI98
aI107
aI29
aI114
aI186
aI111
aI2
aI118
aI152
aI277
aI130
aI66
aI140
aI186
aI39
aI48
aI196
aI122
aI111
aI67
aI143
aI65
aI43
aI33
aI19
aI92
aI67
aI226
aI111
aI174
aI49
aI135
aI110
aI165
aI133
aI53
aI90
aI152
aI44
aI71
aI106
aI35
aI1
aI69
aI2
aI70
aI75
aI203
aI49
aI189
aI249
asS'PursueBehavior'
p10
(lp11
I8
aI49
aI88
aI81
aI116
aI116
aI70
aI94
aI97
aI51
aI70
aI106
aI49
aI123
aI8
aI72
aI123
aI51
aI26
aI83
aI88
aI78
aI97
aI95
aI90
aI70
aI87
aI20
aI89
aI66
aI2
aI64
aI109
aI68
aI19
aI69
aI28
aI11
aI34
aI43
aI63
aI153
aI115
aI81
aI79
aI101
aI171
aI96
aI58
aI40
aI97
aI130
aI52
aI107
aI96
aI97
aI60
aI67
aI1
aI74
aI120
aI156
aI67
aI31
aI28
aI2
aI71
aI87
aI48
aI150
aI198
aI152
aI108
aI40
aI49
aI139
aI10
aI9
aI80
aI191
aI137
aI144
aI108
aI123
aI73
aI27
aI76
aI23
aI10
aI122
aI61
aI7
aI2
aI134
aI30
aI99
aI66
aI39
aI19
aI11
aI0
asS'SeekBehavior'
p12
(lp13
I3
aI135
aI140
aI61
aI69
aI81
aI114
aI105
aI113
aI149
aI92
aI168
aI72
aI153
aI24
aI150
aI128
aI61
aI42
aI133
aI165
aI177
aI127
aI122
aI115
aI112
aI89
aI19
aI87
aI64
aI5
aI57
aI134
aI126
aI45
aI96
aI91
aI1
aI145
aI159
aI72
aI59
aI130
aI115
aI139
aI112
aI74
aI94
aI125
aI19
aI117
aI84
aI40
aI117
aI49
aI22
aI12
aI153
aI68
aI44
aI146
aI108
aI108
aI110
aI76
aI48
aI84
aI127
aI217
aI126
aI84
aI127
aI87
aI87
aI32
aI92
aI75
aI97
aI159
aI67
aI182
aI73
aI126
aI78
aI157
aI147
aI200
aI155
aI113
aI158
aI162
aI86
aI31
aI134
aI0
aI157
aI228
aI156
aI7
aI170
aI5
assI2
(dp14
S'FleeBehavior'
p15
(lp16
I5
aI57
aI181
aI64
aI115
aI55
aI73
aI90
aI73
aI139
aI80
aI83
aI103
aI140
aI13
aI99
aI105
aI47
aI40
aI73
aI128
aI112
aI111
aI88
aI84
aI108
aI74
aI20
aI95
aI8
aI10
aI74
aI142
aI79
aI25
aI198
aI48
aI0
aI34
aI61
aI142
aI78
aI124
aI134
aI42
aI90
aI52
aI14
aI25
aI41
aI88
aI25
aI66
aI134
aI50
aI83
aI38
aI119
aI51
aI107
aI154
aI41
aI59
aI72
aI8
aI12
aI20
aI125
aI123
aI96
aI105
aI179
aI46
aI100
aI73
aI71
aI37
aI48
aI14
aI52
aI90
aI123
aI76
aI62
aI105
aI43
aI36
aI34
aI92
aI219
aI43
aI4
aI29
aI118
aI24
aI92
aI97
aI125
aI40
aI97
aI134
asS'PursueBehavior'
p17
(lp18
I1
aI146
aI85
aI144
aI85
aI97
aI120
aI131
aI109
aI101
aI35
aI150
aI72
aI125
aI20
aI133
aI144
aI48
aI22
aI178
aI170
aI156
aI161
aI90
aI116
aI134
aI53
aI32
aI77
aI52
aI26
aI103
aI45
aI183
aI49
aI43
aI121
aI3
aI106
aI178
aI183
aI135
aI87
aI155
aI267
aI223
aI231
aI185
aI154
aI6
aI83
aI194
aI3
aI46
aI117
aI40
aI34
aI166
aI11
aI78
aI79
aI215
aI98
aI9
aI48
aI2
aI116
aI145
aI30
aI220
aI258
aI31
aI33
aI40
aI6
aI135
aI22
aI184
aI80
aI361
aI85
aI30
aI149
aI79
aI62
aI67
aI82
aI256
aI6
aI24
aI12
aI16
aI1
aI29
aI5
aI170
aI169
aI38
aI2
aI106
aI0
asS'SeekBehavior'
p19
(lp20
I46
aI117
aI47
aI174
aI125
aI155
aI148
aI124
aI146
aI64
aI91
aI122
aI34
aI110
aI21
aI90
aI142
aI61
aI30
aI103
aI85
aI73
aI59
aI177
aI164
aI103
aI101
aI26
aI185
aI109
aI29
aI167
aI178
aI62
aI10
aI106
aI155
aI49
aI203
aI81
aI47
aI119
aI123
aI61
aI89
aI21
aI97
aI133
aI140
aI45
aI141
aI102
aI52
aI158
aI164
aI107
aI2
aI53
aI159
aI210
aI163
aI74
aI158
aI246
aI86
aI83
aI215
aI66
aI223
aI27
aI62
aI134
aI158
aI20
aI21
aI117
aI93
aI100
aI256
aI19
aI193
aI199
aI119
aI224
aI196
aI117
aI248
aI40
aI68
aI108
aI274
aI107
aI4
aI190
aI3
aI64
aI103
aI235
aI33
aI167
aI120
assI3
(dp21
S'FleeBehavior'
p22
(lp23
I5
aI47
aI78
aI85
aI92
aI55
aI114
aI100
aI86
aI89
aI35
aI99
aI61
aI123
aI9
aI94
aI115
aI33
aI16
aI93
aI155
aI135
aI114
aI165
aI97
aI173
aI82
aI50
aI122
aI89
aI63
aI230
aI103
aI96
aI7
aI190
aI100
aI28
aI166
aI188
aI139
aI173
aI65
aI272
aI131
aI146
aI271
aI68
aI85
aI51
aI145
aI155
aI114
aI222
aI48
aI82
aI65
aI165
aI155
aI273
aI100
aI130
aI81
aI106
aI44
aI23
aI99
aI73
aI96
aI160
aI118
aI117
aI82
aI62
aI4
aI95
aI23
aI110
aI191
aI119
aI114
aI100
aI151
aI104
aI231
aI108
aI175
aI82
aI117
aI201
aI41
aI33
aI9
aI140
aI21
aI95
aI103
aI81
aI56
aI144
aI160
asS'PursueBehavior'
p24
(lp25
I5
aI28
aI135
aI214
aI135
aI129
aI126
aI98
aI121
aI117
aI104
aI197
aI90
aI122
aI30
aI120
aI170
aI68
aI34
aI120
aI172
aI79
aI177
aI142
aI190
aI101
aI98
aI10
aI142
aI73
aI0
aI60
aI223
aI180
aI53
aI104
aI118
aI24
aI126
aI102
aI192
aI70
aI108
aI10
aI243
aI146
aI63
aI189
aI195
aI6
aI131
aI157
aI2
aI50
aI172
aI106
aI1
aI89
aI39
aI109
aI229
aI167
aI122
aI119
aI2
aI69
aI222
aI123
aI258
aI117
aI230
aI208
aI129
aI79
aI24
aI156
aI122
aI179
aI58
aI229
aI101
aI200
aI94
aI19
aI65
aI79
aI177
aI217
aI11
aI121
aI132
aI89
aI24
aI141
aI10
aI207
aI77
aI182
aI3
aI202
aI0
asS'SeekBehavior'
p26
(lp27
I41
aI245
aI100
aI83
aI98
aI123
aI101
aI147
aI121
aI98
aI66
aI59
aI57
aI130
aI14
aI108
aI106
aI54
aI41
aI141
aI56
aI127
aI40
aI48
aI77
aI71
aI48
aI18
aI93
aI7
aI2
aI54
aI39
aI48
aI23
aI53
aI106
aI0
aI51
aI30
aI41
aI89
aI161
aI68
aI24
aI42
aI46
aI75
aI39
aI34
aI36
aI9
aI5
aI66
aI111
aI42
aI7
aI84
aI27
aI13
aI67
aI33
aI112
aI102
aI96
aI5
aI30
aI140
aI22
aI66
aI77
aI19
aI26
aI18
aI71
aI72
aI7
aI43
aI101
aI84
aI153
aI52
aI99
aI242
aI67
aI40
aI14
aI31
aI38
aI29
aI156
aI5
aI1
aI56
aI0
aI24
aI189
aI135
aI15
aI24
aI93
asss.