(dp0
S'learn_scores'
p1
(lp2
F1274.0
aF2659.0
aF2462.0
aF2646.0
aF2423.0
aF2664.0
aF2611.0
aF2451.0
aF2439.0
aF2641.0
aF2653.0
aF2465.0
aF2645.0
aF2599.0
aF2447.0
aF2668.0
aF3061.0
aF2649.0
aF2669.0
aF2470.0
aF2830.0
aF2649.0
aF2407.0
aF2874.0
aF2637.0
aF2603.0
aF2459.0
aF2438.0
aF830.0
aF2431.0
aF2668.0
aF2465.0
aF2430.0
aF2652.0
aF2475.0
aF2463.0
aF2649.0
aF2654.0
aF2837.0
aF2616.0
aF2448.0
aF2838.0
aF414.0
aF2873.0
aF2685.0
aF1277.0
aF1675.0
aF2657.0
aF2807.0
aF2621.0
asS'test_scores'
p3
(lp4
F2470.0
asS'behavior_count'
p5
(dp6
I1
(dp7
S'FleeBehavior'
p8
(lp9
I86
aI211
aI91
aI83
aI206
aI187
aI53
aI15
aI259
aI43
aI133
aI257
aI56
aI50
aI237
aI167
aI180
aI66
aI107
aI154
aI90
aI168
aI293
aI83
aI177
aI93
aI39
aI184
aI63
aI201
aI53
aI264
aI281
aI102
aI243
aI264
aI109
aI244
aI150
aI40
aI186
aI216
aI7
aI218
aI233
aI150
aI210
aI246
aI142
aI273
aI145
asS'PursueBehavior'
p10
(lp11
I100
aI89
aI92
aI90
aI67
aI109
aI105
aI43
aI32
aI32
aI30
aI45
aI25
aI48
aI76
aI45
aI21
aI35
aI47
aI69
aI134
aI97
aI37
aI72
aI95
aI48
aI30
aI41
aI36
aI68
aI41
aI20
aI51
aI42
aI44
aI27
aI55
aI43
aI125
aI58
aI47
aI48
aI19
aI27
aI16
aI20
aI18
aI17
aI95
aI51
aI16
asS'SeekBehavior'
p12
(lp13
I91
aI31
aI145
aI171
aI94
aI30
aI221
aI281
aI60
aI274
aI174
aI23
aI264
aI293
aI30
aI110
aI128
aI240
aI167
aI97
aI136
aI76
aI53
aI161
aI81
aI246
aI262
aI127
aI62
aI90
aI228
aI41
aI28
aI194
aI28
aI36
aI177
aI49
aI78
aI276
aI109
aI88
aI71
aI72
aI56
aI64
aI68
aI70
aI146
aI45
aI159
assI2
(dp14
S'FleeBehavior'
p15
(lp16
I95
aI80
aI125
aI81
aI87
aI150
aI258
aI272
aI155
aI80
aI85
aI142
aI102
aI252
aI157
aI64
aI76
aI230
aI92
aI69
aI169
aI40
aI66
aI44
aI114
aI136
aI62
aI49
aI69
aI81
aI43
aI54
aI123
aI56
aI212
aI69
aI50
aI37
aI51
aI25
aI65
aI232
aI19
aI25
aI28
aI38
aI114
aI56
aI90
aI101
aI29
asS'PursueBehavior'
p17
(lp18
I42
aI153
aI118
aI68
aI175
aI65
aI62
aI51
aI61
aI77
aI159
aI144
aI112
aI116
aI86
aI53
aI68
aI38
aI117
aI86
aI140
aI170
aI271
aI251
aI155
aI223
aI250
aI249
aI38
aI201
aI269
aI248
aI222
aI246
aI88
aI85
aI277
aI268
aI249
aI338
aI217
aI70
aI57
aI284
aI200
aI71
aI136
aI103
aI267
aI237
aI291
asS'SeekBehavior'
p19
(lp20
I139
aI98
aI85
aI195
aI105
aI111
aI59
aI16
aI135
aI192
aI93
aI39
aI131
aI23
aI100
aI205
aI185
aI73
aI112
aI165
aI51
aI131
aI46
aI21
aI84
aI28
aI19
aI54
aI53
aI77
aI10
aI23
aI15
aI36
aI15
aI173
aI14
aI31
aI53
aI11
aI60
aI50
aI20
aI8
aI77
aI124
aI45
aI174
aI26
aI31
aI0
asss.