(dp0
S'learn_scores'
p1
(lp2
F585.0
aF2629.0
aF3050.0
aF634.0
aF2852.0
aF2836.0
aF689.0
aF1118.0
aF1145.0
aF1257.0
aF1936.0
aF2844.0
aF1077.0
aF2642.0
aF780.0
aF1495.0
aF2864.0
aF2830.0
aF3014.0
aF2800.0
aF2643.0
aF2429.0
aF2599.0
aF3022.0
aF2796.0
aF211.0
aF3058.0
aF2600.0
aF2598.0
aF2409.0
aF2683.0
aF2996.0
aF2630.0
aF2858.0
aF3056.0
aF2625.0
aF2815.0
aF2447.0
aF2603.0
aF2477.0
aF2871.0
aF2772.0
aF644.0
aF1478.0
aF2641.0
aF2865.0
aF1550.0
aF2651.0
aF1612.0
aF612.0
aF356.0
aF2820.0
aF2673.0
aF3040.0
aF583.0
aF96.0
aF2984.0
aF-337.0
aF2625.0
aF2665.0
aF2833.0
aF2623.0
aF3045.0
aF3445.0
aF3013.0
aF769.0
aF2643.0
aF2429.0
aF2599.0
aF2762.0
aF2388.0
aF917.0
aF310.0
aF74.0
aF920.0
aF3033.0
aF2635.0
aF553.0
aF333.0
aF1481.0
aF-356.0
aF2590.0
aF2661.0
aF457.0
aF3010.0
aF2387.0
aF1530.0
aF3053.0
aF2627.0
aF3056.0
aF1755.0
aF2384.0
aF2610.0
aF3456.0
aF1597.0
aF2409.0
aF1528.0
aF2835.0
aF999.0
aF-67.0
asS'test_scores'
p3
(lp4
F2625.0
asS'behavior_count'
p5
(dp6
I1
(dp7
S'FleeBehavior'
p8
(lp9
I48
aI155
aI113
aI61
aI64
aI154
aI127
aI83
aI87
aI123
aI56
aI45
aI19
aI62
aI97
aI77
aI75
aI50
aI135
aI197
aI67
aI80
aI231
aI214
aI208
aI16
aI19
aI64
aI43
aI227
aI63
aI185
aI72
aI50
aI106
aI8
aI61
aI255
aI234
aI253
aI62
aI38
aI4
aI11
aI66
aI13
aI13
aI22
aI43
aI5
aI61
aI269
aI231
aI180
aI146
aI39
aI119
aI2
aI137
aI116
aI140
aI187
aI128
aI18
aI223
aI10
aI15
aI14
aI10
aI13
aI16
aI139
aI58
aI37
aI110
aI135
aI131
aI63
aI40
aI97
aI1
aI13
aI125
aI16
aI53
aI211
aI152
aI48
aI10
aI10
aI12
aI13
aI13
aI26
aI133
aI203
aI26
aI26
aI16
aI2
aI33
asS'PursueBehavior'
p10
(lp11
I58
aI121
aI42
aI58
aI137
aI138
aI48
aI41
aI21
aI34
aI85
aI173
aI85
aI10
aI48
aI95
aI227
aI163
aI133
aI60
aI199
aI250
aI44
aI45
aI144
aI42
aI132
aI131
aI317
aI89
aI42
aI160
aI182
aI202
aI178
aI311
aI246
aI15
aI29
aI30
aI75
aI134
aI8
aI174
aI239
aI251
aI113
aI281
aI198
aI130
aI22
aI26
aI46
aI102
aI14
aI0
aI33
aI1
aI23
aI60
aI52
aI51
aI95
aI243
aI31
aI145
aI169
aI257
aI200
aI273
aI189
aI40
aI4
aI3
aI4
aI29
aI11
aI10
aI5
aI35
aI0
aI80
aI12
aI26
aI14
aI16
aI46
aI171
aI222
aI272
aI169
aI327
aI296
aI199
aI118
aI84
aI171
aI201
aI192
aI32
aI200
asS'SeekBehavior'
p12
(lp13
I50
aI85
aI185
aI8
aI137
aI62
aI36
aI49
aI58
aI87
aI184
aI128
aI20
aI276
aI16
aI54
aI24
aI147
aI108
aI133
aI81
aI31
aI116
aI109
aI42
aI12
aI181
aI195
aI32
aI65
aI202
aI49
aI106
aI80
aI50
aI46
aI68
aI73
aI124
aI30
aI182
aI246
aI135
aI98
aI44
aI61
aI215
aI36
aI58
aI54
aI11
aI75
aI40
aI68
aI28
aI46
aI254
aI25
aI205
aI149
aI165
aI129
aI122
aI84
aI123
aI57
aI163
aI90
aI181
aI142
aI197
aI35
aI19
aI37
aI27
aI193
aI213
aI95
aI72
aI268
aI16
aI307
aI192
aI101
aI313
aI176
aI213
aI118
aI131
aI52
aI134
aI66
aI71
aI109
aI103
aI94
aI85
aI128
aI64
aI24
aI132
assI2
(dp14
S'FleeBehavior'
p15
(lp16
I67
aI97
aI79
aI39
aI171
aI10
aI61
aI33
aI64
aI71
aI120
aI25
aI4
aI16
aI38
aI145
aI105
aI48
aI149
aI199
aI11
aI193
aI50
aI104
aI81
aI1
aI9
aI9
aI11
aI13
aI185
aI248
aI99
aI12
aI42
aI63
aI239
aI104
aI178
aI246
aI13
aI12
aI79
aI84
aI38
aI78
aI7
aI8
aI40
aI1
aI4
aI76
aI142
aI26
aI35
aI43
aI245
aI25
aI341
aI97
aI143
aI146
aI116
aI96
aI20
aI10
aI14
aI16
aI12
aI29
aI225
aI36
aI24
aI2
aI5
aI9
aI148
aI85
aI40
aI47
aI0
aI15
aI84
aI10
aI50
aI139
aI64
aI40
aI10
aI6
aI37
aI29
aI13
aI159
aI298
aI171
aI75
aI154
aI106
aI1
aI0
asS'PursueBehavior'
p17
(lp18
I54
aI178
aI181
aI27
aI143
aI252
aI59
aI23
aI19
aI40
aI9
aI55
aI39
aI108
aI16
aI57
aI174
aI263
aI78
aI73
aI196
aI93
aI101
aI14
aI276
aI68
aI266
aI348
aI164
aI82
aI19
aI73
aI32
aI93
aI62
aI139
aI12
aI21
aI171
aI45
aI115
aI61
aI6
aI12
aI146
aI56
aI15
aI20
aI100
aI157
aI23
aI56
aI79
aI204
aI139
aI40
aI123
aI3
aI15
aI49
aI136
aI100
aI160
aI103
aI139
aI110
aI175
aI130
aI156
aI117
aI16
aI10
aI2
aI2
aI10
aI40
aI14
aI8
aI6
aI53
aI1
aI73
aI90
aI69
aI193
aI34
aI195
aI266
aI295
aI282
aI239
aI287
aI322
aI132
aI11
aI18
aI110
aI105
aI82
aI51
aI332
asS'SeekBehavior'
p19
(lp20
I35
aI86
aI80
aI60
aI24
aI92
aI91
aI117
aI82
aI132
aI196
aI266
aI81
aI224
aI106
aI24
aI47
aI49
aI149
aI118
aI140
aI75
aI240
aI250
aI37
aI1
aI57
aI33
aI217
aI286
aI103
aI73
aI229
aI227
aI230
aI163
aI124
aI218
aI38
aI22
aI191
aI345
aI62
aI186
aI165
aI191
aI319
aI311
aI159
aI31
aI67
aI238
aI96
aI120
aI13
aI2
aI38
aI0
aI9
aI179
aI78
aI121
aI69
aI146
aI218
aI91
aI158
aI215
aI223
aI282
aI161
aI167
aI55
aI72
aI126
aI308
aI193
aI75
aI71
aI300
aI16
aI312
aI155
aI64
aI137
aI230
aI152
aI31
aI58
aI46
aI39
aI90
aI45
aI43
aI45
aI192
aI97
aI96
aI83
aI5
aI33
assI3
(dp21
S'FleeBehavior'
p22
(lp23
I35
aI154
aI147
aI72
aI93
aI153
aI44
aI38
aI14
aI10
aI65
aI109
aI20
aI14
aI51
aI62
aI128
aI4
aI31
aI146
aI249
aI171
aI235
aI188
aI211
aI33
aI176
aI138
aI102
aI163
aI72
aI23
aI96
aI223
aI213
aI267
aI166
aI239
aI18
aI9
aI67
aI37
aI6
aI5
aI20
aI121
aI11
aI19
aI63
aI10
aI4
aI102
aI235
aI94
aI35
aI14
aI63
aI0
aI15
aI20
aI61
aI123
aI148
aI131
aI159
aI24
aI9
aI21
aI156
aI171
aI147
aI130
aI39
aI3
aI49
aI65
aI170
aI95
aI92
aI235
aI0
aI146
aI148
aI89
aI245
aI229
aI245
aI117
aI248
aI207
aI117
aI201
aI175
aI209
aI88
aI14
aI38
aI30
aI17
aI2
aI82
asS'PursueBehavior'
p24
(lp25
I67
aI76
aI30
aI29
aI110
aI99
aI75
aI54
aI110
aI41
aI50
aI69
aI39
aI254
aI36
aI24
aI38
aI93
aI97
aI56
aI12
aI74
aI14
aI66
aI83
aI25
aI33
aI99
aI57
aI135
aI33
aI79
aI92
aI15
aI49
aI14
aI109
aI9
aI82
aI139
aI176
aI260
aI24
aI41
aI167
aI71
aI248
aI238
aI129
aI10
aI4
aI79
aI13
aI141
aI62
aI21
aI77
aI1
aI15
aI52
aI161
aI124
aI88
aI137
aI106
aI169
aI270
aI261
aI129
aI132
aI175
aI32
aI26
aI62
aI76
aI201
aI111
aI4
aI4
aI33
aI1
aI43
aI26
aI4
aI53
aI12
aI19
aI59
aI23
aI14
aI98
aI50
aI59
aI38
aI182
aI299
aI164
aI233
aI167
aI47
aI108
asS'SeekBehavior'
p26
(lp27
I54
aI131
aI163
aI25
aI135
aI102
aI92
aI80
aI41
aI192
aI210
aI168
aI64
aI80
aI73
aI140
aI160
aI263
aI248
aI188
aI86
aI116
aI142
aI114
aI100
aI12
aI123
aI153
aI233
aI83
aI202
aI292
aI172
aI94
aI72
aI84
aI100
aI95
aI287
aI165
aI76
aI121
aI117
aI236
aI162
aI133
aI82
aI82
aI107
aI168
aI86
aI189
aI69
aI115
aI90
aI50
aI266
aI27
aI335
aI253
aI135
aI120
aI109
aI77
aI112
aI18
aI68
aI79
aI106
aI125
aI80
aI51
aI15
aI11
aI16
aI91
aI74
aI69
aI21
aI132
aI16
aI211
aI155
aI50
aI82
aI162
aI147
aI161
aI92
aI113
aI100
aI155
aI146
aI87
aI83
aI68
aI80
aI92
aI87
aI8
aI175
assI4
(dp28
S'FleeBehavior'
p29
(lp30
I37
aI142
aI26
aI50
aI156
aI79
aI70
aI66
aI71
aI31
aI100
aI214
aI35
aI86
aI6
aI39
aI112
aI144
aI235
aI140
aI141
aI33
aI226
aI158
aI69
aI31
aI48
aI12
aI288
aI69
aI273
aI50
aI13
aI7
aI175
aI139
aI11
aI12
aI242
aI153
aI10
aI12
aI97
aI177
aI250
aI162
aI44
aI15
aI110
aI26
aI34
aI23
aI120
aI118
aI8
aI33
aI224
aI18
aI245
aI237
aI255
aI183
aI29
aI60
aI105
aI164
aI313
aI309
aI315
aI204
aI18
aI28
aI4
aI3
aI2
aI43
aI145
aI118
aI46
aI89
aI0
aI119
aI16
aI70
aI84
aI267
aI267
aI180
aI10
aI18
aI11
aI12
aI17
aI16
aI9
aI8
aI28
aI6
aI17
aI1
aI0
asS'PursueBehavior'
p31
(lp32
I83
aI164
aI88
aI20
aI59
aI152
aI16
aI21
aI42
aI44
aI56
aI32
aI66
aI174
aI119
aI140
aI150
aI71
aI64
aI156
aI199
aI262
aI64
aI81
aI11
aI6
aI117
aI329
aI12
aI17
aI8
aI286
aI281
aI207
aI34
aI86
aI200
aI141
aI72
aI41
aI171
aI145
aI6
aI8
aI18
aI30
aI233
aI245
aI109
aI78
aI3
aI11
aI15
aI177
aI163
aI37
aI133
aI2
aI103
aI54
aI57
aI153
aI273
aI218
aI181
aI7
aI13
aI15
aI20
aI21
aI109
aI173
aI49
aI58
aI39
aI146
aI13
aI6
aI4
aI47
aI0
aI43
aI130
aI37
aI149
aI11
aI28
aI42
aI198
aI238
aI237
aI358
aI314
aI226
aI176
aI30
aI206
aI140
aI161
aI48
aI349
asS'SeekBehavior'
p33
(lp34
I35
aI55
aI226
aI56
aI123
aI123
aI125
aI85
aI52
aI168
aI169
aI100
aI22
aI88
aI35
aI46
aI64
aI145
aI77
aI94
aI7
aI66
aI101
aI129
aI314
aI32
aI167
aI49
aI92
aI295
aI26
aI58
aI66
aI118
aI125
aI140
aI164
aI190
aI73
aI119
aI138
aI261
aI43
aI97
aI81
aI133
aI64
aI79
aI79
aI84
aI57
aI336
aI182
aI55
aI16
aI14
aI49
aI8
aI17
aI34
aI45
aI31
aI43
aI67
aI91
aI40
aI21
aI37
aI56
aI203
aI275
aI12
aI27
aI15
aI99
aI168
aI197
aI44
aI67
aI264
aI16
aI238
aI183
aI36
aI147
aI125
aI116
aI115
aI155
aI78
aI67
aI36
aI49
aI92
aI168
aI343
aI48
aI209
aI93
aI8
aI16
asss.