(dp0
S'learn_scores'
p1
(lp2
F2670.0
aF2635.0
aF2863.0
aF2619.0
aF2460.0
aF2618.0
aF1233.0
aF2461.0
aF2467.0
aF2457.0
aF2637.0
aF2849.0
aF944.0
aF2653.0
aF2573.0
aF2636.0
aF1187.0
aF622.0
aF1408.0
aF2850.0
aF2851.0
aF2661.0
aF1108.0
aF1561.0
aF2484.0
aF2467.0
aF2446.0
aF3066.0
aF-142.0
aF2642.0
aF696.0
aF2836.0
aF2442.0
aF2448.0
aF2857.0
aF2368.0
aF2569.0
aF2662.0
aF2628.0
aF2636.0
aF2702.0
aF2841.0
aF2457.0
aF2614.0
aF2824.0
aF2624.0
aF2642.0
aF2415.0
aF2671.0
aF2455.0
aF2493.0
aF2625.0
aF2672.0
aF2655.0
aF2621.0
aF2448.0
aF2626.0
aF2437.0
aF2641.0
aF41.0
aF2465.0
aF1491.0
aF2476.0
aF2661.0
aF2823.0
aF2472.0
aF2861.0
aF2457.0
aF2635.0
aF1279.0
aF2656.0
aF2853.0
aF2614.0
aF2446.0
aF-16.0
aF2436.0
aF2643.0
aF2435.0
aF3056.0
aF2409.0
aF-100.0
aF2637.0
aF1046.0
aF2485.0
aF2442.0
aF2459.0
aF2455.0
aF2656.0
aF2691.0
aF1477.0
aF2653.0
aF507.0
aF2855.0
aF2678.0
aF2446.0
aF2437.0
aF2614.0
aF2657.0
aF2447.0
aF2667.0
asS'test_scores'
p3
(lp4
F3017.0
asS'behavior_count'
p5
(dp6
I1
(dp7
S'FleeBehavior'
p8
(lp9
I175
aI189
aI171
aI193
aI143
aI36
aI229
aI168
aI164
aI197
aI46
aI73
aI138
aI113
aI80
aI124
aI113
aI36
aI9
aI104
aI116
aI209
aI228
aI45
aI19
aI77
aI208
aI110
aI18
aI44
aI49
aI120
aI95
aI175
aI29
aI15
aI25
aI51
aI99
aI253
aI234
aI217
aI162
aI209
aI97
aI244
aI168
aI211
aI157
aI28
aI15
aI54
aI33
aI133
aI238
aI225
aI58
aI276
aI208
aI27
aI223
aI182
aI257
aI37
aI226
aI156
aI111
aI260
aI138
aI84
aI174
aI213
aI254
aI264
aI68
aI258
aI323
aI253
aI186
aI219
aI25
aI173
aI144
aI207
aI180
aI182
aI226
aI221
aI194
aI186
aI206
aI113
aI190
aI143
aI15
aI15
aI161
aI217
aI228
aI221
aI147
asS'PursueBehavior'
p10
(lp11
I53
aI83
aI50
aI67
aI83
aI281
aI13
aI40
aI4
aI19
aI151
aI205
aI35
aI15
aI252
aI149
aI98
aI53
aI118
aI119
aI52
aI13
aI6
aI115
aI170
aI109
aI23
aI119
aI14
aI143
aI37
aI12
aI176
aI11
aI40
aI117
aI143
aI182
aI86
aI63
aI34
aI44
aI76
aI10
aI155
aI29
aI87
aI36
aI57
aI223
aI249
aI246
aI251
aI156
aI57
aI42
aI258
aI35
aI83
aI9
aI15
aI33
aI13
aI238
aI41
aI91
aI111
aI13
aI71
aI3
aI14
aI14
aI10
aI17
aI2
aI16
aI8
aI12
aI21
aI86
aI6
aI9
aI4
aI8
aI11
aI9
aI28
aI8
aI9
aI34
aI21
aI6
aI10
aI12
aI234
aI225
aI27
aI8
aI13
aI14
aI69
asS'SeekBehavior'
p12
(lp13
I92
aI83
aI106
aI111
aI104
aI55
aI36
aI121
aI155
aI117
aI156
aI63
aI24
aI209
aI85
aI81
aI33
aI80
aI175
aI117
aI171
aI107
aI49
aI120
aI117
aI137
aI113
aI95
aI11
aI161
aI49
aI222
aI77
aI156
aI264
aI290
aI253
aI95
aI177
aI38
aI220
aI88
aI95
aI157
aI114
aI93
aI93
aI128
aI105
aI84
aI33
aI65
aI34
aI46
aI74
aI75
aI48
aI42
aI58
aI34
aI87
aI75
aI44
aI54
aI100
aI71
aI107
aI60
aI146
aI114
aI146
aI110
aI112
aI63
aI7
aI80
aI16
aI90
aI127
aI76
aI20
aI171
aI47
aI90
aI157
aI140
aI81
aI105
aI96
aI73
aI110
aI95
aI135
aI157
aI95
aI113
aI188
aI108
aI102
aI88
aI157
assI2
(dp14
S'FleeBehavior'
p15
(lp16
I100
aI91
aI170
aI152
aI221
aI90
aI43
aI124
aI87
aI153
aI123
aI41
aI27
aI40
aI170
aI62
aI67
aI6
aI84
aI191
aI32
aI13
aI24
aI97
aI54
aI146
aI272
aI90
aI0
aI12
aI46
aI121
aI10
aI12
aI11
aI93
aI25
aI44
aI88
aI12
aI13
aI30
aI12
aI42
aI180
aI221
aI134
aI222
aI220
aI43
aI27
aI29
aI160
aI100
aI8
aI65
aI118
aI11
aI19
aI0
aI15
aI60
aI11
aI22
aI76
aI74
aI134
aI64
aI258
aI61
aI43
aI133
aI9
aI16
aI4
aI195
aI62
aI11
aI16
aI16
aI2
aI18
aI9
aI17
aI21
aI8
aI167
aI214
aI195
aI109
aI48
aI8
aI58
aI91
aI259
aI265
aI87
aI69
aI30
aI128
aI152
asS'PursueBehavior'
p17
(lp18
I115
aI112
aI107
aI143
aI69
aI161
aI27
aI38
aI100
aI37
aI121
aI120
aI149
aI241
aI37
aI191
aI63
aI8
aI12
aI28
aI178
aI235
aI18
aI67
aI41
aI62
aI39
aI97
aI28
aI273
aI74
aI193
aI112
aI60
aI105
aI29
aI121
aI129
aI132
aI140
aI129
aI164
aI196
aI92
aI118
aI65
aI46
aI43
aI39
aI221
aI63
aI10
aI6
aI12
aI159
aI52
aI30
aI218
aI240
aI39
aI258
aI66
aI50
aI8
aI10
aI15
aI44
aI233
aI17
aI54
aI248
aI138
aI128
aI200
aI17
aI24
aI136
aI190
aI173
aI212
aI43
aI246
aI145
aI232
aI231
aI226
aI117
aI51
aI71
aI104
aI265
aI138
aI134
aI113
aI12
aI18
aI174
aI188
aI261
aI53
aI94
asS'SeekBehavior'
p19
(lp20
I105
aI152
aI50
aI76
aI40
aI121
aI207
aI167
aI136
aI143
aI109
aI180
aI20
aI56
aI210
aI101
aI113
aI154
aI206
aI121
aI129
aI81
aI240
aI116
aI211
aI115
aI33
aI137
aI14
aI63
aI14
aI40
aI226
aI270
aI217
aI300
aI275
aI155
aI142
aI202
aI346
aI155
aI125
aI242
aI68
aI80
aI168
aI110
aI60
aI71
aI207
aI326
aI152
aI223
aI202
aI225
aI216
aI124
aI90
aI30
aI52
aI164
aI253
aI299
aI281
aI229
aI151
aI36
aI80
aI86
aI43
aI66
aI239
aI128
aI56
aI135
aI149
aI154
aI145
aI153
aI5
aI89
aI41
aI56
aI96
aI97
aI51
aI69
aI33
aI80
aI24
aI67
aI143
aI108
aI73
aI70
aI115
aI76
aI52
aI142
aI127
asss.