(dp0
S'learn_scores'
p1
(lp2
F372.0
aF1621.0
aF3156.0
aF2850.0
aF1601.0
aF2790.0
aF587.0
aF2653.0
aF2665.0
aF451.0
aF320.0
aF3042.0
aF3224.0
aF3036.0
aF2653.0
aF2427.0
aF2664.0
aF3261.0
aF1555.0
aF1606.0
aF2654.0
aF1414.0
aF3019.0
aF1367.0
aF2846.0
aF1125.0
aF2424.0
aF2463.0
aF2764.0
aF2837.0
aF2427.0
aF3036.0
aF2631.0
aF-213.0
aF551.0
aF2848.0
aF2415.0
aF1255.0
aF2630.0
aF3429.0
aF1002.0
aF544.0
aF2809.0
aF2647.0
aF3039.0
aF2644.0
aF337.0
aF355.0
aF2775.0
aF2674.0
asS'test_scores'
p3
(lp4
F705.0
asS'behavior_count'
p5
(dp6
I1
(dp7
S'FleeBehavior'
p8
(lp9
I17
aI41
aI60
aI58
aI15
aI41
aI3
aI4
aI12
aI31
aI5
aI55
aI65
aI49
aI9
aI22
aI119
aI42
aI21
aI34
aI11
aI75
aI56
aI43
aI38
aI18
aI93
aI8
aI34
aI78
aI7
aI42
aI129
aI0
aI24
aI147
aI111
aI34
aI15
aI30
aI32
aI6
aI27
aI148
aI80
aI116
aI3
aI5
aI31
aI24
aI4
asS'PursueBehavior'
p10
(lp11
I20
aI199
aI266
aI167
aI73
aI56
aI29
aI76
aI58
aI33
aI13
aI46
aI34
aI27
aI96
aI24
aI61
aI152
aI93
aI39
aI21
aI54
aI17
aI14
aI93
aI105
aI18
aI93
aI55
aI31
aI46
aI66
aI35
aI15
aI6
aI27
aI40
aI81
aI97
aI96
aI27
aI18
aI62
aI53
aI60
aI53
aI40
aI46
aI131
aI118
aI63
asS'SeekBehavior'
p12
(lp13
I21
aI60
aI108
aI115
aI222
aI303
aI92
aI257
aI255
aI25
aI152
aI247
aI267
aI278
aI232
aI317
aI146
aI135
aI182
aI212
aI304
aI178
aI298
aI327
aI213
aI163
aI255
aI226
aI337
aI244
aI310
aI246
aI195
aI29
aI110
aI168
aI224
aI131
aI248
aI235
aI109
aI113
aI292
aI142
aI211
aI177
aI91
aI85
aI253
aI174
aI69
assI2
(dp14
S'FleeBehavior'
p15
(lp16
I24
aI32
aI56
aI176
aI131
aI157
aI97
aI260
aI165
aI21
aI76
aI173
aI214
aI262
aI209
aI132
aI176
aI130
aI97
aI106
aI92
aI145
aI115
aI130
aI134
aI44
aI66
aI99
aI49
aI128
aI52
aI163
aI110
aI23
aI72
aI104
aI132
aI117
aI237
aI232
aI97
aI65
aI70
aI10
aI63
aI35
aI36
aI40
aI161
aI179
aI117
asS'PursueBehavior'
p17
(lp18
I19
aI47
aI78
aI57
aI37
aI28
aI5
aI12
aI12
aI14
aI37
aI34
aI10
aI70
aI109
aI151
aI15
aI65
aI64
aI52
aI59
aI61
aI97
aI102
aI81
aI55
aI79
aI21
aI128
aI95
aI230
aI52
aI24
aI7
aI2
aI15
aI48
aI21
aI28
aI77
aI31
aI39
aI225
aI147
aI122
aI117
aI72
aI70
aI113
aI10
aI0
asS'SeekBehavior'
p19
(lp20
I15
aI221
aI300
aI107
aI141
aI215
aI22
aI65
aI148
aI54
aI57
aI141
aI142
aI22
aI19
aI80
aI135
aI134
aI135
aI127
aI185
aI101
aI159
aI152
aI129
aI187
aI221
aI207
aI249
aI130
aI81
aI139
aI225
aI13
aI66
aI223
aI195
aI108
aI95
aI52
aI40
aI33
aI86
aI186
aI166
aI194
aI26
aI25
aI141
aI127
aI19
assI3
(dp21
S'FleeBehavior'
p22
(lp23
I15
aI25
aI78
aI247
aI157
aI287
aI117
aI265
aI245
aI30
aI120
aI190
aI189
aI221
aI243
aI257
aI230
aI237
aI141
aI158
aI234
aI175
aI210
aI242
aI237
aI138
aI206
aI242
aI192
aI246
aI200
aI218
aI206
aI42
aI104
aI212
aI185
aI143
aI193
aI243
aI102
aI110
aI302
aI189
aI269
aI180
aI67
aI94
aI279
aI202
aI73
asS'PursueBehavior'
p24
(lp25
I19
aI195
aI241
aI52
aI133
aI58
aI4
aI64
aI8
aI29
aI25
aI93
aI81
aI45
aI25
aI53
aI31
aI9
aI65
aI58
aI16
aI52
aI60
aI24
aI40
aI24
aI40
aI68
aI132
aI80
aI8
aI5
aI17
aI1
aI7
aI9
aI64
aI53
aI117
aI79
aI54
aI6
aI14
aI81
aI33
aI139
aI7
aI2
aI30
aI13
aI0
asS'SeekBehavior'
p26
(lp27
I24
aI80
aI115
aI41
aI19
aI55
aI3
aI8
aI72
aI30
aI25
aI65
aI96
aI88
aI69
aI53
aI65
aI83
aI90
aI69
aI86
aI80
aI101
aI118
aI67
aI124
aI120
aI17
aI102
aI27
aI155
aI131
aI136
aI0
aI29
aI121
aI126
aI49
aI50
aI39
aI12
aI20
aI65
aI73
aI49
aI27
aI60
aI39
aI106
aI101
aI63
assI4
(dp28
S'FleeBehavior'
p29
(lp30
I27
aI129
aI261
aI178
aI189
aI305
aI54
aI233
aI164
aI41
aI105
aI150
aI133
aI251
aI250
aI159
aI257
aI168
aI110
aI65
aI159
aI28
aI41
aI169
aI149
aI63
aI104
aI148
aI195
aI121
aI122
aI105
aI54
aI15
aI45
aI200
aI130
aI114
aI94
aI166
aI17
aI46
aI192
aI132
aI106
aI233
aI112
aI106
aI311
aI171
aI49
asS'PursueBehavior'
p31
(lp32
I17
aI76
aI80
aI69
aI23
aI46
aI15
aI16
aI47
aI10
aI11
aI58
aI67
aI7
aI10
aI51
aI27
aI8
aI11
aI22
aI19
aI66
aI92
aI24
aI73
aI8
aI11
aI19
aI108
aI75
aI12
aI30
aI155
aI1
aI37
aI31
aI9
aI15
aI115
aI41
aI30
aI30
aI57
aI121
aI128
aI12
aI5
aI6
aI48
aI88
aI68
asS'SeekBehavior'
p33
(lp34
I14
aI94
aI93
aI93
aI97
aI49
aI54
aI88
aI114
aI38
aI54
aI140
aI166
aI96
aI77
aI153
aI42
aI153
aI175
aI198
aI158
aI212
aI238
aI190
aI122
aI214
aI251
aI160
aI123
aI157
aI229
aI219
aI150
aI27
aI58
aI111
aI236
aI116
aI151
aI154
aI121
aI60
aI132
aI90
aI117
aI101
aI16
aI23
aI56
aI57
aI19
asss.