(dp0
S'learn_scores'
p1
(lp2
F1174.0
aF584.0
aF2467.0
aF788.0
aF2739.0
aF2830.0
aF2656.0
aF2860.0
aF1732.0
aF2467.0
aF-161.0
aF2660.0
aF3046.0
aF2640.0
aF2421.0
aF689.0
aF2618.0
aF2452.0
aF2648.0
aF48.0
aF1497.0
aF2623.0
aF1047.0
aF2381.0
aF2877.0
aF1280.0
aF2642.0
aF3444.0
aF2477.0
aF2654.0
aF2440.0
aF2434.0
aF1233.0
aF2798.0
aF2659.0
aF2639.0
aF303.0
aF574.0
aF2801.0
aF2861.0
aF2630.0
aF3001.0
aF2431.0
aF2629.0
aF2807.0
aF795.0
aF2843.0
aF2438.0
aF2847.0
aF2466.0
asS'test_scores'
p3
(lp4
F2835.0
asS'behavior_count'
p5
(dp6
I1
(dp7
S'FleeBehavior'
p8
(lp9
I208
aI86
aI58
aI133
aI149
aI100
aI89
aI88
aI97
aI63
aI12
aI90
aI136
aI114
aI164
aI57
aI156
aI59
aI99
aI3
aI176
aI156
aI74
aI112
aI142
aI114
aI162
aI104
aI160
aI145
aI140
aI126
aI53
aI144
aI143
aI76
aI7
aI72
aI151
aI84
aI123
aI82
aI199
aI114
aI147
aI51
aI132
aI52
aI80
aI43
aI252
asS'PursueBehavior'
p10
(lp11
I24
aI36
aI68
aI45
aI147
aI135
aI151
aI132
aI86
aI131
aI17
aI131
aI94
aI86
aI104
aI48
aI110
aI151
aI134
aI31
aI53
aI78
aI56
aI170
aI72
aI43
aI98
aI75
aI49
aI78
aI61
aI111
aI86
aI64
aI44
aI103
aI2
aI4
aI69
aI91
aI100
aI92
aI63
aI103
aI91
aI60
aI64
aI77
aI65
aI66
aI15
asS'SeekBehavior'
p12
(lp13
I44
aI35
aI197
aI35
aI155
aI125
aI94
aI110
aI146
aI129
aI13
aI109
aI114
aI150
aI101
aI36
aI106
aI128
aI109
aI39
aI55
aI133
aI114
aI127
aI99
aI114
aI88
aI167
aI104
aI113
aI149
aI119
aI139
aI184
aI144
aI172
aI68
aI61
aI169
aI154
aI137
aI215
aI97
aI144
aI145
aI105
aI151
aI223
aI198
aI215
aI88
assI2
(dp14
S'FleeBehavior'
p15
(lp16
I187
aI68
aI123
aI63
aI158
aI119
aI108
aI99
aI156
aI171
aI13
aI99
aI157
aI100
aI118
aI68
aI123
aI117
aI134
aI50
aI107
aI91
aI39
aI112
aI138
aI77
aI159
aI111
aI168
aI125
aI206
aI168
aI122
aI131
aI201
aI216
aI35
aI41
aI155
aI139
aI116
aI123
aI147
aI124
aI164
aI85
aI89
aI168
aI162
aI196
aI322
asS'PursueBehavior'
p17
(lp18
I68
aI24
aI84
aI77
aI155
aI123
aI81
aI95
aI58
aI74
aI18
aI144
aI64
aI123
aI119
aI26
aI99
aI65
aI90
aI0
aI105
aI78
aI112
aI167
aI64
aI46
aI70
aI68
aI43
aI25
aI29
aI96
aI56
aI188
aI25
aI61
aI17
aI31
aI59
aI101
aI22
aI14
aI91
aI155
aI51
aI8
aI195
aI102
aI130
aI30
aI0
asS'SeekBehavior'
p19
(lp20
I21
aI65
aI116
aI72
aI138
aI118
aI145
aI136
aI114
aI78
aI10
aI87
aI123
aI127
aI132
aI47
aI150
aI156
aI118
aI23
aI72
aI198
aI92
aI130
aI111
aI148
aI119
aI167
aI102
aI186
aI115
aI92
aI99
aI73
aI105
aI74
aI25
aI65
aI175
aI89
aI222
aI252
aI121
aI82
aI168
aI123
aI63
aI82
aI51
aI98
aI33
assI3
(dp21
S'FleeBehavior'
p22
(lp23
I23
aI32
aI101
aI75
aI139
aI111
aI138
aI89
aI118
aI127
aI16
aI126
aI145
aI153
aI148
aI45
aI128
aI109
aI123
aI30
aI83
aI149
aI82
aI153
aI129
aI82
aI163
aI104
aI154
aI143
aI203
aI113
aI120
aI142
aI94
aI134
aI32
aI49
aI177
aI148
aI92
aI65
aI141
aI150
aI103
aI47
aI80
aI169
aI111
aI153
aI107
asS'PursueBehavior'
p24
(lp25
I234
aI47
aI66
aI96
aI185
aI122
aI73
aI87
aI73
aI92
aI14
aI114
aI112
aI102
aI144
aI39
aI128
aI92
aI105
aI14
aI109
aI112
aI71
aI116
aI57
aI59
aI56
aI141
aI48
aI118
aI43
aI83
aI51
aI79
aI88
aI106
aI4
aI33
aI108
aI57
aI148
aI200
aI72
aI11
aI52
aI46
aI105
aI21
aI75
aI79
aI0
asS'SeekBehavior'
p26
(lp27
I19
aI77
aI156
aI41
aI127
aI127
aI123
aI154
aI137
aI104
aI11
aI90
aI87
aI95
aI77
aI57
aI116
aI137
aI114
aI28
aI91
aI106
aI90
aI140
aI127
aI129
aI129
aI101
aI111
aI75
aI104
aI160
aI106
aI171
aI149
aI111
aI41
aI54
aI104
aI124
aI120
aI124
aI146
aI200
aI228
aI123
aI162
aI162
aI157
aI92
aI248
asss.