(dp0
S'learn_scores'
p1
(lp2
F2393.0
aF1003.0
aF3034.0
aF2618.0
aF896.0
aF1722.0
aF987.0
aF1764.0
aF2609.0
aF1468.0
aF2659.0
aF2821.0
aF2643.0
aF1028.0
aF3238.0
aF65.0
aF2850.0
aF989.0
aF1186.0
aF2839.0
aF2438.0
aF2478.0
aF3230.0
aF2644.0
aF778.0
aF255.0
aF3231.0
aF400.0
aF2643.0
aF3028.0
aF3002.0
aF2671.0
aF3020.0
aF2459.0
aF510.0
aF2987.0
aF3039.0
aF2430.0
aF320.0
aF2649.0
aF2588.0
aF3045.0
aF3188.0
aF2849.0
aF876.0
aF3012.0
aF2655.0
aF2647.0
aF956.0
aF1542.0
asS'test_scores'
p3
(lp4
F-158.0
asS'behavior_count'
p5
(dp6
I1
(dp7
S'FleeBehavior'
p8
(lp9
I83
aI47
aI64
aI92
aI3
aI93
aI32
aI107
aI52
aI6
aI130
aI16
aI149
aI6
aI67
aI3
aI39
aI77
aI10
aI146
aI13
aI64
aI66
aI77
aI8
aI29
aI16
aI6
aI9
aI95
aI24
aI121
aI73
aI13
aI8
aI17
aI17
aI10
aI7
aI23
aI19
aI104
aI41
aI99
aI7
aI45
aI6
aI13
aI37
aI29
aI0
asS'PursueBehavior'
p10
(lp11
I191
aI38
aI170
aI67
aI77
aI45
aI77
aI30
aI100
aI18
aI20
aI16
aI19
aI21
aI98
aI37
aI97
aI5
aI82
aI11
aI143
aI71
aI102
aI52
aI69
aI10
aI115
aI41
aI155
aI54
aI111
aI10
aI64
aI109
aI37
aI159
aI144
aI146
aI38
aI104
aI119
aI31
aI128
aI63
aI113
aI90
aI130
aI152
aI48
aI55
aI0
asS'SeekBehavior'
p12
(lp13
I123
aI153
aI122
aI213
aI125
aI181
aI95
aI190
aI229
aI239
aI181
aI337
aI179
aI175
aI187
aI36
aI204
aI140
aI163
aI194
aI196
aI168
aI192
aI217
aI66
aI27
aI228
aI74
aI183
aI213
aI253
aI188
aI233
aI209
aI136
aI227
aI190
aI204
aI76
aI214
aI264
aI210
aI233
aI179
aI75
aI243
aI199
aI178
aI90
aI165
aI49
assI2
(dp14
S'FleeBehavior'
p15
(lp16
I74
aI35
aI107
aI170
aI55
aI243
aI91
aI174
aI190
aI74
aI155
aI138
aI74
aI90
aI119
aI26
aI51
aI76
aI89
aI179
aI111
aI74
aI146
aI67
aI80
aI24
aI183
aI70
aI153
aI182
aI193
aI193
aI204
aI105
aI131
aI221
aI209
aI192
aI69
aI209
aI258
aI174
aI227
aI173
aI49
aI189
aI162
aI148
aI76
aI92
aI49
asS'PursueBehavior'
p17
(lp18
I180
aI66
aI155
aI103
aI79
aI51
aI46
aI134
aI166
aI58
aI30
aI112
aI78
aI73
aI99
aI44
aI105
aI135
aI119
aI29
aI229
aI113
aI158
aI269
aI53
aI19
aI156
aI47
aI165
aI135
aI177
aI92
aI133
aI83
aI43
aI135
aI100
aI153
aI45
aI112
aI124
aI132
aI94
aI160
aI140
aI144
aI164
aI178
aI87
aI146
aI0
asS'SeekBehavior'
p19
(lp20
I143
aI136
aI94
aI99
aI70
aI25
aI67
aI18
aI25
aI130
aI146
aI119
aI195
aI39
aI134
aI6
aI184
aI10
aI47
aI143
aI12
aI116
aI56
aI10
aI10
aI23
aI20
aI4
aI29
aI45
aI18
aI34
aI33
aI143
aI6
aI47
aI42
aI15
aI6
aI20
aI20
aI39
aI81
aI8
aI5
aI45
aI9
aI17
aI11
aI11
aI0
assI3
(dp21
S'FleeBehavior'
p22
(lp23
I172
aI130
aI64
aI121
aI58
aI25
aI18
aI95
aI98
aI7
aI171
aI15
aI146
aI24
aI44
aI0
aI49
aI6
aI6
aI12
aI11
aI80
aI115
aI95
aI8
aI2
aI11
aI3
aI15
aI26
aI69
aI9
aI49
aI12
aI2
aI16
aI70
aI11
aI3
aI13
aI18
aI7
aI36
aI67
aI3
aI7
aI10
aI10
aI7
aI10
aI0
asS'PursueBehavior'
p24
(lp25
I131
aI37
aI107
aI126
aI48
aI98
aI124
aI91
aI92
aI76
aI16
aI125
aI106
aI63
aI154
aI43
aI76
aI114
aI104
aI145
aI162
aI64
aI38
aI38
aI68
aI37
aI132
aI38
aI141
aI132
aI68
aI116
aI71
aI129
aI44
aI148
aI61
aI149
aI45
aI155
aI117
aI119
aI124
aI94
aI116
aI161
aI131
aI152
aI77
aI82
aI0
asS'SeekBehavior'
p26
(lp27
I94
aI70
aI185
aI125
aI98
aI196
aI61
aI140
aI191
aI179
aI144
aI229
aI95
aI115
aI154
aI32
aI215
aI101
aI145
aI194
aI179
aI159
aI207
aI213
aI67
aI27
aI216
aI80
aI191
aI204
aI251
aI194
aI250
aI190
aI134
aI239
aI220
aI200
aI72
aI173
aI267
aI219
aI242
aI180
aI75
aI210
aI194
aI181
aI90
aI156
aI48
assI4
(dp28
S'FleeBehavior'
p29
(lp30
I83
aI9
aI88
aI107
aI59
aI120
aI24
aI79
aI22
aI72
aI102
aI27
aI127
aI32
aI67
aI1
aI26
aI7
aI5
aI137
aI13
aI110
aI88
aI29
aI11
aI3
aI21
aI2
aI25
aI8
aI22
aI14
aI57
aI13
aI2
aI47
aI45
aI14
aI1
aI19
aI18
aI16
aI50
aI52
aI6
aI31
aI17
aI12
aI0
aI31
aI0
asS'PursueBehavior'
p31
(lp32
I114
aI67
aI139
aI102
aI64
aI36
aI89
aI51
aI63
aI55
aI23
aI88
aI41
aI14
aI97
aI40
aI68
aI80
aI82
aI15
aI150
aI30
aI50
aI96
aI54
aI37
aI119
aI38
aI140
aI146
aI87
aI112
aI70
aI117
aI40
aI123
aI87
aI145
aI37
aI108
aI119
aI121
aI125
aI79
aI113
aI87
aI141
aI156
aI83
aI56
aI0
asS'SeekBehavior'
p33
(lp34
I200
aI161
aI129
aI163
aI81
aI163
aI90
aI196
aI296
aI135
aI206
aI254
aI179
aI156
aI188
aI34
aI246
aI134
aI167
aI199
aI189
aI162
aI222
aI221
aI77
aI25
aI219
aI80
aI182
aI208
aI279
aI193
aI243
aI201
aI138
aI233
aI219
aI201
aI82
aI214
aI265
aI208
aI227
aI210
aI75
aI260
aI177
aI175
aI91
aI161
aI48
asss.