(dp0
S'learn_scores'
p1
(lp2
F372.0
aF1621.0
aF3156.0
aF2850.0
aF1601.0
aF2790.0
aF587.0
aF2653.0
aF2665.0
aF451.0
aF320.0
aF3042.0
aF3224.0
aF3036.0
aF2653.0
aF2427.0
aF2664.0
aF3261.0
aF1555.0
aF1606.0
aF2654.0
aF1414.0
aF3019.0
aF1367.0
aF2846.0
aF1125.0
aF2424.0
aF2463.0
aF2764.0
aF2837.0
aF2427.0
aF3036.0
aF2631.0
aF-213.0
aF551.0
aF2848.0
aF2415.0
aF1255.0
aF2630.0
aF3429.0
aF1002.0
aF544.0
aF2809.0
aF2647.0
aF3039.0
aF2644.0
aF337.0
aF355.0
aF2775.0
aF2674.0
asS'test_scores'
p3
(lp4
F705.0
asS'behavior_count'
p5
(dp6
I1
(dp7
S'FleeBehavior'
p8
(lp9
I4
aI43
aI69
aI45
aI85
aI30
aI5
aI15
aI67
aI29
aI13
aI38
aI69
aI36
aI9
aI48
aI95
aI51
aI19
aI7
aI75
aI38
aI53
aI23
aI58
aI93
aI67
aI66
aI39
aI42
aI39
aI31
aI94
aI0
aI20
aI38
aI71
aI35
aI16
aI48
aI52
aI7
aI45
aI10
aI75
aI67
aI3
aI10
aI32
aI52
aI4
asS'PursueBehavior'
p10
(lp11
I27
aI89
aI284
aI161
aI161
aI184
aI32
aI50
aI140
aI36
aI65
aI94
aI77
aI56
aI118
aI63
aI24
aI93
aI148
aI96
aI138
aI116
aI70
aI46
aI124
aI30
aI71
aI67
aI132
aI76
aI178
aI137
aI83
aI15
aI27
aI140
aI108
aI80
aI168
aI84
aI33
aI40
aI129
aI181
aI71
aI106
aI42
aI41
aI125
aI90
aI63
asS'SeekBehavior'
p12
(lp13
I27
aI168
aI81
aI134
aI64
aI186
aI87
aI272
aI118
aI24
aI92
aI216
aI220
aI262
aI210
aI252
aI207
aI185
aI129
aI182
aI123
aI153
aI248
aI315
aI162
aI163
aI228
aI194
aI255
aI235
aI146
aI186
aI182
aI29
aI93
aI164
aI196
aI131
aI176
aI229
aI83
aI90
aI207
aI152
aI205
aI173
aI89
aI85
aI258
aI174
aI69
assI2
(dp14
S'FleeBehavior'
p15
(lp16
I27
aI86
aI70
aI108
aI125
aI131
aI59
aI255
aI81
aI51
aI29
aI81
aI144
aI126
aI65
aI160
aI227
aI109
aI134
aI42
aI209
aI201
aI134
aI69
aI201
aI171
aI168
aI144
aI92
aI221
aI229
aI76
aI197
aI26
aI84
aI152
aI264
aI106
aI226
aI106
aI81
aI57
aI156
aI198
aI198
aI196
aI75
aI99
aI244
aI157
aI117
asS'PursueBehavior'
p17
(lp18
I20
aI186
aI228
aI105
aI10
aI56
aI15
aI28
aI202
aI32
aI41
aI187
aI78
aI177
aI184
aI43
aI23
aI63
aI41
aI101
aI20
aI37
aI104
aI172
aI32
aI24
aI96
aI28
aI126
aI34
aI12
aI128
aI60
aI4
aI16
aI55
aI16
aI29
aI31
aI114
aI21
aI36
aI57
aI17
aI25
aI14
aI20
aI9
aI37
aI46
aI0
asS'SeekBehavior'
p19
(lp20
I11
aI28
aI136
aI127
aI174
aI213
aI50
aI54
aI42
aI6
aI100
aI80
aI144
aI51
aI88
aI160
aI76
aI157
aI121
aI142
aI107
aI69
aI133
aI143
aI111
aI91
aI102
aI155
aI208
aI98
aI122
aI150
aI102
aI13
aI40
aI135
aI95
aI111
aI103
aI141
aI66
aI44
aI168
aI128
aI128
aI136
aI39
aI27
aI134
aI113
aI19
assI3
(dp21
S'FleeBehavior'
p22
(lp23
I34
aI216
aI224
aI209
aI171
aI286
aI88
aI238
aI180
aI29
aI108
aI188
aI174
aI214
aI200
aI258
aI170
aI166
aI155
aI157
aI220
aI179
aI227
aI240
aI236
aI139
aI212
aI255
aI217
aI260
aI200
aI216
aI227
aI42
aI92
aI188
aI189
aI152
aI196
aI240
aI106
aI110
aI284
aI199
aI215
aI183
aI62
aI93
aI275
aI197
aI73
asS'PursueBehavior'
p24
(lp25
I15
aI36
aI74
aI64
aI69
aI33
aI4
aI27
aI53
aI28
aI39
aI64
aI70
aI35
aI91
aI17
aI33
aI16
aI63
aI56
aI11
aI9
aI21
aI11
aI20
aI15
aI11
aI14
aI14
aI17
aI8
aI11
aI17
aI1
aI7
aI17
aI60
aI39
aI12
aI66
aI23
aI3
aI13
aI10
aI18
aI52
aI7
aI2
aI30
aI13
aI0
asS'SeekBehavior'
p26
(lp27
I9
aI48
aI136
aI67
aI69
aI81
aI32
aI72
aI92
aI32
aI23
aI96
aI122
aI105
aI46
aI88
aI123
aI147
aI78
aI72
aI105
aI119
aI123
aI133
aI88
aI132
aI143
aI58
aI195
aI76
aI155
aI127
aI115
aI0
aI41
aI137
aI126
aI54
aI152
aI55
aI39
aI23
aI84
aI134
aI118
aI111
aI65
aI40
aI110
aI106
aI63
assI4
(dp28
S'FleeBehavior'
p29
(lp30
I30
aI57
aI258
aI155
aI216
aI290
aI29
aI183
aI179
aI32
aI97
aI163
aI141
aI272
aI192
aI203
aI265
aI124
aI226
aI136
aI176
aI156
aI162
aI190
aI165
aI123
aI196
aI168
aI271
aI182
aI188
aI169
aI127
aI40
aI58
aI143
aI172
aI151
aI175
aI210
aI60
aI59
aI210
aI162
aI149
aI138
aI89
aI69
aI248
aI150
aI49
asS'PursueBehavior'
p31
(lp32
I21
aI160
aI64
aI88
aI37
aI40
aI14
aI38
aI66
aI25
aI6
aI52
aI120
aI39
aI93
aI24
aI42
aI112
aI52
aI38
aI132
aI115
aI77
aI105
aI116
aI102
aI114
aI83
aI80
aI75
aI138
aI104
aI139
aI1
aI37
aI132
aI152
aI35
aI137
aI51
aI48
aI37
aI77
aI116
aI126
aI126
aI37
aI41
aI86
aI89
aI68
asS'SeekBehavior'
p33
(lp34
I7
aI82
aI112
aI97
aI56
aI70
aI80
aI116
aI80
aI32
aI67
aI133
aI105
aI43
aI52
aI136
aI19
aI93
aI18
aI111
aI28
aI35
aI132
aI88
aI63
aI60
aI56
aI76
aI75
aI96
aI37
aI81
aI93
aI2
aI45
aI67
aI51
aI59
aI48
aI100
aI60
aI40
aI94
aI65
aI76
aI82
aI7
aI25
aI81
aI77
aI19
asss.