(dp0
S'learn_scores'
p1
(lp2
F2383.0
aF1195.0
aF832.0
aF130.0
aF2423.0
aF1772.0
aF2487.0
aF1008.0
aF-146.0
aF2995.0
aF1656.0
aF-205.0
aF3230.0
aF2831.0
aF2784.0
aF2610.0
aF326.0
aF2849.0
aF3181.0
aF1869.0
aF3010.0
aF3025.0
aF1389.0
aF1371.0
aF2979.0
aF3249.0
aF1768.0
aF3188.0
aF1791.0
aF2652.0
aF149.0
aF-103.0
aF2848.0
aF1398.0
aF2855.0
aF1402.0
aF2620.0
aF3034.0
aF1254.0
aF2822.0
aF2877.0
aF2611.0
aF-187.0
aF2832.0
aF2660.0
aF2430.0
aF3012.0
aF1569.0
aF3208.0
aF2202.0
aF3438.0
aF2443.0
aF2471.0
aF1569.0
aF2588.0
aF1313.0
aF2803.0
aF2972.0
aF2634.0
aF1365.0
aF2652.0
aF2843.0
aF2396.0
aF3033.0
aF2794.0
aF411.0
aF2616.0
aF-239.0
aF3239.0
aF-114.0
aF2615.0
aF2679.0
aF3209.0
aF2854.0
aF1749.0
aF2406.0
aF2434.0
aF2994.0
aF3037.0
aF2622.0
aF435.0
aF3002.0
aF2619.0
aF3021.0
aF1892.0
aF1414.0
aF2816.0
aF1001.0
aF2663.0
aF1790.0
aF54.0
aF1520.0
aF3202.0
aF2865.0
aF2797.0
aF2428.0
aF2638.0
aF412.0
aF1458.0
aF426.0
asS'test_scores'
p3
(lp4
F2798.0
asS'behavior_count'
p5
(dp6
I1
(dp7
S'FleeBehavior'
p8
(lp9
I159
aI82
aI52
aI12
aI47
aI106
aI111
aI12
aI1
aI157
aI35
aI41
aI219
aI170
aI107
aI100
aI20
aI130
aI165
aI175
aI240
aI60
aI77
aI27
aI84
aI84
aI27
aI241
aI219
aI172
aI68
aI20
aI85
aI68
aI125
aI147
aI13
aI129
aI22
aI95
aI178
aI11
aI0
aI47
aI58
aI87
aI157
aI72
aI75
aI27
aI103
aI175
aI219
aI160
aI62
aI8
aI45
aI81
aI100
aI184
aI179
aI201
aI252
aI199
aI83
aI18
aI11
aI3
aI118
aI23
aI203
aI216
aI11
aI116
aI91
aI226
aI14
aI71
aI123
aI108
aI50
aI213
aI101
aI108
aI265
aI129
aI301
aI137
aI238
aI225
aI47
aI240
aI223
aI214
aI200
aI180
aI162
aI37
aI226
aI102
aI249
asS'PursueBehavior'
p10
(lp11
I131
aI61
aI17
aI26
aI127
aI171
aI120
aI24
aI0
aI9
aI83
aI1
aI65
aI130
aI151
aI178
aI26
aI153
aI199
aI108
aI67
aI210
aI58
aI114
aI70
aI200
aI114
aI10
aI47
aI79
aI5
aI1
aI30
aI54
aI18
aI55
aI241
aI74
aI31
aI107
aI114
aI260
aI4
aI216
aI97
aI12
aI82
aI32
aI18
aI130
aI50
aI14
aI13
aI42
aI251
aI213
aI197
aI181
aI189
aI23
aI25
aI7
aI20
aI52
aI200
aI55
aI290
aI25
aI127
aI2
aI14
aI23
aI296
aI188
aI143
aI117
aI293
aI249
aI180
aI190
aI64
aI83
aI154
aI126
aI10
aI6
aI16
aI24
aI29
aI40
aI3
aI33
aI42
aI18
aI129
aI58
aI144
aI28
aI23
aI3
aI0
asS'SeekBehavior'
p12
(lp13
I117
aI103
aI89
aI73
aI193
aI82
aI63
aI126
aI46
aI229
aI206
aI4
aI76
aI59
aI148
aI102
aI39
aI58
aI45
aI49
aI73
aI95
aI147
aI99
aI257
aI57
aI142
aI151
aI84
aI87
aI19
aI32
aI227
aI101
aI192
aI57
aI116
aI153
aI74
aI166
aI21
aI108
aI34
aI95
aI175
aI261
aI139
aI117
aI289
aI161
aI199
aI158
aI87
aI110
aI89
aI67
aI145
aI156
aI67
aI89
aI134
aI139
aI122
aI106
aI113
aI66
aI73
aI2
aI106
aI30
aI158
aI72
aI74
aI32
aI68
aI41
aI49
aI76
aI50
aI70
aI22
aI92
aI116
aI135
aI64
aI151
aI57
aI49
aI60
aI126
aI27
aI18
aI123
aI93
aI64
aI124
aI46
aI84
aI14
aI10
aI143
assI2
(dp14
S'FleeBehavior'
p15
(lp16
I196
aI126
aI61
aI77
aI191
aI280
aI160
aI97
aI31
aI236
aI124
aI1
aI84
aI63
aI201
aI112
aI18
aI98
aI236
aI95
aI225
aI90
aI118
aI22
aI198
aI104
aI63
aI253
aI51
aI54
aI66
aI36
aI112
aI87
aI218
aI52
aI102
aI172
aI59
aI127
aI79
aI69
aI3
aI32
aI253
aI205
aI179
aI162
aI101
aI130
aI63
aI82
aI124
aI121
aI148
aI25
aI167
aI217
aI211
aI55
aI118
aI98
aI121
aI118
aI87
aI39
aI270
aI24
aI113
aI23
aI122
aI77
aI122
aI224
aI134
aI181
aI140
aI234
aI130
aI134
aI51
aI231
aI98
aI165
aI80
aI169
aI222
aI67
aI135
aI231
aI74
aI270
aI269
aI150
aI26
aI77
aI176
aI14
aI31
aI0
aI29
asS'PursueBehavior'
p17
(lp18
I105
aI73
aI52
aI17
aI33
aI50
aI44
aI36
aI12
aI96
aI98
aI43
aI183
aI103
aI142
aI113
aI10
aI130
aI33
aI134
aI112
aI222
aI46
aI124
aI102
aI52
aI159
aI83
aI116
aI268
aI18
aI14
aI179
aI103
aI95
aI131
aI236
aI139
aI48
aI156
aI37
aI239
aI35
aI214
aI13
aI40
aI87
aI14
aI41
aI75
aI255
aI254
aI135
aI65
aI150
aI180
aI174
aI126
aI113
aI232
aI189
aI209
aI80
aI184
aI213
aI44
aI64
aI1
aI57
aI3
aI10
aI36
aI12
aI12
aI51
aI15
aI35
aI64
aI104
aI77
aI20
aI74
aI166
aI142
aI45
aI33
aI138
aI66
aI110
aI44
aI1
aI13
aI78
aI55
aI241
aI94
aI47
aI96
aI200
aI108
aI363
asS'SeekBehavior'
p19
(lp20
I106
aI46
aI45
aI17
aI143
aI29
aI90
aI29
aI3
aI63
aI102
aI2
aI93
aI193
aI63
aI155
aI57
aI113
aI140
aI103
aI43
aI53
aI118
aI93
aI111
aI185
aI61
aI66
aI182
aI16
aI8
aI3
aI51
aI32
aI22
aI76
aI32
aI45
aI20
aI85
aI197
aI71
aI0
aI112
aI64
aI115
aI112
aI45
aI240
aI113
aI34
aI11
aI60
aI126
aI104
aI82
aI46
aI75
aI32
aI8
aI31
aI40
aI193
aI55
aI96
aI56
aI40
aI5
aI181
aI28
aI243
aI198
aI247
aI100
aI117
aI188
aI181
aI98
aI119
aI157
aI65
aI83
aI107
aI62
aI214
aI84
aI14
aI77
aI82
aI116
aI2
aI8
aI41
aI120
aI126
aI191
aI129
aI39
aI32
aI6
aI0
assI3
(dp21
S'FleeBehavior'
p22
(lp23
I124
aI116
aI53
aI27
aI147
aI165
aI86
aI50
aI2
aI193
aI133
aI35
aI162
aI158
aI269
aI222
aI48
aI129
aI251
aI152
aI58
aI213
aI146
aI36
aI160
aI174
aI123
aI189
aI165
aI162
aI53
aI44
aI197
aI100
aI206
aI145
aI112
aI124
aI17
aI201
aI57
aI120
aI36
aI94
aI164
aI96
aI141
aI116
aI198
aI148
aI134
aI125
aI141
aI125
aI142
aI128
aI92
aI39
aI31
aI42
aI82
aI36
aI100
aI172
aI138
aI76
aI177
aI27
aI89
aI11
aI93
aI69
aI69
aI22
aI50
aI53
aI120
aI157
aI29
aI81
aI79
aI126
aI49
aI35
aI94
aI55
aI53
aI38
aI31
aI38
aI4
aI37
aI140
aI53
aI39
aI36
aI71
aI27
aI44
aI22
aI155
asS'PursueBehavior'
p24
(lp25
I159
aI77
aI57
aI23
aI105
aI94
aI105
aI39
aI40
aI85
aI89
aI1
aI96
aI26
aI64
aI53
aI30
aI99
aI104
aI49
aI106
aI71
aI45
aI105
aI68
aI84
aI68
aI72
aI73
aI73
aI16
aI1
aI84
aI30
aI84
aI38
aI122
aI48
aI44
aI37
aI111
aI96
aI0
aI50
aI31
aI84
aI96
aI87
aI93
aI46
aI94
aI137
aI93
aI67
aI74
aI79
aI84
aI120
aI121
aI60
aI135
aI100
aI92
aI86
aI109
aI4
aI74
aI1
aI127
aI16
aI74
aI139
aI70
aI122
aI121
aI134
aI100
aI87
aI118
aI148
aI36
aI72
aI152
aI116
aI121
aI88
aI175
aI105
aI126
aI94
aI37
aI108
aI105
aI147
aI125
aI138
aI87
aI27
aI78
aI1
aI63
asS'SeekBehavior'
p26
(lp27
I124
aI52
aI48
aI61
aI115
aI100
aI103
aI73
aI4
aI117
aI102
aI10
aI102
aI175
aI73
aI105
aI6
aI113
aI54
aI131
aI216
aI81
aI91
aI98
aI183
aI83
aI91
aI141
aI111
aI103
aI22
aI8
aI61
aI92
aI45
aI76
aI136
aI184
aI65
aI130
aI145
aI163
aI2
aI214
aI135
aI180
aI141
aI18
aI91
aI124
aI124
aI85
aI85
aI120
aI186
aI80
aI211
aI259
aI204
aI193
aI121
aI211
aI202
aI99
aI149
aI59
aI123
aI2
aI135
aI27
aI208
aI103
aI242
aI192
aI131
aI197
aI136
aI152
aI206
aI139
aI21
aI190
aI170
aI218
aI124
aI143
aI146
aI67
aI170
aI259
aI36
aI146
aI143
aI125
aI229
aI188
aI194
aI95
aI140
aI91
aI174
assI4
(dp28
S'FleeBehavior'
p29
(lp30
I166
aI37
aI66
aI28
aI54
aI90
aI112
aI23
aI2
aI232
aI131
aI34
aI58
aI103
aI52
aI156
aI19
aI61
aI156
aI140
aI188
aI139
aI201
aI157
aI204
aI65
aI71
aI123
aI73
aI227
aI52
aI49
aI182
aI143
aI98
aI88
aI184
aI214
aI108
aI52
aI104
aI215
aI33
aI153
aI279
aI272
aI86
aI136
aI115
aI162
aI84
aI50
aI87
aI98
aI190
aI61
aI67
aI88
aI143
aI135
aI125
aI164
aI121
aI114
aI286
aI116
aI223
aI27
aI259
aI40
aI219
aI210
aI232
aI68
aI76
aI216
aI92
aI93
aI83
aI59
aI20
aI123
aI151
aI141
aI127
aI43
aI82
aI53
aI109
aI41
aI4
aI72
aI57
aI62
aI105
aI95
aI161
aI67
aI145
aI76
aI182
asS'PursueBehavior'
p31
(lp32
I159
aI103
aI47
aI70
aI226
aI57
aI35
aI34
aI42
aI51
aI91
aI0
aI84
aI118
aI232
aI80
aI15
aI91
aI179
aI110
aI145
aI133
aI54
aI19
aI111
aI175
aI65
aI120
aI189
aI27
aI37
aI2
aI27
aI21
aI119
aI106
aI85
aI60
aI15
aI120
aI78
aI53
aI0
aI40
aI12
aI75
aI230
aI74
aI184
aI106
aI225
aI93
aI33
aI52
aI177
aI19
aI233
aI320
aI164
aI43
aI36
aI165
aI186
aI50
aI101
aI18
aI57
aI2
aI51
aI12
aI145
aI47
aI110
aI158
aI115
aI70
aI28
aI74
aI32
aI107
aI19
aI140
aI51
aI48
aI57
aI65
aI61
aI42
aI172
aI342
aI70
aI139
aI104
aI126
aI78
aI91
aI11
aI12
aI13
aI1
aI5
asS'SeekBehavior'
p33
(lp34
I82
aI105
aI45
aI13
aI87
aI211
aI146
aI105
aI2
aI112
aI102
aI11
aI218
aI138
aI122
aI144
aI50
aI189
aI74
aI82
aI47
aI93
aI26
aI63
aI96
aI101
aI146
aI159
aI87
aI84
aI2
aI2
aI133
aI58
aI118
aI64
aI101
aI82
aI3
aI196
aI131
aI111
aI4
aI165
aI39
aI13
aI62
aI11
aI83
aI50
aI43
aI204
aI199
aI162
aI35
aI207
aI87
aI10
aI49
aI117
aI177
aI18
aI87
aI193
aI9
aI5
aI94
aI0
aI41
aI2
aI11
aI54
aI39
aI110
aI111
aI98
aI236
aI229
aI238
aI202
aI96
aI125
aI169
aI180
aI154
aI178
aI231
aI115
aI46
aI7
aI2
aI79
aI227
aI137
aI210
aI176
aI180
aI69
aI104
aI37
aI205
asss.