(dp0
S'learn_scores'
p1
(lp2
F2466.0
aF2625.0
aF2448.0
aF2658.0
aF2412.0
aF1722.0
aF2674.0
aF2843.0
aF2636.0
aF2624.0
aF2837.0
aF1252.0
aF1282.0
aF2422.0
aF1237.0
aF2637.0
aF2621.0
aF1416.0
aF2830.0
aF2808.0
aF2437.0
aF2407.0
aF2442.0
aF2458.0
aF2410.0
aF2422.0
aF2425.0
aF755.0
aF2638.0
aF2477.0
aF2432.0
aF2660.0
aF1234.0
aF2663.0
aF2655.0
aF2365.0
aF2457.0
aF2428.0
aF2455.0
aF1524.0
aF2451.0
aF2451.0
aF2638.0
aF2662.0
aF1575.0
aF2825.0
aF-80.0
aF2407.0
aF2469.0
aF3052.0
aF2639.0
aF2467.0
aF2859.0
aF305.0
aF2467.0
aF2861.0
aF2629.0
aF2835.0
aF2800.0
aF2831.0
aF2458.0
aF2835.0
aF2671.0
aF2879.0
aF92.0
aF2867.0
aF2645.0
aF2651.0
aF2601.0
aF2663.0
aF2426.0
aF2433.0
aF2657.0
aF1346.0
aF2455.0
aF2433.0
aF2668.0
aF2475.0
aF2441.0
aF2848.0
aF2818.0
aF1038.0
aF2463.0
aF2622.0
aF-90.0
aF2654.0
aF2669.0
aF2828.0
aF2648.0
aF2626.0
aF2456.0
aF375.0
aF2638.0
aF2388.0
aF-19.0
aF2670.0
aF2462.0
aF2441.0
aF2395.0
aF2669.0
asS'test_scores'
p3
(lp4
F2658.0
asS'behavior_count'
p5
(dp6
I1
(dp7
S'FleeBehavior'
p8
(lp9
I101
aI77
aI166
aI288
aI112
aI38
aI168
aI137
aI46
aI245
aI25
aI62
aI102
aI88
aI110
aI108
aI196
aI217
aI177
aI175
aI142
aI134
aI97
aI198
aI34
aI241
aI32
aI37
aI159
aI47
aI20
aI257
aI64
aI9
aI121
aI330
aI226
aI285
aI99
aI85
aI20
aI98
aI226
aI245
aI155
aI266
aI42
aI106
aI65
aI104
aI7
aI8
aI147
aI11
aI2
aI42
aI36
aI31
aI11
aI13
aI7
aI29
aI104
aI229
aI16
aI91
aI100
aI36
aI159
aI279
aI276
aI304
aI306
aI260
aI253
aI210
aI194
aI11
aI37
aI83
aI161
aI100
aI217
aI82
aI3
aI18
aI95
aI164
aI272
aI188
aI28
aI5
aI11
aI14
aI5
aI9
aI43
aI213
aI281
aI182
aI263
asS'PursueBehavior'
p10
(lp11
I112
aI230
aI49
aI37
aI135
aI167
aI53
aI167
aI154
aI15
aI232
aI24
aI29
aI67
aI34
aI47
aI125
aI24
aI21
aI41
aI13
aI22
aI64
aI7
aI27
aI14
aI243
aI112
aI120
aI226
aI258
aI12
aI137
aI181
aI126
aI13
aI16
aI16
aI13
aI22
aI266
aI125
aI14
aI9
aI114
aI67
aI1
aI124
aI137
aI91
aI295
aI262
aI41
aI31
aI269
aI233
aI252
aI194
aI313
aI263
aI294
aI232
aI117
aI15
aI3
aI49
aI175
aI293
aI150
aI12
aI9
aI9
aI7
aI10
aI14
aI12
aI20
aI153
aI10
aI11
aI118
aI37
aI17
aI157
aI40
aI215
aI150
aI118
aI11
aI45
aI203
aI112
aI226
aI271
aI38
aI179
aI78
aI41
aI10
aI11
aI0
asS'SeekBehavior'
p12
(lp13
I111
aI58
aI127
aI7
aI131
aI104
aI95
aI43
aI154
aI106
aI96
aI163
aI98
aI213
aI80
aI198
aI48
aI104
aI162
aI166
aI198
aI227
aI187
aI127
aI319
aI113
aI90
aI27
aI73
aI40
aI80
aI61
aI36
aI137
aI88
aI82
aI91
aI61
aI223
aI179
aI53
aI116
aI112
aI74
aI97
aI32
aI8
aI153
aI119
aI143
aI49
aI53
aI143
aI34
aI52
aI54
aI73
aI130
aI66
aI83
aI31
aI94
aI98
aI67
aI59
aI183
aI70
aI10
aI80
aI36
aI79
aI44
aI20
aI25
aI68
aI135
aI108
aI151
aI302
aI248
aI93
aI66
aI93
aI129
aI8
aI103
aI76
aI80
aI59
aI131
aI103
aI9
aI115
aI117
aI27
aI132
aI207
aI95
aI104
aI128
aI69
assI2
(dp14
S'FleeBehavior'
p15
(lp16
I82
aI139
aI135
aI33
aI77
aI200
aI139
aI102
aI141
aI141
aI177
aI123
aI180
aI296
aI129
aI284
aI88
aI13
aI95
aI77
aI18
aI49
aI149
aI68
aI167
aI241
aI38
aI50
aI101
aI21
aI32
aI133
aI154
aI254
aI32
aI109
aI149
aI198
aI14
aI42
aI43
aI32
aI31
aI67
aI39
aI100
aI4
aI108
aI215
aI54
aI172
aI207
aI109
aI39
aI18
aI41
aI37
aI109
aI122
aI11
aI14
aI77
aI179
aI54
aI5
aI126
aI12
aI233
aI320
aI137
aI63
aI51
aI65
aI4
aI7
aI43
aI84
aI43
aI306
aI217
aI102
aI53
aI16
aI66
aI30
aI16
aI205
aI294
aI67
aI61
aI41
aI27
aI131
aI163
aI14
aI225
aI107
aI10
aI22
aI83
aI149
asS'PursueBehavior'
p17
(lp18
I103
aI139
aI134
aI155
aI90
aI20
aI62
aI148
aI105
aI35
aI148
aI94
aI29
aI61
aI78
aI9
aI119
aI153
aI182
aI154
aI158
aI93
aI47
aI198
aI91
aI56
aI200
aI45
aI193
aI229
aI309
aI186
aI78
aI65
aI106
aI89
aI84
aI144
aI299
aI217
aI289
aI116
aI18
aI30
aI278
aI201
aI43
aI222
aI77
aI119
aI168
aI101
aI87
aI28
aI294
aI198
aI170
aI66
aI98
aI125
aI104
aI123
aI94
aI42
aI18
aI102
aI77
aI95
aI57
aI178
aI293
aI291
aI94
aI54
aI42
aI67
aI191
aI17
aI32
aI63
aI218
aI144
aI302
aI121
aI5
aI65
aI63
aI58
aI112
aI166
aI277
aI96
aI209
aI230
aI53
aI81
aI38
aI142
aI96
aI73
aI52
asS'SeekBehavior'
p19
(lp20
I139
aI87
aI73
aI144
aI211
aI89
aI115
aI97
aI108
aI190
aI28
aI31
aI19
aI11
aI16
aI60
aI162
aI179
aI83
aI151
aI177
aI241
aI152
aI66
aI122
aI71
aI127
aI81
aI58
aI63
aI17
aI11
aI4
aI8
aI197
aI227
aI100
aI20
aI22
aI27
aI7
aI191
aI303
aI231
aI49
aI64
aI3
aI53
aI29
aI165
aI11
aI15
aI135
aI9
aI11
aI90
aI154
aI180
aI170
aI223
aI214
aI155
aI46
aI215
aI55
aI95
aI256
aI11
aI12
aI12
aI8
aI15
aI174
aI236
aI286
aI247
aI47
aI255
aI11
aI62
aI52
aI6
aI9
aI181
aI15
aI255
aI53
aI10
aI163
aI137
aI16
aI2
aI12
aI9
aI2
aI14
aI183
aI197
aI277
aI165
aI131
asss.