(dp0
S'learn_scores'
p1
(lp2
F2846.0
aF2837.0
aF2857.0
aF2644.0
aF2412.0
aF2799.0
aF807.0
aF2844.0
aF2610.0
aF624.0
aF-78.0
aF-322.0
aF2373.0
aF1242.0
aF2607.0
aF2883.0
aF2825.0
aF3082.0
aF2843.0
aF2992.0
aF2873.0
aF2607.0
aF1517.0
aF2648.0
aF-99.0
aF761.0
aF2646.0
aF3433.0
aF750.0
aF2810.0
aF2779.0
aF3025.0
aF747.0
aF2592.0
aF2464.0
aF2860.0
aF1452.0
aF-230.0
aF1708.0
aF3270.0
aF2818.0
aF2591.0
aF2420.0
aF2658.0
aF3246.0
aF56.0
aF2676.0
aF2847.0
aF80.0
aF1437.0
aF2838.0
aF3022.0
aF2862.0
aF2459.0
aF2862.0
aF3041.0
aF1496.0
aF2865.0
aF509.0
aF2985.0
aF223.0
aF2854.0
aF1220.0
aF2638.0
aF1174.0
aF2665.0
aF2627.0
aF3392.0
aF969.0
aF2812.0
aF1222.0
aF2879.0
aF2738.0
aF3032.0
aF2851.0
aF882.0
aF3227.0
aF2428.0
aF2802.0
aF2772.0
aF2373.0
aF1019.0
aF2430.0
aF2986.0
aF-27.0
aF2840.0
aF2636.0
aF110.0
aF1555.0
aF753.0
aF2853.0
aF3576.0
aF920.0
aF3003.0
aF3069.0
aF2647.0
aF582.0
aF2805.0
aF988.0
aF2650.0
asS'test_scores'
p3
(lp4
F2597.0
asS'behavior_count'
p5
(dp6
I1
(dp7
S'FleeBehavior'
p8
(lp9
I103
aI18
aI54
aI108
aI69
aI110
aI29
aI96
aI93
aI25
aI13
aI16
aI87
aI62
aI96
aI110
aI94
aI89
aI112
aI105
aI91
aI110
aI103
aI125
aI29
aI19
aI95
aI115
aI58
aI128
aI134
aI137
aI22
aI121
aI80
aI101
aI93
aI8
aI78
aI102
aI115
aI93
aI155
aI117
aI40
aI0
aI99
aI110
aI33
aI110
aI84
aI97
aI87
aI181
aI84
aI40
aI91
aI74
aI19
aI129
aI30
aI140
aI73
aI28
aI24
aI147
aI94
aI148
aI74
aI106
aI154
aI49
aI45
aI177
aI59
aI37
aI169
aI170
aI100
aI141
aI140
aI20
aI144
aI53
aI1
aI111
aI126
aI36
aI115
aI14
aI138
aI92
aI24
aI46
aI82
aI11
aI3
aI74
aI105
aI23
aI80
asS'PursueBehavior'
p10
(lp11
I124
aI146
aI36
aI88
aI95
aI116
aI49
aI138
aI108
aI22
aI19
aI2
aI94
aI59
aI128
aI89
aI100
aI102
aI81
aI118
aI108
aI116
aI142
aI123
aI14
aI60
aI113
aI110
aI68
aI114
aI142
aI188
aI53
aI143
aI121
aI108
aI80
aI3
aI112
aI136
aI113
aI161
aI122
aI128
aI99
aI35
aI122
aI98
aI14
aI80
aI133
aI159
aI98
aI44
aI109
aI115
aI168
aI189
aI52
aI101
aI26
aI80
aI115
aI176
aI93
aI118
aI176
aI108
aI129
aI202
aI64
aI92
aI166
aI69
aI158
aI89
aI121
aI98
aI172
aI166
aI133
aI114
aI138
aI217
aI30
aI64
aI117
aI12
aI80
aI24
aI69
aI137
aI153
aI89
aI72
aI198
aI88
aI125
aI51
aI147
aI124
asS'SeekBehavior'
p12
(lp13
I117
aI189
aI243
aI150
aI214
aI165
aI76
aI112
aI179
aI50
aI17
aI15
aI236
aI77
aI159
aI108
aI171
aI117
aI154
aI175
aI118
aI157
aI99
aI94
aI7
aI71
aI136
aI132
aI25
aI138
aI135
aI40
aI48
aI134
aI125
aI121
aI116
aI20
aI93
aI82
aI144
aI145
aI93
aI87
aI205
aI30
aI93
aI135
aI24
aI113
aI135
aI112
aI143
aI106
aI135
aI194
aI46
aI62
aI1
aI175
aI22
aI116
aI73
aI148
aI59
aI60
aI93
aI142
aI39
aI70
aI81
aI170
aI241
aI112
aI122
aI83
aI73
aI94
aI116
aI111
aI144
aI68
aI78
aI134
aI37
aI175
aI111
aI23
aI131
aI100
aI130
aI185
aI4
aI252
aI167
aI134
aI88
aI186
aI67
aI170
aI189
assI2
(dp14
S'FleeBehavior'
p15
(lp16
I107
aI141
aI116
aI156
aI159
aI206
aI77
aI218
aI213
aI62
aI16
aI14
aI209
aI130
aI179
aI113
aI137
aI125
aI147
aI179
aI128
aI145
aI135
aI197
aI17
aI79
aI152
aI162
aI52
aI180
aI186
aI151
aI33
aI127
aI157
aI127
aI157
aI22
aI157
aI195
aI147
aI248
aI142
aI141
aI134
aI30
aI136
aI160
aI18
aI133
aI123
aI111
aI116
aI104
aI82
aI114
aI119
aI150
aI32
aI145
aI21
aI172
aI175
aI136
aI19
aI112
aI155
aI116
aI121
aI166
aI163
aI177
aI161
aI126
aI105
aI81
aI137
aI144
aI151
aI175
aI134
aI110
aI47
aI225
aI25
aI161
aI77
aI21
aI181
aI38
aI121
aI168
aI55
aI157
aI105
aI126
aI35
aI50
aI164
aI118
aI185
asS'PursueBehavior'
p17
(lp18
I110
aI40
aI29
aI56
aI87
aI83
aI43
aI75
aI79
aI14
aI8
aI6
aI85
aI23
aI81
aI93
aI111
aI82
aI120
aI115
aI69
aI153
aI93
aI89
aI27
aI31
aI100
aI84
aI56
aI74
aI132
aI79
aI20
aI132
aI112
aI123
aI72
aI4
aI54
aI48
aI78
aI47
aI129
aI56
aI86
aI2
aI66
aI91
aI41
aI77
aI103
aI92
aI23
aI70
aI83
aI104
aI78
aI71
aI12
aI125
aI37
aI103
aI62
aI42
aI54
aI51
aI46
aI76
aI50
aI67
aI57
aI68
aI154
aI104
aI102
aI60
aI136
aI170
aI131
aI68
aI132
aI35
aI25
aI50
aI5
aI54
aI128
aI47
aI82
aI79
aI108
aI124
aI84
aI64
aI79
aI134
aI100
aI87
aI46
aI123
aI61
asS'SeekBehavior'
p19
(lp20
I127
aI172
aI188
aI134
aI132
aI102
aI34
aI53
aI88
aI21
aI25
aI12
aI123
aI45
aI123
aI101
aI117
aI101
aI80
aI104
aI120
aI85
aI116
aI56
aI5
aI40
aI92
aI111
aI43
aI126
aI93
aI135
aI70
aI139
aI57
aI80
aI59
aI4
aI72
aI77
aI147
aI104
aI99
aI135
aI124
aI32
aI112
aI92
aI11
aI93
aI126
aI165
aI189
aI157
aI163
aI131
aI108
aI104
aI28
aI135
aI20
aI61
aI24
aI174
aI103
aI162
aI162
aI206
aI71
aI145
aI79
aI66
aI137
aI128
aI132
aI68
aI90
aI48
aI106
aI175
aI151
aI56
aI288
aI129
aI38
aI135
aI149
aI2
aI63
aI21
aI108
aI122
aI42
aI166
aI137
aI83
aI44
aI248
aI13
aI99
aI147
assI3
(dp21
S'FleeBehavior'
p22
(lp23
I105
aI18
aI68
aI139
aI89
aI77
aI26
aI129
aI106
aI41
aI0
aI3
aI145
aI58
aI106
aI75
aI109
aI110
aI87
aI112
aI73
aI114
aI96
aI110
aI39
aI47
aI136
aI142
aI67
aI159
aI104
aI87
aI11
aI111
aI94
aI112
aI84
aI12
aI43
aI43
aI140
aI79
aI122
aI94
aI117
aI2
aI30
aI72
aI25
aI25
aI62
aI104
aI66
aI35
aI119
aI98
aI72
aI76
aI19
aI140
aI25
aI135
aI74
aI45
aI63
aI67
aI65
aI68
aI57
aI70
aI36
aI40
aI75
aI107
aI72
aI6
aI104
aI51
aI62
aI29
aI86
aI30
aI76
aI98
aI2
aI66
aI106
aI17
aI59
aI22
aI124
aI113
aI31
aI40
aI67
aI82
aI54
aI55
aI20
aI28
aI51
asS'PursueBehavior'
p24
(lp25
I114
aI12
aI89
aI89
aI186
aI181
aI66
aI96
aI154
aI30
aI28
aI0
aI119
aI75
aI139
aI128
aI112
aI127
aI103
aI156
aI150
aI136
aI160
aI142
aI2
aI39
aI125
aI94
aI52
aI75
aI197
aI186
aI73
aI102
aI138
aI118
aI109
aI6
aI83
aI220
aI128
aI199
aI183
aI162
aI117
aI52
aI131
aI187
aI34
aI94
aI99
aI182
aI176
aI180
aI103
aI116
aI125
aI107
aI36
aI167
aI50
aI99
aI96
aI212
aI90
aI162
aI149
aI245
aI86
aI117
aI128
aI158
aI231
aI166
aI157
aI127
aI103
aI106
aI135
aI145
aI89
aI103
aI162
aI169
aI47
aI188
aI156
aI13
aI107
aI88
aI120
aI204
aI44
aI186
aI154
aI128
aI53
aI169
aI87
aI165
aI247
asS'SeekBehavior'
p26
(lp27
I125
aI323
aI176
aI118
aI103
aI133
aI61
aI121
aI120
aI26
aI21
aI29
aI153
aI65
aI138
aI104
aI144
aI71
aI157
aI130
aI94
aI133
aI88
aI90
aI8
aI64
aI83
aI121
aI32
aI146
aI110
aI92
aI39
aI185
aI94
aI100
aI95
aI12
aI157
aI57
aI104
aI121
aI65
aI76
aI110
aI10
aI153
aI84
aI11
aI184
aI191
aI82
aI86
aI116
aI106
aI135
aI108
aI142
aI16
aI98
aI3
aI102
aI91
aI95
aI23
aI96
aI149
aI85
aI99
aI191
aI135
aI113
aI146
aI85
aI110
aI76
aI156
aI205
aI191
aI244
aI242
aI68
aI122
aI137
aI19
aI96
aI92
aI40
aI160
aI28
aI93
aI97
aI106
aI161
aI100
aI133
aI71
aI161
aI115
aI147
aI95
assI4
(dp28
S'FleeBehavior'
p29
(lp30
I113
aI274
aI31
aI75
aI95
aI110
aI33
aI99
aI126
aI24
aI17
aI0
aI155
aI61
aI153
aI104
aI87
aI113
aI83
aI105
aI114
aI131
aI141
aI160
aI27
aI38
aI121
aI151
aI11
aI155
aI83
aI76
aI35
aI174
aI94
aI165
aI91
aI3
aI75
aI112
aI98
aI123
aI179
aI55
aI175
aI0
aI93
aI133
aI13
aI82
aI117
aI78
aI134
aI92
aI144
aI136
aI79
aI134
aI10
aI128
aI13
aI123
aI28
aI58
aI44
aI143
aI115
aI123
aI98
aI115
aI124
aI92
aI196
aI134
aI131
aI122
aI79
aI122
aI151
aI132
aI206
aI113
aI63
aI104
aI22
aI128
aI102
aI37
aI57
aI69
aI76
aI150
aI7
aI198
aI126
aI202
aI63
aI106
aI70
aI205
aI78
asS'PursueBehavior'
p31
(lp32
I112
aI57
aI250
aI206
aI189
aI143
aI64
aI183
aI157
aI56
aI16
aI13
aI134
aI79
aI124
aI104
aI173
aI125
aI126
aI145
aI110
aI139
aI125
aI99
aI5
aI54
aI159
aI144
aI80
aI116
aI235
aI134
aI50
aI147
aI165
aI89
aI105
aI21
aI90
aI122
aI221
aI201
aI113
aI192
aI127
aI40
aI185
aI148
aI16
aI137
aI164
aI143
aI95
aI149
aI124
aI106
aI116
aI146
aI31
aI219
aI50
aI159
aI180
aI185
aI93
aI158
aI187
aI172
aI110
aI210
aI108
aI160
aI123
aI166
aI148
aI31
aI245
aI219
aI185
aI132
aI168
aI57
aI196
aI240
aI2
aI119
aI246
aI18
aI225
aI50
aI179
aI174
aI99
aI89
aI74
aI101
aI106
aI183
aI144
aI81
aI303
asS'SeekBehavior'
p33
(lp34
I119
aI22
aI52
aI65
aI94
aI138
aI56
aI64
aI97
aI17
aI15
aI19
aI128
aI58
aI106
aI99
aI105
aI70
aI138
aI148
aI93
aI113
aI77
aI83
aI17
aI57
aI64
aI62
aI60
aI109
aI93
aI155
aI38
aI77
aI67
aI76
aI92
aI6
aI118
aI86
aI53
aI75
aI78
aI85
aI42
aI24
aI36
aI62
aI41
aI84
aI71
aI147
aI99
aI90
aI60
aI107
aI110
aI45
aI30
aI58
aI14
aI54
aI53
aI109
aI39
aI24
aI61
aI103
aI34
aI53
aI66
aI59
aI133
aI58
aI60
aI55
aI39
aI21
aI52
aI154
aI43
aI31
aI101
aI60
aI44
aI103
aI6
aI15
aI43
aI19
aI82
aI90
aI74
aI100
aI121
aI40
aI9
aI96
aI8
aI54
aI12
asss.