(dp0
S'learn_scores'
p1
(lp2
F-251.0
aF2670.0
aF2477.0
aF2608.0
aF2865.0
aF2683.0
aF2449.0
aF2845.0
aF2662.0
aF2686.0
aF1145.0
aF2635.0
aF1162.0
aF2615.0
aF-53.0
aF2468.0
aF2599.0
aF415.0
aF149.0
aF2636.0
aF2607.0
aF2649.0
aF2659.0
aF2635.0
aF2826.0
aF2645.0
aF1452.0
aF93.0
aF2633.0
aF692.0
aF5.0
aF2646.0
aF2825.0
aF2666.0
aF117.0
aF3043.0
aF2866.0
aF-72.0
aF2647.0
aF2670.0
aF2418.0
aF2658.0
aF2856.0
aF2440.0
aF2792.0
aF2656.0
aF2810.0
aF1729.0
aF2671.0
aF119.0
asS'test_scores'
p3
(lp4
F2661.0
asS'behavior_count'
p5
(dp6
I1
(dp7
S'FleeBehavior'
p8
(lp9
I7
aI65
aI41
aI129
aI145
aI47
aI145
aI55
aI101
aI84
aI7
aI12
aI42
aI92
aI0
aI11
aI21
aI4
aI3
aI17
aI14
aI42
aI14
aI14
aI11
aI13
aI5
aI2
aI5
aI3
aI1
aI19
aI9
aI14
aI1
aI11
aI14
aI1
aI10
aI10
aI11
aI9
aI7
aI8
aI22
aI9
aI18
aI14
aI13
aI5
aI0
asS'PursueBehavior'
p10
(lp11
I22
aI109
aI193
aI128
aI135
aI177
aI111
aI200
aI107
aI22
aI137
aI237
aI90
aI188
aI51
aI167
aI311
aI109
aI86
aI211
aI326
aI196
aI169
aI285
aI247
aI294
aI187
aI38
aI256
aI123
aI64
aI181
aI340
aI207
aI41
aI259
aI203
aI51
aI288
aI190
aI238
aI235
aI266
aI220
aI306
aI202
aI240
aI169
aI225
aI43
aI229
asS'SeekBehavior'
p12
(lp13
I23
aI146
aI79
aI125
aI45
aI83
aI85
aI90
aI120
aI198
aI62
aI106
aI77
aI95
aI3
aI144
aI59
aI43
aI3
aI126
aI43
aI103
aI148
aI56
aI106
aI38
aI37
aI38
aI96
aI43
aI1
aI144
aI16
aI103
aI42
aI77
aI107
aI1
aI45
aI120
aI123
aI88
aI61
aI122
aI70
aI123
aI122
aI149
aI81
aI44
aI100
assI2
(dp14
S'FleeBehavior'
p15
(lp16
I16
aI196
aI135
aI197
aI208
aI139
aI129
aI125
aI129
aI159
aI78
aI38
aI60
aI218
aI14
aI48
aI139
aI45
aI78
aI104
aI226
aI157
aI73
aI62
aI139
aI133
aI63
aI5
aI109
aI43
aI8
aI87
aI98
aI67
aI3
aI13
aI47
aI5
aI58
aI44
aI72
aI61
aI77
aI37
aI21
aI37
aI55
aI12
aI6
aI1
aI0
asS'PursueBehavior'
p17
(lp18
I21
aI70
aI49
aI87
aI72
aI71
aI92
aI123
aI47
aI57
aI45
aI72
aI77
aI126
aI2
aI143
aI81
aI45
aI4
aI138
aI80
aI100
aI143
aI89
aI77
aI99
aI88
aI43
aI119
aI46
aI3
aI153
aI114
aI117
aI35
aI121
aI146
aI3
aI126
aI119
aI124
aI147
aI134
aI124
aI112
aI122
aI157
aI143
aI125
aI43
aI107
asS'SeekBehavior'
p19
(lp20
I15
aI54
aI129
aI98
aI45
aI97
aI120
aI97
aI152
aI88
aI83
aI245
aI72
aI31
aI38
aI131
aI171
aI66
aI10
aI112
aI77
aI84
aI115
aI204
aI148
aI113
aI77
aI30
aI129
aI80
aI54
aI104
aI153
aI140
aI46
aI213
aI131
aI44
aI159
aI157
aI176
aI124
aI123
aI189
aI265
aI175
aI168
aI177
aI188
aI48
aI222
assI3
(dp21
S'FleeBehavior'
p22
(lp23
I30
aI93
aI97
aI173
aI148
aI91
aI198
aI86
aI97
aI187
aI89
aI169
aI79
aI86
aI9
aI54
aI67
aI72
aI17
aI240
aI132
aI157
aI144
aI99
aI124
aI17
aI112
aI30
aI174
aI66
aI2
aI192
aI26
aI166
aI37
aI120
aI155
aI3
aI241
aI146
aI214
aI32
aI122
aI199
aI346
aI90
aI218
aI69
aI86
aI40
aI100
asS'PursueBehavior'
p24
(lp25
I13
aI93
aI157
aI167
aI129
aI140
aI78
aI128
aI174
aI78
aI90
aI108
aI85
aI195
aI44
aI185
aI236
aI78
aI68
aI90
aI223
aI128
aI173
aI237
aI119
aI239
aI101
aI42
aI140
aI87
aI62
aI102
aI251
aI140
aI44
aI96
aI113
aI49
aI47
aI89
aI144
aI288
aI161
aI134
aI39
aI225
aI152
aI252
aI223
aI48
aI229
asS'SeekBehavior'
p26
(lp27
I8
aI134
aI59
aI42
aI48
aI76
aI65
aI131
aI57
aI39
aI26
aI78
aI44
aI94
aI0
aI83
aI88
aI5
aI6
aI24
aI28
aI56
aI14
aI19
aI121
aI89
aI15
aI6
aI43
aI16
aI1
aI50
aI88
aI18
aI2
aI131
aI56
aI0
aI55
aI85
aI14
aI12
aI51
aI17
aI13
aI19
aI10
aI11
aI10
aI3
aI0
asss.