(dp0
S'learn_scores'
p1
(lp2
F2393.0
aF1003.0
aF3034.0
aF2618.0
aF896.0
aF1722.0
aF987.0
aF1764.0
aF2609.0
aF1468.0
aF2659.0
aF2821.0
aF2643.0
aF1028.0
aF3238.0
aF65.0
aF2850.0
aF989.0
aF1186.0
aF2839.0
aF2438.0
aF2478.0
aF3230.0
aF2644.0
aF778.0
aF255.0
aF3231.0
aF400.0
aF2643.0
aF3028.0
aF3002.0
aF2671.0
aF3020.0
aF2459.0
aF510.0
aF2987.0
aF3039.0
aF2430.0
aF320.0
aF2649.0
aF2588.0
aF3045.0
aF3188.0
aF2849.0
aF876.0
aF3012.0
aF2655.0
aF2647.0
aF956.0
aF1542.0
asS'test_scores'
p3
(lp4
F-158.0
asS'behavior_count'
p5
(dp6
I1
(dp7
S'FleeBehavior'
p8
(lp9
I124
aI107
aI89
aI105
aI35
aI95
aI67
aI105
aI113
aI70
aI101
aI113
aI111
aI52
aI131
aI27
aI113
aI42
aI105
aI111
aI113
aI73
aI142
aI98
aI44
aI21
aI100
aI47
aI107
aI118
aI182
aI67
aI142
aI98
aI42
aI117
aI132
aI81
aI43
aI53
aI95
aI66
aI100
aI139
aI63
aI107
aI77
aI103
aI79
aI44
aI0
asS'PursueBehavior'
p10
(lp11
I136
aI102
aI140
aI112
aI72
aI118
aI35
aI143
aI123
aI95
aI120
aI127
aI86
aI99
aI88
aI13
aI104
aI26
aI70
aI118
aI144
aI75
aI64
aI127
aI39
aI6
aI139
aI12
aI52
aI94
aI83
aI106
aI81
aI80
aI40
aI100
aI81
aI122
aI13
aI121
aI86
aI78
aI94
aI77
aI26
aI95
aI37
aI33
aI30
aI110
aI0
asS'SeekBehavior'
p12
(lp13
I137
aI29
aI127
aI155
aI98
aI106
aI102
aI79
aI145
aI98
aI110
aI129
aI150
aI51
aI133
aI36
aI123
aI154
aI80
aI122
aI95
aI155
aI154
aI121
aI60
aI39
aI120
aI62
aI188
aI150
aI123
aI146
aI147
aI153
aI99
aI186
aI138
aI157
aI65
aI167
aI221
aI201
aI208
aI125
aI106
aI176
aI221
aI207
aI66
aI95
aI49
assI2
(dp14
S'FleeBehavior'
p15
(lp16
I133
aI156
aI193
aI127
aI60
aI84
aI81
aI98
aI100
aI92
aI93
aI101
aI83
aI56
aI101
aI22
aI88
aI74
aI80
aI105
aI60
aI105
aI124
aI102
aI32
aI28
aI119
aI53
aI82
aI120
aI113
aI84
aI125
aI104
aI80
aI147
aI159
aI82
aI27
aI123
aI135
aI73
aI107
aI88
aI35
aI142
aI60
aI134
aI79
aI72
aI0
asS'PursueBehavior'
p17
(lp18
I129
aI66
aI68
aI90
aI83
aI117
aI77
aI90
aI148
aI80
aI137
aI93
aI132
aI49
aI123
aI27
aI130
aI51
aI94
aI124
aI109
aI107
aI116
aI85
aI48
aI18
aI87
aI36
aI90
aI94
aI92
aI59
aI129
aI99
aI32
aI66
aI112
aI128
aI38
aI71
aI83
aI81
aI109
aI75
aI54
aI144
aI107
aI46
aI65
aI64
aI10
asS'SeekBehavior'
p19
(lp20
I135
aI15
aI95
aI155
aI61
aI118
aI46
aI138
aI133
aI90
aI101
aI175
aI132
aI97
aI128
aI27
aI122
aI96
aI81
aI122
aI183
aI91
aI120
aI159
aI63
aI20
aI153
aI32
aI175
aI148
aI183
aI176
aI116
aI128
aI68
aI190
aI80
aI150
aI55
aI147
aI184
aI191
aI186
aI178
aI105
aI92
aI168
aI163
aI30
aI113
aI39
assI3
(dp21
S'FleeBehavior'
p22
(lp23
I133
aI116
aI93
aI81
aI73
aI111
aI45
aI94
aI127
aI92
aI86
aI94
aI114
aI51
aI150
aI19
aI117
aI73
aI68
aI63
aI133
aI86
aI152
aI127
aI55
aI13
aI125
aI38
aI124
aI70
aI85
aI80
aI99
aI76
aI18
aI93
aI140
aI55
aI20
aI84
aI86
aI52
aI103
aI106
aI45
aI122
aI76
aI128
aI57
aI72
aI0
asS'PursueBehavior'
p24
(lp25
I134
aI96
aI117
aI167
aI45
aI114
aI113
aI83
aI104
aI52
aI132
aI140
aI119
aI72
aI106
aI34
aI88
aI78
aI77
aI141
aI116
aI127
aI100
aI102
aI41
aI25
aI103
aI31
aI124
aI156
aI163
aI80
aI129
aI87
aI56
aI100
aI51
aI145
aI42
aI132
aI139
aI143
aI102
aI85
aI56
aI122
aI58
aI102
aI36
aI48
aI0
asS'SeekBehavior'
p26
(lp27
I130
aI25
aI146
aI124
aI86
aI94
aI45
aI149
aI150
aI118
aI113
aI135
aI114
aI79
aI96
aI22
aI135
aI70
aI110
aI147
aI103
aI90
aI108
aI117
aI47
aI28
aI131
aI52
aI99
aI136
aI140
aI159
aI142
aI168
aI106
aI210
aI160
aI160
aI58
aI125
aI177
aI150
aI197
aI150
aI93
aI134
aI201
aI113
aI81
aI128
aI48
assI4
(dp28
S'FleeBehavior'
p29
(lp30
I128
aI39
aI100
aI58
aI59
aI76
aI12
aI102
aI142
aI91
aI101
aI124
aI142
aI94
aI135
aI17
aI114
aI67
aI82
aI115
aI124
aI104
aI101
aI99
aI42
aI39
aI130
aI42
aI109
aI104
aI114
aI99
aI138
aI140
aI60
aI179
aI139
aI118
aI40
aI125
aI150
aI144
aI171
aI155
aI83
aI173
aI143
aI130
aI46
aI103
aI48
asS'PursueBehavior'
p31
(lp32
I128
aI182
aI115
aI211
aI96
aI138
aI89
aI90
aI124
aI87
aI117
aI114
aI110
aI42
aI111
aI22
aI122
aI63
aI74
aI101
aI102
aI90
aI105
aI107
aI51
aI0
aI105
aI48
aI71
aI112
aI194
aI95
aI135
aI55
aI63
aI90
aI88
aI127
aI46
aI105
aI165
aI113
aI122
aI83
aI38
aI113
aI88
aI85
aI79
aI100
aI0
asS'SeekBehavior'
p33
(lp34
I141
aI16
aI141
aI103
aI49
aI105
aI102
aI134
aI115
aI84
aI113
aI131
aI95
aI66
aI106
aI36
aI104
aI91
aI98
aI135
aI126
aI108
aI154
aI140
aI49
aI26
aI124
aI30
aI167
aI146
aI80
aI125
aI97
aI136
aI57
aI134
aI124
aI115
aI34
aI111
aI87
aI88
aI109
aI103
aI73
aI92
aI104
aI128
aI49
aI45
aI0
asss.