(dp0
S'learn_scores'
p1
(lp2
F2846.0
aF2837.0
aF2857.0
aF2644.0
aF2412.0
aF2799.0
aF807.0
aF2844.0
aF2610.0
aF624.0
aF-78.0
aF-322.0
aF2373.0
aF1242.0
aF2607.0
aF2883.0
aF2825.0
aF3082.0
aF2843.0
aF2992.0
aF2873.0
aF2607.0
aF1517.0
aF2648.0
aF-99.0
aF761.0
aF2646.0
aF3433.0
aF750.0
aF2810.0
aF2779.0
aF3025.0
aF747.0
aF2592.0
aF2464.0
aF2860.0
aF1452.0
aF-230.0
aF1708.0
aF3270.0
aF2818.0
aF2591.0
aF2420.0
aF2658.0
aF3246.0
aF56.0
aF2676.0
aF2847.0
aF80.0
aF1437.0
aF2838.0
aF3022.0
aF2862.0
aF2459.0
aF2862.0
aF3041.0
aF1496.0
aF2865.0
aF509.0
aF2985.0
aF223.0
aF2854.0
aF1220.0
aF2638.0
aF1174.0
aF2665.0
aF2627.0
aF3392.0
aF969.0
aF2812.0
aF1222.0
aF2879.0
aF2738.0
aF3032.0
aF2851.0
aF882.0
aF3227.0
aF2428.0
aF2802.0
aF2772.0
aF2373.0
aF1019.0
aF2430.0
aF2986.0
aF-27.0
aF2840.0
aF2636.0
aF110.0
aF1555.0
aF753.0
aF2853.0
aF3576.0
aF920.0
aF3003.0
aF3069.0
aF2647.0
aF582.0
aF2805.0
aF988.0
aF2650.0
asS'test_scores'
p3
(lp4
F2597.0
asS'behavior_count'
p5
(dp6
I1
(dp7
S'FleeBehavior'
p8
(lp9
I116
aI169
aI70
aI150
aI37
aI106
aI75
aI191
aI205
aI2
aI3
aI2
aI23
aI73
aI163
aI111
aI281
aI35
aI76
aI298
aI235
aI226
aI286
aI228
aI25
aI36
aI17
aI67
aI23
aI97
aI334
aI132
aI66
aI14
aI8
aI140
aI118
aI1
aI40
aI8
aI236
aI249
aI132
aI100
aI235
aI56
aI229
aI106
aI30
aI98
aI44
aI109
aI153
aI203
aI120
aI111
aI147
aI166
aI14
aI158
aI19
aI80
aI34
aI69
aI25
aI9
aI14
aI133
aI9
aI53
aI184
aI112
aI20
aI170
aI209
aI107
aI130
aI13
aI213
aI316
aI295
aI94
aI13
aI142
aI53
aI229
aI6
aI3
aI29
aI5
aI134
aI230
aI53
aI125
aI58
aI9
aI2
aI23
aI36
aI11
aI0
asS'PursueBehavior'
p10
(lp11
I157
aI162
aI84
aI131
aI302
aI211
aI14
aI34
aI71
aI52
aI3
aI3
aI62
aI100
aI125
aI25
aI64
aI194
aI135
aI51
aI61
aI106
aI44
aI52
aI22
aI109
aI215
aI96
aI79
aI254
aI62
aI226
aI36
aI83
aI217
aI72
aI30
aI10
aI174
aI41
aI81
aI105
aI230
aI219
aI66
aI6
aI75
aI123
aI34
aI194
aI201
aI248
aI165
aI92
aI50
aI103
aI71
aI142
aI29
aI98
aI9
aI35
aI61
aI88
aI43
aI304
aI239
aI151
aI92
aI76
aI64
aI36
aI81
aI76
aI116
aI39
aI146
aI66
aI42
aI69
aI104
aI49
aI332
aI248
aI11
aI109
aI255
aI28
aI93
aI52
aI161
aI147
aI116
aI133
aI137
aI148
aI24
aI30
aI40
aI41
aI83
asS'SeekBehavior'
p12
(lp13
I71
aI22
aI179
aI65
aI39
aI74
aI65
aI121
aI104
aI43
aI43
aI28
aI332
aI25
aI95
aI171
aI20
aI79
aI136
aI49
aI21
aI51
aI14
aI62
aI3
aI5
aI112
aI194
aI49
aI29
aI15
aI7
aI21
aI301
aI101
aI118
aI141
aI20
aI69
aI271
aI55
aI45
aI8
aI13
aI43
aI3
aI10
aI114
aI7
aI11
aI107
aI11
aI10
aI36
aI158
aI135
aI87
aI17
aI29
aI149
aI50
aI221
aI166
aI195
aI108
aI12
aI110
aI114
aI141
aI249
aI51
aI163
aI351
aI112
aI14
aI63
aI87
aI283
aI133
aI33
aI18
aI59
aI15
aI14
aI4
aI12
aI93
aI40
aI204
aI81
aI42
aI37
aI12
aI129
aI126
aI186
aI153
aI332
aI147
aI288
aI310
assI2
(dp14
S'FleeBehavior'
p15
(lp16
I103
aI118
aI143
aI131
aI172
aI55
aI23
aI32
aI203
aI21
aI1
aI1
aI47
aI119
aI71
aI40
aI74
aI10
aI119
aI94
aI49
aI9
aI115
aI61
aI3
aI50
aI95
aI29
aI10
aI13
aI84
aI5
aI47
aI336
aI15
aI44
aI42
aI1
aI15
aI146
aI112
aI30
aI138
aI195
aI93
aI61
aI292
aI119
aI2
aI167
aI116
aI29
aI59
aI5
aI142
aI39
aI63
aI17
aI20
aI183
aI19
aI170
aI37
aI162
aI135
aI256
aI239
aI173
aI168
aI119
aI8
aI10
aI214
aI158
aI122
aI30
aI99
aI290
aI255
aI296
aI263
aI173
aI325
aI142
aI4
aI54
aI39
aI33
aI262
aI95
aI145
aI240
aI142
aI81
aI265
aI273
aI118
aI134
aI112
aI144
aI122
asS'PursueBehavior'
p17
(lp18
I147
aI138
aI36
aI152
aI154
aI204
aI52
aI210
aI82
aI28
aI46
aI29
aI265
aI25
aI110
aI143
aI32
aI17
aI185
aI128
aI45
aI280
aI108
aI85
aI23
aI38
aI46
aI18
aI33
aI160
aI256
aI338
aI60
aI55
aI241
aI14
aI130
aI29
aI205
aI133
aI156
aI145
aI102
aI121
aI136
aI1
aI8
aI63
aI29
aI96
aI69
aI71
aI51
aI66
aI131
aI244
aI228
aI293
aI42
aI60
aI21
aI93
aI69
aI182
aI36
aI62
aI100
aI194
aI60
aI160
aI80
aI69
aI174
aI184
aI81
aI30
aI176
aI60
aI117
aI105
aI135
aI11
aI23
aI58
aI4
aI70
aI94
aI15
aI50
aI40
aI166
aI161
aI31
aI210
aI45
aI61
aI54
aI248
aI107
aI187
aI268
asS'SeekBehavior'
p19
(lp20
I94
aI97
aI154
aI63
aI52
aI132
aI79
aI104
aI95
aI48
aI2
aI2
aI105
aI54
aI202
aI124
aI259
aI281
aI43
aI176
aI223
aI94
aI121
aI196
aI23
aI62
aI203
aI310
aI108
aI207
aI71
aI22
aI16
aI7
aI70
aI272
aI116
aI0
aI63
aI41
aI104
aI224
aI130
aI16
aI115
aI2
aI14
aI161
aI39
aI40
aI167
aI268
aI218
aI260
aI55
aI66
aI14
aI15
aI10
aI162
aI38
aI73
aI155
aI8
aI5
aI7
aI24
aI31
aI14
aI99
aI211
aI232
aI64
aI16
aI136
aI149
aI88
aI12
aI16
aI17
aI19
aI17
aI12
aI204
aI60
aI226
aI221
aI22
aI14
aI3
aI26
aI13
aI8
aI96
aI11
aI9
aI7
aI3
aI4
aI9
aI3
assI3
(dp21
S'FleeBehavior'
p22
(lp23
I156
aI160
aI151
aI77
aI93
aI171
aI57
aI118
aI124
aI33
aI0
aI1
aI44
aI47
aI10
aI100
aI15
aI145
aI85
aI40
aI42
aI244
aI15
aI13
aI1
aI45
aI114
aI164
aI99
aI185
aI174
aI83
aI4
aI19
aI7
aI120
aI25
aI1
aI6
aI14
aI240
aI249
aI52
aI118
aI104
aI1
aI8
aI11
aI8
aI60
aI22
aI247
aI176
aI205
aI126
aI25
aI103
aI225
aI47
aI92
aI20
aI130
aI7
aI13
aI11
aI22
aI100
aI145
aI150
aI216
aI271
aI58
aI113
aI30
aI145
aI42
aI70
aI11
aI12
aI14
aI15
aI31
aI14
aI98
aI15
aI17
aI60
aI39
aI92
aI46
aI54
aI132
aI76
aI140
aI76
aI244
aI39
aI142
aI8
aI16
aI0
asS'PursueBehavior'
p24
(lp25
I92
aI75
aI127
aI165
aI116
aI137
aI32
aI160
aI167
aI28
aI47
aI31
aI150
aI37
aI293
aI158
aI159
aI115
aI164
aI152
aI72
aI116
aI98
aI244
aI46
aI95
aI86
aI29
aI37
aI86
aI169
aI107
aI32
aI290
aI249
aI68
aI135
aI27
aI114
aI170
aI36
aI34
aI77
aI79
aI77
aI24
aI190
aI161
aI38
aI224
aI197
aI52
aI125
aI95
aI59
aI101
aI118
aI39
aI4
aI233
aI50
aI101
aI85
aI81
aI85
aI33
aI35
aI139
aI9
aI26
aI13
aI220
aI171
aI116
aI33
aI95
aI187
aI295
aI318
aI285
aI204
aI119
aI99
aI82
aI9
aI93
aI90
aI17
aI40
aI27
aI51
aI175
aI44
aI156
aI124
aI81
aI112
aI230
aI170
aI289
aI386
asS'SeekBehavior'
p26
(lp27
I96
aI118
aI55
aI104
aI169
aI83
aI64
aI68
aI89
aI36
aI2
aI0
aI223
aI114
aI80
aI49
aI191
aI48
aI98
aI206
aI203
aI23
aI231
aI85
aI2
aI10
aI144
aI164
aI15
aI109
aI68
aI175
aI87
aI89
aI70
aI142
aI128
aI2
aI163
aI136
aI96
aI116
aI241
aI135
aI163
aI39
aI116
aI171
aI24
aI19
aI133
aI69
aI27
aI31
aI143
aI223
aI84
aI61
aI20
aI80
aI8
aI105
aI169
aI258
aI80
aI270
aI228
aI114
aI83
aI136
aI15
aI33
aI168
aI212
aI161
aI72
aI106
aI56
aI58
aI119
aI198
aI51
aI247
aI224
aI44
aI240
aI204
aI14
aI194
aI65
aI232
aI107
aI61
aI91
aI121
aI18
aI27
aI13
aI44
aI35
aI7
assI4
(dp28
S'FleeBehavior'
p29
(lp30
I124
aI174
aI61
aI136
aI157
aI116
aI22
aI60
aI183
aI2
aI2
aI0
aI18
aI91
aI103
aI139
aI266
aI103
aI11
aI221
aI14
aI276
aI19
aI142
aI45
aI38
aI54
aI55
aI4
aI47
aI275
aI328
aI85
aI27
aI180
aI61
aI98
aI25
aI184
aI49
aI203
aI138
aI256
aI147
aI105
aI53
aI213
aI54
aI2
aI86
aI155
aI229
aI236
aI250
aI41
aI44
aI9
aI26
aI17
aI115
aI56
aI218
aI24
aI224
aI121
aI62
aI153
aI324
aI46
aI12
aI59
aI61
aI81
aI45
aI30
aI19
aI197
aI215
aI200
aI168
aI193
aI163
aI336
aI174
aI21
aI103
aI84
aI1
aI9
aI6
aI9
aI245
aI40
aI136
aI80
aI47
aI14
aI65
aI68
aI101
aI107
asS'PursueBehavior'
p31
(lp32
I105
aI71
aI85
aI131
aI54
aI137
aI52
aI213
aI188
aI77
aI45
aI32
aI286
aI71
aI114
aI55
aI85
aI68
aI225
aI136
aI210
aI76
aI126
aI16
aI2
aI20
aI70
aI184
aI64
aI182
aI103
aI18
aI5
aI145
aI128
aI164
aI46
aI2
aI10
aI99
aI49
aI34
aI37
aI43
aI103
aI9
aI94
aI205
aI51
aI203
aI158
aI111
aI37
aI31
aI109
aI99
aI187
aI256
aI28
aI63
aI7
aI50
aI207
aI52
aI33
aI230
aI119
aI31
aI13
aI175
aI74
aI146
aI145
aI262
aI262
aI46
aI88
aI25
aI15
aI41
aI32
aI8
aI10
aI140
aI44
aI111
aI168
aI31
aI231
aI86
aI283
aI67
aI49
aI134
aI99
aI161
aI59
aI61
aI114
aI137
aI190
asS'SeekBehavior'
p33
(lp34
I115
aI108
aI187
aI79
aI167
aI138
aI79
aI73
aI9
aI18
aI1
aI0
aI113
aI36
aI166
aI113
aI14
aI137
aI111
aI41
aI93
aI31
aI198
aI184
aI2
aI91
aI220
aI118
aI83
aI151
aI33
aI19
aI33
aI226
aI18
aI105
aI144
aI3
aI89
aI172
aI120
aI227
aI77
aI142
aI136
aI2
aI7
aI84
aI17
aI14
aI39
aI28
aI55
aI50
aI178
aI206
aI109
aI43
aI26
aI227
aI14
aI68
aI30
aI76
aI22
aI33
aI91
aI43
aI183
aI191
aI165
aI104
aI226
aI51
aI47
aI143
aI78
aI122
aI173
aI209
aI192
aI30
aI14
aI90
aI3
aI136
aI102
aI38
aI85
aI46
aI45
aI102
aI91
aI117
aI142
aI135
aI105
aI259
aI40
aI102
aI96
asss.