(dp0
S'learn_scores'
p1
(lp2
F2452.0
aF904.0
aF2420.0
aF2600.0
aF2781.0
aF2441.0
aF2629.0
aF2415.0
aF2870.0
aF1061.0
aF2459.0
aF2823.0
aF2662.0
aF2470.0
aF2484.0
aF2632.0
aF3046.0
aF2838.0
aF2451.0
aF2465.0
aF2677.0
aF2653.0
aF2452.0
aF2446.0
aF2839.0
aF2821.0
aF2655.0
aF3271.0
aF2645.0
aF2654.0
aF2654.0
aF2648.0
aF3247.0
aF2460.0
aF122.0
aF2429.0
aF2633.0
aF2468.0
aF2459.0
aF2619.0
aF2654.0
aF2436.0
aF2648.0
aF2393.0
aF2424.0
aF2864.0
aF2438.0
aF122.0
aF413.0
aF2632.0
asS'test_scores'
p3
(lp4
F2471.0
asS'behavior_count'
p5
(dp6
I1
(dp7
S'FleeBehavior'
p8
(lp9
I127
aI62
aI82
aI150
aI109
aI104
aI96
aI73
aI131
aI109
aI76
aI87
aI142
aI180
aI112
aI152
aI126
aI101
aI163
aI52
aI131
aI104
aI91
aI157
aI159
aI75
aI139
aI148
aI114
aI114
aI113
aI235
aI66
aI111
aI20
aI156
aI114
aI115
aI130
aI109
aI191
aI144
aI223
aI153
aI128
aI243
aI235
aI32
aI52
aI130
aI315
asS'PursueBehavior'
p10
(lp11
I141
aI51
aI161
aI119
aI188
aI155
aI105
aI180
aI98
aI81
aI56
aI177
aI41
aI44
aI50
aI91
aI67
aI177
aI73
aI69
aI55
aI179
aI153
aI58
aI158
aI162
aI139
aI135
aI132
aI70
aI114
aI96
aI149
aI103
aI26
aI62
aI226
aI52
aI189
aI202
aI27
aI199
aI37
aI22
aI229
aI67
aI89
aI41
aI26
aI115
aI4
asS'SeekBehavior'
p12
(lp13
I70
aI44
aI127
aI121
aI112
aI90
aI160
aI122
aI91
aI50
aI199
aI103
aI145
aI96
aI144
aI115
aI151
aI74
aI103
aI204
aI127
aI54
aI94
aI129
aI34
aI132
aI57
aI36
aI99
aI152
aI109
aI11
aI128
aI116
aI63
aI143
aI17
aI155
aI12
aI60
aI118
aI11
aI82
aI222
aI9
aI16
aI28
aI6
aI29
aI113
aI0
assI2
(dp14
S'FleeBehavior'
p15
(lp16
I134
aI16
aI91
aI92
aI162
aI134
aI126
aI141
aI175
aI74
aI103
aI121
aI126
aI78
aI48
aI67
aI195
aI186
aI76
aI82
aI46
aI78
aI48
aI64
aI53
aI29
aI43
aI129
aI62
aI112
aI51
aI114
aI176
aI131
aI26
aI115
aI283
aI34
aI183
aI162
aI114
aI64
aI107
aI52
aI157
aI128
aI153
aI32
aI54
aI125
aI319
asS'PursueBehavior'
p17
(lp18
I183
aI72
aI147
aI163
aI159
aI134
aI166
aI154
aI92
aI88
aI127
aI115
aI82
aI106
aI146
aI94
aI88
aI29
aI119
aI196
aI128
aI155
aI252
aI235
aI64
aI116
aI188
aI100
aI207
aI163
aI100
aI93
aI93
aI176
aI82
aI148
aI61
aI143
aI138
aI191
aI50
aI270
aI185
aI278
aI60
aI174
aI44
aI42
aI51
aI212
aI0
asS'SeekBehavior'
p19
(lp20
I21
aI68
aI132
aI135
aI88
aI81
aI69
aI80
aI53
aI77
aI101
aI131
aI120
aI136
aI112
aI197
aI61
aI137
aI144
aI47
aI139
aI104
aI38
aI45
aI234
aI224
aI104
aI90
aI76
aI61
aI185
aI135
aI74
aI23
aI1
aI98
aI13
aI145
aI10
aI18
aI172
aI20
aI50
aI67
aI149
aI24
aI155
aI4
aI2
aI21
aI0
asss.