(dp0
S'learn_scores'
p1
(lp2
F2636.0
aF2636.0
aF2660.0
aF403.0
aF2659.0
aF784.0
aF2659.0
aF2653.0
aF2477.0
aF1176.0
aF2436.0
aF2456.0
aF2676.0
aF2461.0
aF2840.0
aF2667.0
aF2869.0
aF2458.0
aF2453.0
aF2649.0
aF2666.0
aF1283.0
aF2683.0
aF2675.0
aF2484.0
aF3068.0
aF2839.0
aF1260.0
aF2662.0
aF2442.0
aF1116.0
aF2660.0
aF2873.0
aF2659.0
aF2865.0
aF2650.0
aF2424.0
aF2442.0
aF2653.0
aF2600.0
aF2431.0
aF1329.0
aF2469.0
aF-321.0
aF2656.0
aF49.0
aF2439.0
aF2655.0
aF2626.0
aF2470.0
aF2853.0
aF2461.0
aF2461.0
aF2641.0
aF2418.0
aF2611.0
aF2463.0
aF2835.0
aF2648.0
aF2842.0
aF2476.0
aF2663.0
aF2663.0
aF2445.0
aF2600.0
aF2622.0
aF2633.0
aF2666.0
aF2427.0
aF2439.0
aF2667.0
aF2447.0
aF2648.0
aF1302.0
aF2826.0
aF2653.0
aF2453.0
aF97.0
aF2450.0
aF2635.0
aF2843.0
aF1601.0
aF2604.0
aF2654.0
aF2652.0
aF2641.0
aF2436.0
aF-257.0
aF2651.0
aF2863.0
aF2639.0
aF2673.0
aF2455.0
aF2634.0
aF577.0
aF2632.0
aF2641.0
aF2440.0
aF2821.0
aF2830.0
asS'test_scores'
p3
(lp4
F2666.0
asS'behavior_count'
p5
(dp6
I1
(dp7
S'FleeBehavior'
p8
(lp9
I154
aI108
aI94
aI38
aI131
aI83
aI83
aI12
aI50
aI103
aI200
aI176
aI56
aI17
aI204
aI177
aI13
aI11
aI196
aI264
aI176
aI137
aI69
aI176
aI34
aI113
aI70
aI10
aI25
aI12
aI6
aI49
aI95
aI250
aI66
aI26
aI213
aI292
aI319
aI362
aI311
aI245
aI278
aI0
aI55
aI52
aI96
aI68
aI212
aI102
aI157
aI21
aI10
aI78
aI189
aI275
aI267
aI311
aI248
aI49
aI10
aI15
aI111
aI74
aI264
aI272
aI313
aI280
aI322
aI278
aI264
aI265
aI18
aI50
aI6
aI23
aI13
aI2
aI15
aI7
aI18
aI9
aI17
aI72
aI16
aI13
aI7
aI1
aI280
aI232
aI292
aI282
aI287
aI313
aI113
aI247
aI179
aI9
aI9
aI268
aI116
asS'PursueBehavior'
p10
(lp11
I67
aI156
aI167
aI59
aI155
aI17
aI101
aI91
aI183
aI46
aI122
aI108
aI234
aI228
aI53
aI87
aI48
aI68
aI91
aI38
aI24
aI197
aI230
aI74
aI53
aI62
aI33
aI62
aI275
aI324
aI223
aI256
aI77
aI40
aI58
aI86
aI144
aI46
aI10
aI15
aI43
aI22
aI33
aI12
aI57
aI17
aI245
aI254
aI143
aI203
aI97
aI70
aI64
aI79
aI29
aI58
aI53
aI37
aI65
aI83
aI25
aI18
aI36
aI21
aI47
aI63
aI36
aI31
aI31
aI48
aI39
aI29
aI29
aI24
aI27
aI9
aI13
aI6
aI25
aI23
aI60
aI25
aI59
aI60
aI72
aI23
aI25
aI8
aI27
aI46
aI43
aI24
aI32
aI23
aI24
aI96
aI104
aI143
aI165
aI80
aI180
asS'SeekBehavior'
p12
(lp13
I133
aI90
aI69
aI21
aI45
aI46
aI147
aI234
aI80
aI66
aI32
aI50
aI24
aI84
aI93
aI59
aI260
aI253
aI50
aI39
aI124
aI14
aI8
aI65
aI219
aI147
aI248
aI199
aI28
aI12
aI6
aI25
aI145
aI41
aI201
aI228
aI9
aI10
aI8
aI13
aI5
aI25
aI10
aI20
aI222
aI3
aI10
aI13
aI9
aI15
aI83
aI238
aI255
aI192
aI154
aI46
aI7
aI7
aI29
aI216
aI279
aI294
aI180
aI250
aI79
aI33
aI8
aI13
aI10
aI25
aI20
aI49
aI295
aI225
aI331
aI305
aI311
aI75
aI300
aI325
aI269
aI286
aI310
aI204
aI250
aI313
aI322
aI19
aI32
aI49
aI16
aI11
aI16
aI20
aI7
aI15
aI66
aI198
aI195
aI12
aI28
assI2
(dp14
S'FleeBehavior'
p15
(lp16
I188
aI106
aI89
aI1
aI52
aI27
aI52
aI21
aI201
aI16
aI24
aI139
aI103
aI134
aI52
aI13
aI54
aI11
aI56
aI98
aI36
aI230
aI287
aI183
aI47
aI45
aI62
aI9
aI13
aI44
aI20
aI56
aI84
aI170
aI105
aI15
aI21
aI12
aI89
aI298
aI335
aI139
aI67
aI3
aI53
aI1
aI16
aI144
aI33
aI46
aI141
aI44
aI50
aI182
aI238
aI166
aI67
aI48
aI21
aI161
aI278
aI272
aI156
aI248
aI24
aI44
aI150
aI13
aI40
aI55
aI8
aI12
aI10
aI20
aI187
aI83
aI75
aI7
aI34
aI89
aI180
aI253
aI357
aI317
aI232
aI80
aI50
aI26
aI287
aI195
aI209
aI105
aI227
aI148
aI57
aI58
aI181
aI126
aI102
aI124
aI115
asS'PursueBehavior'
p17
(lp18
I68
aI188
aI160
aI69
aI121
aI116
aI248
aI152
aI51
aI134
aI283
aI116
aI9
aI25
aI224
aI231
aI46
aI10
aI11
aI38
aI13
aI13
aI13
aI79
aI249
aI73
aI272
aI255
aI294
aI289
aI196
aI96
aI62
aI33
aI80
aI158
aI76
aI13
aI68
aI56
aI13
aI15
aI10
aI1
aI44
aI67
aI324
aI184
aI250
aI255
aI96
aI271
aI261
aI117
aI112
aI18
aI243
aI295
aI308
aI11
aI27
aI44
aI86
aI35
aI341
aI110
aI14
aI13
aI99
aI14
aI73
aI137
aI15
aI45
aI79
aI243
aI116
aI32
aI148
aI173
aI133
aI27
aI7
aI10
aI68
aI245
aI289
aI0
aI11
aI89
aI115
aI120
aI95
aI192
aI40
aI13
aI72
aI212
aI238
aI144
aI207
asS'SeekBehavior'
p19
(lp20
I98
aI60
aI81
aI47
aI158
aI3
aI31
aI164
aI61
aI65
aI47
aI79
aI202
aI170
aI74
aI79
aI221
aI311
aI270
aI205
aI275
aI104
aI7
aI53
aI10
aI204
aI17
aI6
aI21
aI15
aI18
aI178
aI171
aI128
aI140
aI167
aI269
aI323
aI180
aI36
aI11
aI137
aI244
aI27
aI237
aI3
aI11
aI7
aI81
aI19
aI100
aI14
aI18
aI50
aI22
aI195
aI17
aI12
aI13
aI176
aI9
aI11
aI85
aI62
aI25
aI214
aI193
aI298
aI224
aI282
aI242
aI194
aI317
aI234
aI98
aI11
aI146
aI44
aI158
aI93
aI34
aI39
aI22
aI9
aI38
aI24
aI15
aI1
aI41
aI43
aI27
aI92
aI13
aI16
aI46
aI287
aI96
aI12
aI29
aI92
aI2
asss.