(dp0
I1
(dp1
S'FleeBehavior'
p2
(lp3
F0.5312745745842642
aF0.21416468476848938
aF0.11848047712545251
aF-45.14518991227019
aF-41.291030350187576
aF42.550561012236614
aF-37.681377251447806
aF-6.333036282000347
aF-45.656294617967326
aF0.6425709100617772
asS'PursueBehavior'
p4
(lp5
F0.19041398661125508
aF0.16794253315153973
aF0.8125440069068262
aF-41.620723551082754
aF-31.496428630403383
aF-6.553327637401895
aF-28.32963846184431
aF-4.256634990749229
aF-3.217489422773369
aF0.296967218922655
asS'SeekBehavior'
p6
(lp7
F0.3380162992917425
aF0.8073964677543498
aF0.6635735655581013
aF-48.21862242154541
aF32.87429035801321
aF0.8771422249386519
aF-29.416259517109996
aF-5.982553510094101
aF-15.138378594571648
aF0.02780688712188606
assI2
(dp8
S'FleeBehavior'
p9
(lp10
F0.3556421428717105
aF0.8470509960629854
aF0.258838074774719
aF-43.45147691223571
aF-75.10267089955018
aF-26.54060606003354
aF-12.27730617534829
aF8.093860747126765
aF-13.879771286272906
aF0.5439264103424531
asS'PursueBehavior'
p11
(lp12
F0.21101096849325174
aF0.04213582869830823
aF0.6665743050014669
aF-29.449393962335122
aF-83.61550369717877
aF25.08790949468942
aF-30.0632805913602
aF-1.3849518115870547
aF-33.48489185803773
aF0.8221340448713284
asS'SeekBehavior'
p13
(lp14
F0.4416046023581087
aF0.42906321236780864
aF0.2842623413627724
aF-44.60382530649479
aF-49.228871383543655
aF-32.278046621852795
aF-19.33175067808313
aF-6.920274382386587
aF10.91210362914965
aF0.025660464058268606
assI3
(dp15
S'FleeBehavior'
p16
(lp17
F0.3904912178805674
aF0.20466323797812602
aF0.36092402673246105
aF-42.262350455422826
aF-35.614576544845384
aF15.25926303044465
aF-24.450836729840802
aF-4.571937742449295
aF-27.81058645738694
aF0.5775867028764369
asS'PursueBehavior'
p18
(lp19
F0.2691968766753743
aF0.8001243652860368
aF0.769269707889768
aF-36.55218053269071
aF-61.183662691341986
aF11.53291891379847
aF-9.324546678426918
aF-39.878244297039835
aF-7.450205294887229
aF0.48915439338633726
asS'SeekBehavior'
p20
(lp21
F0.1725530902403889
aF0.33200360367096216
aF0.059701811952728834
aF-43.18541089619431
aF28.113133962882017
aF-14.139855140972315
aF12.069201927282688
aF-21.570527882178812
aF-30.771534800948295
aF0.9613601568024955
assI4
(dp22
S'FleeBehavior'
p23
(lp24
F0.7616213125951925
aF0.5232027804596864
aF0.20427430393265078
aF-44.86883903332412
aF-43.48856274030185
aF-15.197711874136534
aF6.371148889699531
aF-33.23458951695688
aF-6.3317227749143665
aF0.2684100393573974
asS'PursueBehavior'
p25
(lp26
F0.18252672202589693
aF0.10160071253964575
aF0.05033657060942509
aF-37.40313615986095
aF-27.798632734730674
aF-23.35663492603693
aF-10.880406296585008
aF0.9554681520371726
aF0.7975106755647214
aF0.45238392406987327
asS'SeekBehavior'
p27
(lp28
F0.29670096144422164
aF0.39287553804593867
aF0.20967237006028416
aF-47.30955365918852
aF-5.934683275731205
aF-3.072260898267267
aF-7.6441625410709415
aF-51.11669792460296
aF5.9718636719401355
aF0.34082414147626106
ass.