(dp0
I1
(dp1
S'FleeBehavior'
p2
(lp3
F0.156248668478694
aF0.029724320498623946
aF0.21208713111330701
aF220.07386055457206
aF0.9487309844659869
aF0.04874977398651692
aF11.512239603192764
aF11.80020838636619
aF0.8436341990984249
asS'PursueBehavior'
p4
(lp5
F0.8954387524175605
aF0.09995471116804433
aF0.03132073811067482
aF3.0918740032760503
aF0.6205358362618539
aF0.5374716507111792
aF23.135963692595315
aF23.03979062931572
aF0.8605378132305315
asS'SeekBehavior'
p6
(lp7
F0.8390058536280264
aF0.29956252084305357
aF0.7912774529056573
aF10.438501046052489
aF0.003398761944829354
aF0.32005210168593756
aF47.619680421105734
aF47.7769644064878
aF0.49504790952197464
assI2
(dp8
S'FleeBehavior'
p9
(lp10
F0.5636129426800917
aF0.6959970989338993
aF0.46642131395385356
aF32.60030129082077
aF0.2174863931582668
aF0.03127285617470221
aF51.23364061090333
aF50.875701731599825
aF0.16504515633990458
asS'PursueBehavior'
p11
(lp12
F0.3252830705894789
aF0.8460749215292239
aF0.5655659369342709
aF241.34929017936136
aF0.5143590593614831
aF0.23136657630469204
aF0.8365305376432073
aF0.9436582140099661
aF0.20723973718102062
asS'SeekBehavior'
p13
(lp14
F0.9773630762374769
aF0.515682041865919
aF0.30186433256415746
aF6.214300213118809
aF0.8278745278169161
aF0.4445140969086775
aF15.066870752221172
aF15.669909286409519
aF0.9295335717834614
ass.