(dp0
I1
(dp1
S'FleeBehavior'
p2
(lp3
F0.6180501978676021
aF0.6405496390554618
aF0.4666037928134753
aF-342.2682844274392
aF199.83245338643957
aF-103.05273644995725
aF-180.18964359645864
aF-22.693481364064887
aF0.3074810790185789
asS'PursueBehavior'
p4
(lp5
F0.6560551041117856
aF0.08456413873432944
aF0.7489341126449671
aF-143.3204990398276
aF-1.2746171552739065
aF47.12839509288477
aF-53.40661861036878
aF-48.672238318748214
aF0.2740511026147453
asS'SeekBehavior'
p6
(lp7
F0.4260506047728895
aF0.8045187858373827
aF0.05394045328551611
aF-144.34355446194812
aF-34.365149090726774
aF4.449902273011909
aF-30.681220163821358
aF2.447302707111576
aF0.9581891615153197
assI2
(dp8
S'FleeBehavior'
p9
(lp10
F0.37454057354248094
aF0.7689628014710467
aF0.9453124753839256
aF-45.318525433608826
aF-41.46956474001244
aF-80.37862668962178
aF-26.114874323105226
aF24.370615569517565
aF0.34562696766181633
asS'PursueBehavior'
p11
(lp12
F0.47189848482859975
aF0.6891578603653851
aF0.279673673218645
aF-54.71445741350368
aF35.30187619099692
aF2.551296549799556
aF-50.78849824837458
aF-57.7856311513155
aF0.9626827707598414
asS'SeekBehavior'
p13
(lp14
F0.7532450246732535
aF0.9008731141533655
aF0.21553502071004982
aF-46.16980806138595
aF-40.317155986708
aF47.20153267816587
aF-78.41009766822825
aF-21.59767415182451
aF0.2510564374774408
assI3
(dp15
S'FleeBehavior'
p16
(lp17
F0.37018460670635933
aF0.46830840770053894
aF0.8625934449319266
aF-70.6431740946039
aF-27.872153411597854
aF-21.95717498862157
aF18.1916707118646
aF-40.517307250771594
aF0.6988693045419792
asS'PursueBehavior'
p18
(lp19
F0.8129359180014862
aF0.10930801198223794
aF0.9891586704465424
aF-29.814607791188568
aF-57.21354791432737
aF20.269648856514767
aF29.25538482282748
aF-39.57134064313184
aF0.9661649964050607
asS'SeekBehavior'
p20
(lp21
F0.2273652584473106
aF0.9658409697881029
aF0.4438942971699995
aF-42.74657242520501
aF-29.50925490369022
aF-30.18000085994725
aF-57.89525446259888
aF19.40737768245262
aF0.6806047435831343
assI4
(dp22
S'FleeBehavior'
p23
(lp24
F0.5826386322226692
aF0.9316112514277829
aF0.5191883906090761
aF-41.53803137361133
aF-50.84963689987213
aF13.433753381253972
aF37.10253294850762
aF-65.26280314617418
aF0.1759352196890812
asS'PursueBehavior'
p25
(lp26
F0.1900820460999989
aF0.35702939151422186
aF0.21575068840400302
aF-53.33661334003033
aF-35.52260672148963
aF-11.516354225981999
aF14.618770196921087
aF-23.45798900523328
aF0.8031037317789083
asS'SeekBehavior'
p27
(lp28
F0.6232594196548024
aF0.580450975663979
aF0.9493307543857142
aF-55.150178504318156
aF-9.64468633377745
aF118.7774591303914
aF-116.4866853079782
aF-84.91202071506191
aF0.5924233969005542
ass.