(dp0
I1
(dp1
S'FleeBehavior'
p2
(lp3
F0.5512314023739178
aF0.15538302096169498
aF0.4647831627827327
aF1.2346132699493524
aF0.13277296625973645
aF0.943162126739119
aF0.8998916284927373
aF18.240841201840198
aF0.0946900329025041
asS'PursueBehavior'
p4
(lp5
F0.4095665065634193
aF0.6633304711162886
aF0.34630090532079016
aF-5.996463343416896
aF0.14711373873133005
aF0.6905026607243113
aF0.8384193555470525
aF22.301807536761633
aF0.5676831810075254
asS'SeekBehavior'
p6
(lp7
F0.13665651712909388
aF0.8213107228999889
aF0.9512205422261698
aF340.81669098623144
aF0.6325034511059002
aF0.5069532655682225
aF0.6445212881931178
aF27.86841335535794
aF0.863251095491234
assI2
(dp8
S'FleeBehavior'
p9
(lp10
F0.8517766972968176
aF0.962981669612177
aF0.5358306682714711
aF2.2367150598964693
aF0.48329432373099046
aF0.655736150556994
aF0.3447688408678261
aF39.69196338215822
aF0.08548730211480837
asS'PursueBehavior'
p11
(lp12
F0.878507534814104
aF0.8395790490926208
aF0.3359060685274967
aF10.425256881437404
aF0.7222415107894762
aF0.7010425006030725
aF0.07211175858934471
aF44.649373833158016
aF0.769225289882522
asS'SeekBehavior'
p13
(lp14
F0.45947956999815076
aF0.8836523819373029
aF0.4355155183496162
aF182.70347709185296
aF0.605049722774695
aF0.9689135333454644
aF0.4260531026694635
aF61.817795726546166
aF0.2711685378070572
assI3
(dp15
S'FleeBehavior'
p16
(lp17
F0.334651333785431
aF0.9781033044405179
aF0.1866909790761565
aF212.78628414810544
aF0.8142763875066388
aF0.6650489394714867
aF0.41207203093994405
aF62.803737698960276
aF0.4319845845573772
asS'PursueBehavior'
p18
(lp19
F0.48765091083712764
aF0.7424575029174587
aF0.6704294358815668
aF5.667889917437599
aF0.987621141772778
aF0.2977022777034576
aF0.9763406724621906
aF41.14445342887955
aF0.2938423728902726
asS'SeekBehavior'
p20
(lp21
F0.4810392846308549
aF0.0208805379925453
aF0.056941306493515254
aF5.754840092288205
aF0.43841544405461363
aF0.1832769068954283
aF0.11691062729648005
aF45.584054682929896
aF0.7863136361652266
ass.