(dp0
I1
(dp1
S'FleeBehavior'
p2
(lp3
F0.6414006161858726
aF0.5421892680969495
aF0.9931750662832721
aF-43.43022768123959
aF-82.41727747451266
aF-9.162470473084094
aF36.31523190355891
aF-55.592284297525
aF-33.210303106880005
aF0.35102519242304475
asS'PursueBehavior'
p4
(lp5
F0.6791818847008364
aF0.5913588799814038
aF0.6342912312269344
aF-44.42721082909036
aF-27.844659665994072
aF0.8037101091247989
aF-5.174254796615552
aF-69.9777304446195
aF27.435033421499444
aF0.5580507670784419
asS'SeekBehavior'
p6
(lp7
F0.399603131718545
aF0.5455817482443385
aF0.207714227402927
aF-31.45482943395358
aF-64.96743559062347
aF7.208618917242842
aF-21.296520905809928
aF-69.97364161574522
aF31.04574771848053
aF0.31412119286874374
assI2
(dp8
S'FleeBehavior'
p9
(lp10
F0.02214863595174099
aF0.5202194549550928
aF0.4459020342458241
aF-40.847353331970176
aF-62.328305494000176
aF5.03549383422105
aF-37.255422087636646
aF-35.03464365392713
aF20.890971990724587
aF0.2256204788553109
asS'PursueBehavior'
p11
(lp12
F0.5443954271480634
aF0.8245098703539608
aF0.4365506589887156
aF-41.563244357777954
aF-37.486199781055284
aF21.67159647313467
aF-21.461329352063387
aF-19.597156718586696
aF-43.69072501710273
aF0.9444469113879339
asS'SeekBehavior'
p13
(lp14
F0.2717540081441001
aF0.685180873334678
aF0.3461351803046414
aF-42.80752843122891
aF-57.03106520748901
aF-0.9937582854570968
aF-28.574273167050833
aF-6.658150791302803
aF-14.771959423321798
aF0.9093359807772748
assI3
(dp15
S'FleeBehavior'
p16
(lp17
F0.3914754049043724
aF0.9160708899553138
aF0.8354530640684587
aF-42.49196525851848
aF-53.35864637805258
aF-33.05724808157345
aF-11.391295710074946
aF-4.436464425989766
aF-12.65751790470187
aF0.5040733566749224
asS'PursueBehavior'
p18
(lp19
F0.12787152838950389
aF0.5909354409533951
aF0.19488762063263
aF-36.90662738198177
aF-17.33230988835266
aF-51.7337663554342
aF-9.188060852549881
aF11.459076061457115
aF-7.982934617637473
aF0.27816478753854834
asS'SeekBehavior'
p20
(lp21
F0.7382071699851676
aF0.11258244908065884
aF0.7816135306144452
aF-35.347944788488945
aF-162.48147230750294
aF-9.275721070635509
aF-30.53793680385388
aF-13.743354739541834
aF-1.283608596443273
aF0.2743336135516037
assI4
(dp22
S'FleeBehavior'
p23
(lp24
F0.6525462731106453
aF0.6647528059535367
aF0.46671407969386236
aF-48.088364003359594
aF-42.250588645150366
aF-31.406615968837464
aF-21.53058834580619
aF15.580448581278729
aF-14.488154068779222
aF0.20858740447305524
asS'PursueBehavior'
p25
(lp26
F0.5698417757840282
aF0.6914121621654642
aF0.8132370579894858
aF-47.589827408919504
aF-33.148432625043725
aF-5.322038117855611
aF-30.887684277034577
aF17.84925930980936
aF-37.94706344496376
aF0.5959638875677822
asS'SeekBehavior'
p27
(lp28
F0.5027009082597035
aF0.055925965762756547
aF0.7599378078218182
aF-38.739759220376854
aF-149.61861365153047
aF-17.87771100488312
aF17.081548845761713
aF0.7702869668130514
aF-57.74650967132527
aF0.6602069305825419
ass.