(dp0
I1
(dp1
S'FleeBehavior'
p2
(lp3
F0.6414006161858726
aF0.5421892680969495
aF0.9931750662832721
aF-40.54020864507976
aF-94.54845206520532
aF-14.04396969009455
aF-32.724900417109865
aF0.6891026531658162
asS'PursueBehavior'
p4
(lp5
F0.026211036291071466
aF0.6201559092323717
aF0.7396730770176362
aF-52.629507737326136
aF-0.7636320413552536
aF-16.59856574434223
aF-26.552344822132675
aF0.08937040928097073
asS'SeekBehavior'
p6
(lp7
F0.39711048852598374
aF0.35102519242304475
aF0.399603131718545
aF-43.505168310703844
aF-80.28026216330328
aF4.896300073390699
aF-47.594252246699945
aF0.6114014400894083
assI2
(dp8
S'FleeBehavior'
p9
(lp10
F0.31275910418830544
aF0.669038070567849
aF0.0434793148499969
aF-46.330549447627135
aF-74.78921613702543
aF-27.904321293064083
aF-15.404393847953438
aF0.5202194549550928
asS'PursueBehavior'
p11
(lp12
F0.2717540081441001
aF0.685180873334678
aF0.3461351803046414
aF-50.35385098016401
aF-41.215939239161536
aF-9.885742214107514
aF-34.711488418682116
aF0.12930873304767576
asS'SeekBehavior'
p13
(lp14
F0.4459020342458241
aF0.39797829173165955
aF0.7421654272510059
aF-49.567339847508265
aF-76.0981514812541
aF-34.9219369842742
aF-14.014572836110595
aF0.2256204788553109
ass.