(dp0
I1
(dp1
S'FleeBehavior'
p2
(lp3
F4.854798756660217
aF4.658226881769225
aF4.807673213456668
aF10.913727529358582
aF0.3754470366175803
aF0.08596009991817066
aF0.5135623846279662
aF2.634710653450839
aF0.9941255124867676
asS'PursueBehavior'
p4
(lp5
F54.421211471172896
aF54.146808446878744
aF54.46312023660205
aF39.22804950170786
aF0.47400953381606326
aF0.9732107806879344
aF0.6910050797061994
aF27.67228897454645
aF0.0049142923652889525
asS'SeekBehavior'
p6
(lp7
F4.863944407979584
aF5.142183721840165
aF4.435629124054824
aF8.23968532747834
aF0.8615478050485724
aF0.6611188091679416
aF0.2536322297504908
aF2.8983293274877635
aF0.902971851574513
assI2
(dp8
S'FleeBehavior'
p9
(lp10
F0.8346316711235839
aF1.0022340491368549
aF1.072159782854096
aF170.93906599298285
aF0.7667750842670691
aF0.00500069218008381
aF0.7684145392289891
aF0.974732845419955
aF0.7329937810762309
asS'PursueBehavior'
p11
(lp12
F52.992948747418595
aF53.451113947276085
aF53.391250436768175
aF-2.086371639103346
aF0.7506123357916753
aF0.13500353598270287
aF0.5779641773168603
aF26.886839861005022
aF0.9429238867873563
asS'SeekBehavior'
p13
(lp14
F3.399626598514768
aF2.8302341300450533
aF3.659968104014155
aF5.015413958961197
aF0.19210927592060745
aF0.9711278420631557
aF0.6396161521559375
aF1.9592989352029386
aF0.8885072707518893
assI3
(dp15
S'FleeBehavior'
p16
(lp17
F5.427843434949932
aF5.940244633878606
aF5.896715329506135
aF-26.873203340049493
aF0.6630693859191112
aF0.5178219088790503
aF0.9333911543324428
aF3.260458988627043
aF0.9690753247661255
asS'PursueBehavior'
p18
(lp19
F60.572522332210134
aF60.54403676312038
aF60.58023782746526
aF223.9887289808722
aF0.974408181773608
aF0.16217086410695036
aF0.6552691711545457
aF30.586410024046597
aF0.7198773831753118
asS'SeekBehavior'
p20
(lp21
F4.748090961901264
aF4.865719885077037
aF4.67591960362868
aF-29.74217927725177
aF0.730852287618404
aF0.05154648486168478
aF0.8577312543480113
aF3.1307782929022263
aF0.0851835369005427
ass.