(dp0
I1
(dp1
S'FleeBehavior'
p2
(lp3
F3.408417031709509e+47
aF3.408417031709509e+47
aF3.408417031709509e+47
aF-8.934433115016806e+49
aF6.669475912732344e+50
aF1.969169200029768e+51
aF-2.7354176120864213e+51
aF2.628415447336853e+51
aF-2.0862670731178566e+51
aF0.35102519242304475
asS'PursueBehavior'
p4
(lp5
F-6.088365615415e+48
aF-6.088365615415e+48
aF-6.088365615415e+48
aF6.247555742856756e+49
aF3.4315472509928714e+50
aF2.4150779923915805e+51
aF5.057204728565941e+50
aF-2.8376522733642386e+51
aF9.948852344838308e+49
aF0.5580507670784419
asS'SeekBehavior'
p6
(lp7
F1.5205074463161425e+48
aF1.5205074463161425e+48
aF1.5205074463161425e+48
aF-1.2026851371341725e+49
aF1.4170459562459912e+50
aF-8.855992668755508e+50
aF4.296096387132353e+50
aF2.130382351927694e+50
aF6.23602361692768e+50
aF0.31412119286874374
assI2
(dp8
S'FleeBehavior'
p9
(lp10
F4.4685512109562026e+52
aF4.4685512109562026e+52
aF4.4685512109562026e+52
aF4.754981044889686e+52
aF1.704645694477679e+54
aF-6.262315574039042e+53
aF2.6664820972914545e+54
aF-3.059026498359969e+53
aF-5.2111749700983734e+53
aF0.2256204788553109
asS'PursueBehavior'
p11
(lp12
F7.157356982164395e+52
aF7.157356982164395e+52
aF7.157356982164395e+52
aF1.473077533638771e+53
aF-2.3893033256253536e+54
aF-7.930694303694618e+54
aF-1.561717238311828e+54
aF1.5393897717803478e+55
aF-6.578855386038589e+54
aF0.9444469113879339
asS'SeekBehavior'
p13
(lp14
F7.867342898141163e+52
aF7.867342898141163e+52
aF7.867342898141163e+52
aF-8.37868218350969e+52
aF-5.094392190220592e+53
aF1.0668314328867658e+54
aF6.711412195116077e+52
aF-9.58969710575406e+53
aF6.90866881845478e+53
aF0.9093359807772748
assI3
(dp15
S'FleeBehavior'
p16
(lp17
F6.5656392559822316e+41
aF6.5656392559822316e+41
aF6.5656392559822316e+41
aF-2.973675664583561e+43
aF7.562586523777544e+43
aF7.844385948856504e+44
aF-3.3757962759610617e+43
aF-1.5333022422274428e+44
aF-6.387775929937439e+44
aF0.5040733566749224
asS'PursueBehavior'
p18
(lp19
F-6.494031091632898e+41
aF-6.494031091632898e+41
aF-6.494031091632898e+41
aF-2.673241516993522e+42
aF1.277331635401196e+44
aF-2.513552287310077e+43
aF1.7793485290436012e+44
aF7.773133507854482e+43
aF-1.6086344111736536e+44
aF0.27816478753854834
asS'SeekBehavior'
p20
(lp21
F2.945741768083381e+42
aF2.945741768083381e+42
aF2.945741768083381e+42
aF1.2724007920705083e+42
aF-5.863616927213455e+44
aF1.7000235525769785e+43
aF2.3979926334105286e+44
aF2.1380401076780146e+44
aF-4.659172686242923e+44
aF0.2743336135516037
assI4
(dp22
S'FleeBehavior'
p23
(lp24
F4.596992942937978e+50
aF4.596992942937978e+50
aF4.596992942937978e+50
aF3.9749806482459144e+51
aF-1.6942356016201488e+53
aF-5.520465454487283e+51
aF-1.2084214563217194e+53
aF7.271214033600842e+52
aF6.82699620699215e+52
aF0.20858740447305524
asS'PursueBehavior'
p25
(lp26
F-1.9173717385533845e+50
aF-1.9173717385533845e+50
aF-1.9173717385533845e+50
aF3.3883936487206444e+51
aF-5.760050318508424e+51
aF-3.61940159544166e+52
aF-3.928330268813003e+52
aF2.4555138019910776e+52
aF6.290383910684493e+52
aF0.5959638875677822
asS'SeekBehavior'
p27
(lp28
F-2.4698480211672705e+51
aF-2.4698480211672705e+51
aF-2.4698480211672705e+51
aF1.043293771558516e+52
aF1.6916128613381062e+52
aF6.750999424555226e+52
aF1.2277000934145522e+53
aF-6.762326889428615e+52
aF-1.1367379495812733e+53
aF0.6602069305825419
ass.