(dp0
I1
(dp1
S'FleeBehavior'
p2
(lp3
F6.792076501027562
aF7.409390355441424
aF7.2150676521552555
aF-43.17612358625797
aF109.48555330302047
aF100.35590482668341
aF92.96692553425942
aF-258.1751337179194
aF0.6958912533074866
asS'PursueBehavior'
p4
(lp5
F-27.978127797872283
aF-28.03321520359851
aF-27.933964102240118
aF-2.482638611482741
aF-165.08844217199
aF-46.62432243871396
aF-134.64400538922243
aF242.16808329486184
aF0.5872232942902389
asS'SeekBehavior'
p6
(lp7
F16.71330061623879
aF16.732510645695662
aF17.11636043721851
aF2.8061129085434664
aF69.55684776804537
aF79.5813643392651
aF53.85666143020595
aF-139.91882202197553
aF0.5608287893162917
assI2
(dp8
S'FleeBehavior'
p9
(lp10
F-68.20338526243893
aF-68.3093119516883
aF-68.000956379802
aF-58.966644655022485
aF-593.4890488420217
aF1215.2770414253928
aF-652.128504525388
aF-103.52047543926267
aF0.4120633201748941
asS'PursueBehavior'
p11
(lp12
F-4.353028525347781
aF-4.513939205987754
aF-4.109525094323089
aF-155.92282365795876
aF-141.73539674652224
aF-127.11376982522705
aF-149.42772923352337
aF406.8394952064345
aF0.2922184467610439
asS'SeekBehavior'
p13
(lp14
F-38.93318216559757
aF-39.70943124726793
aF-39.09257453234133
aF185.28004732605896
aF188.35263787839241
aF41.087333603431134
aF-67.71313192718873
aF-258.6448303650147
aF0.847422279238717
assI3
(dp15
S'FleeBehavior'
p16
(lp17
F156.2918993795283
aF156.50646506066184
aF156.09102949859877
aF-1182.2657433461188
aF841.382110815912
aF-1245.5926999905412
aF-29.20230673373151
aF936.4646880909157
aF0.27076930663738163
asS'PursueBehavior'
p18
(lp19
F-178.29598190738443
aF-177.76220156368845
aF-178.05212130228801
aF-800.6575568043784
aF-9253.113797942664
aF6126.804327038476
aF3787.306094152846
aF-2363.6185208519323
aF0.6120942150271993
asS'SeekBehavior'
p20
(lp21
F-224.64281565741936
aF-224.4995281812017
aF-224.10861628138906
aF-308.770671656382
aF3381.197114724037
aF-204.49411386760033
aF172.99724326380186
aF-4218.568233324753
aF0.20822846394866845
assI4
(dp22
S'FleeBehavior'
p23
(lp24
F-79.3813461090597
aF-78.7734168618661
aF-78.54684860884714
aF105.63238054266652
aF112.95174252530308
aF-47.69030739027647
aF-59.08331771613561
aF-45.00003814883057
aF0.29420874502024885
asS'PursueBehavior'
p25
(lp26
F29.71877152161659
aF29.648478481659538
aF29.629922003400168
aF-138.93474141273404
aF-499.39375457967947
aF143.28018647369106
aF134.88295966674968
aF142.55939147054744
aF0.4412422099939094
asS'SeekBehavior'
p27
(lp28
F-5.45814631110037
aF-5.541942685012179
aF-5.34814371379621
aF-194.29241422750255
aF-150.05276764409172
aF48.9879857422902
aF61.86510983470832
aF34.39324539925957
aF0.8391102262787108
ass.