(dp0
I1
(dp1
S'FleeBehavior'
p2
(lp3
F7.3800507173920105
aF7.4322634076614245
aF7.413297183906679
aF42.088112486359606
aF0.8753902507238093
aF0.037824747175989715
aF3.7672793713348676
aF3.643205672077713
aF0.5185768514558862
asS'PursueBehavior'
p4
(lp5
F4.6564362847739105
aF4.5472355976434
aF5.1577588783636585
aF-3.500024195648868
aF0.9223809771060482
aF0.9188782804684998
aF3.0264625635026867
aF2.4759167465472522
aF0.39674397937657546
asS'SeekBehavior'
p6
(lp7
F60.039706557204596
aF59.55282081166561
aF59.62135632603858
aF250.5611211796547
aF0.860327949412109
aF0.06434301695712752
aF30.493744881543158
aF30.113959329486462
aF0.9650514935046774
assI2
(dp8
S'FleeBehavior'
p9
(lp10
F52.2421381802942
aF52.76959806477554
aF52.81442175324465
aF39.35744941047366
aF0.5438987179891435
aF0.5271756821302187
aF25.97823095357582
aF26.13380117723
aF0.7495113095028304
asS'PursueBehavior'
p11
(lp12
F2.636646266115596
aF2.110104414853146
aF1.9755849953778761
aF0.6046094721160045
aF0.7565506521958107
aF0.06441886949635922
aF1.0080728275242967
aF1.4330185318708883
aF0.856159833704824
asS'SeekBehavior'
p13
(lp14
F0.8297251371317815
aF1.1834297219651757
aF0.8771140404605762
aF198.53998175002485
aF0.12154765643397514
aF0.2720268511068368
aF0.31903033276065795
aF1.1879777299332677
aF0.683959211325648
ass.