(dp0
I1
(dp1
S'FleeBehavior'
p2
(lp3
F4.2423912034557505
aF4.364466068857517
aF0.7293021624712731
aF0.953690329227363
aF0.58333272929555
aF38.188714008851925
aF0.18348476945591863
asS'PursueBehavior'
p4
(lp5
F398.4725905670644
aF34.05620246965289
aF0.7897335324128614
aF0.7311737735108732
aF0.004397956216029009
aF27.919545435889805
aF0.25291199317087065
asS'SeekBehavior'
p6
(lp7
F3.7019877282332727
aF4.867066433950151
aF0.9973113771374964
aF0.4554540788526825
aF0.6757996458068333
aF36.40119493703003
aF0.19499102320510964
assI2
(dp8
S'FleeBehavior'
p9
(lp10
F27.88343017748681
aF18.279517142257117
aF0.7396069237985589
aF0.5666728825220079
aF0.3779812292754753
aF51.61135601190465
aF0.6753372424586324
asS'PursueBehavior'
p11
(lp12
F12.086202933310817
aF2.5685520824727606
aF0.029756602203137916
aF0.8047284194469013
aF0.8951850079008655
aF43.26985821523448
aF0.9355685413416039
asS'SeekBehavior'
p13
(lp14
F353.07731700484
aF24.565817929938397
aF0.5854202537407291
aF0.9130200608400202
aF0.062232440379260234
aF35.31165645589445
aF0.9065847951800313
assI3
(dp15
S'FleeBehavior'
p16
(lp17
F292.15885019754006
aF280.277605822674
aF0.6694567979747406
aF0.032208589014560696
aF0.47675088758543893
aF37.23022284062616
aF0.5821052405101497
asS'PursueBehavior'
p18
(lp19
F16.35424016099738
aF23.39849909617968
aF0.5512679531191803
aF0.5084325883047583
aF0.686900356031662
aF44.21773395840085
aF0.6748056468419225
asS'SeekBehavior'
p20
(lp21
F8.127180507037577
aF6.558929076651902
aF0.07604145114096328
aF0.05312912080737131
aF0.7400142298020037
aF45.82534343659915
aF0.619961016362789
ass.