(dp0
I1
(dp1
S'FleeBehavior'
p2
(lp3
F-22.738208112235068
aF-11.197124023113279
aF26.33122880709399
aF-17.79310721098108
aF-78.7633822508854
aF-24.540376941218124
aF0.5895961532166678
asS'PursueBehavior'
p4
(lp5
F-129.12757679674448
aF81.98679181756634
aF110.7447435406254
aF-59.71885480939355
aF-2.482210757536656
aF-72.31110050001894
aF0.6997943501369797
asS'SeekBehavior'
p6
(lp7
F-163.7713011752513
aF-17.126911761885637
aF-77.76709609201602
aF119.74201066784035
aF-45.2217334817422
aF-62.37565001853306
aF0.2766072795206391
assI2
(dp8
S'FleeBehavior'
p9
(lp10
F-672.5269200905531
aF117.66561254234861
aF48.17718891549189
aF103.10716888155248
aF-178.96160503384738
aF-11.040474123981793
aF0.9886101616906727
asS'PursueBehavior'
p11
(lp12
F-94.54698358300992
aF-40.47846187276872
aF43.1240662140968
aF-18.357622396171028
aF-65.92441919201993
aF-18.378168103588315
aF0.18176850426774138
asS'SeekBehavior'
p13
(lp14
F-26.540411403801844
aF-103.44844293719613
aF-105.17506288788849
aF76.8480645734568
aF61.73980067240096
aF-93.01274400763943
aF0.7506193999156714
assI3
(dp15
S'FleeBehavior'
p16
(lp17
F-137.32941716016214
aF45.7825134166351
aF-83.65632270424729
aF72.58226635512878
aF4.185267113703307
aF-64.71468402326319
aF0.07560163757376781
asS'PursueBehavior'
p18
(lp19
F-60.36134138147375
aF-63.11162907991906
aF-94.65497151968809
aF73.11112057887517
aF-111.62637858493231
aF-3.001339843827088
aF0.5224018032752495
asS'SeekBehavior'
p20
(lp21
F-151.9086897942481
aF-19.89138360801422
aF0.5697139481948943
aF-12.838593472905256
aF-11.859096443058576
aF-0.3476387251732538
aF0.7585578100629854
assI4
(dp22
S'FleeBehavior'
p23
(lp24
F-123.99190522179836
aF-45.85694961775509
aF-32.241926844868544
aF59.49859786365905
aF43.60678592073058
aF-139.0833315052769
aF0.0021228679116507276
asS'PursueBehavior'
p25
(lp26
F-90.78707102713841
aF-143.7086399812028
aF-58.45448625936268
aF72.77093555042198
aF-83.94419021106629
aF0.05744748127851029
aF0.26581477769372197
asS'SeekBehavior'
p27
(lp28
F-48.784493889118615
aF-75.09438893739998
aF2.8978868548105337
aF22.554026261304514
aF-50.714527201227185
aF-10.164269191404188
aF0.3708211211136043
ass.