(dp0
I1
(dp1
S'FleeBehavior'
p2
(lp3
F226.41131087780178
aF113.87541891750814
aF-12.42137578629329
aF-12.486830045999334
aF27.52850359061586
aF27.588815767266826
aF0.9992285338926353
asS'PursueBehavior'
p4
(lp5
F52.62825566099026
aF8.92510150942278
aF-12.74792995339894
aF-13.033852259890446
aF9.325307818852448
aF9.659166573356
aF0.9213546291751575
asS'SeekBehavior'
p6
(lp7
F9.250648734178963
aF8.483971216713131
aF-12.138463139593417
aF-11.869017169215898
aF12.579672697513743
aF12.029756630912669
aF0.44742442945685446
assI2
(dp8
S'FleeBehavior'
p9
(lp10
F303.498645617053
aF15.318828562819533
aF-20.531850030987503
aF-22.52755301932352
aF20.376429379946945
aF19.97632822197157
aF0.22553743001723614
asS'PursueBehavior'
p11
(lp12
F15.904861517002391
aF4.744695576231942
aF-15.089788652742548
aF-20.665385688475066
aF9.717337318673728
aF9.724406926340265
aF0.12827143503556093
asS'SeekBehavior'
p13
(lp14
F44.11653990640315
aF2.9222896989742666
aF-19.622935328911556
aF-19.57220914079898
aF8.077409880995484
aF7.724836924998165
aF0.15066175028805573
ass.