(dp0
I1
(dp1
S'FleeBehavior'
p2
(lp3
F-1.009543082564019
aF-1.9642679135388497
aF-23.894018320932176
aF-24.621723013232113
aF-23.98503553183569
aF20.286439308037295
aF0.41126504862739677
asS'PursueBehavior'
p4
(lp5
F-14.792469995947961
aF192.67051956728866
aF-8.892310026193826
aF-11.177502798191709
aF-8.872890164551674
aF49.84906114118958
aF0.1976312518460479
asS'SeekBehavior'
p6
(lp7
F-14.840562530868603
aF4.998152545037825
aF-8.585588252477589
aF-8.35080285417199
aF-8.226819061267193
aF36.88167444861126
aF0.9361084917724847
assI2
(dp8
S'FleeBehavior'
p9
(lp10
F77.21801130351841
aF5.125703020951267
aF-1.4844694736938329
aF-1.000084070823604
aF-0.8401107799109258
aF21.726710542750528
aF0.7605306549419982
asS'PursueBehavior'
p11
(lp12
F21.009297930943372
aF57.90134004538729
aF-39.54797043372913
aF-39.96081978146354
aF-39.39810532016268
aF6.881545254435028
aF0.605895946012392
asS'SeekBehavior'
p13
(lp14
F18.872023419451068
aF0.5746352470246252
aF-2.605867874419972
aF-2.6036427165336233
aF-1.2005339612060135
aF13.845393223155192
aF0.9639206160181928
assI3
(dp15
S'FleeBehavior'
p16
(lp17
F-19.503645655139515
aF10.430956114463402
aF-8.802396806498354
aF-8.3805044781545
aF-8.90207360159068
aF50.52564876981052
aF0.08910464155832554
asS'PursueBehavior'
p18
(lp19
F-37.988776395086596
aF9.252936785974326
aF-25.76072947917823
aF-26.384106547474957
aF-25.70491217264508
aF45.18528321677865
aF0.5779129457258186
asS'SeekBehavior'
p20
(lp21
F-19.967912667911175
aF226.42493032141203
aF-6.833615308393943
aF-7.21293058193474
aF-8.876412696046199
aF75.38525884055449
aF0.7876245301080914
ass.