(dp0
I1
(dp1
S'FleeBehavior'
p2
(lp3
F3.737945386177297
aF12.437885631091708
aF-15.109217692701248
aF-14.218370636476793
aF6.463309113249016
aF5.867024509086949
aF0.251513584982759
asS'PursueBehavior'
p4
(lp5
F13.035720927366215
aF73.08841800290277
aF-26.800458296681747
aF-26.7423973284186
aF3.391004877159494
aF3.430871400808078
aF0.38734639450535435
asS'SeekBehavior'
p6
(lp7
F55.96715621554409
aF64.9956891874476
aF-11.122189037192587
aF-10.424915896485402
aF35.44186535590166
aF35.57141775785062
aF0.3901689094223496
assI2
(dp8
S'FleeBehavior'
p9
(lp10
F-12.773534509260658
aF370.4422887279517
aF-21.921317381187407
aF-26.27700964916141
aF42.61342501105497
aF43.18328561454729
aF0.07997015758638237
asS'PursueBehavior'
p11
(lp12
F-3.746607154923779
aF13.569872665718604
aF-14.086645532449694
aF-14.509408846032695
aF9.377142774256935
aF8.635316636884848
aF0.1120527809110643
asS'SeekBehavior'
p13
(lp14
F-14.058956453927038
aF25.303979282071936
aF-11.640695475775326
aF-17.94789675471273
aF17.694234560980366
aF17.19384204330211
aF0.7520113972962399
ass.