(dp0
I1
(dp1
S'FleeBehavior'
p2
(lp3
F-54.991455057474575
aF-6.516470466806857
aF-50.47055896647026
aF49.0718694372268
aF-50.385099613083206
aF-26.68615464370189
aF0.9038495455632053
asS'PursueBehavior'
p4
(lp5
F-2.108578309443163
aF-132.2015634130139
aF-27.642945939814922
aF-102.56235850929774
aF148.42459355334208
aF-83.1650185005524
aF0.979782211877342
asS'SeekBehavior'
p6
(lp7
F26.114852853720183
aF38.67043262198316
aF-95.73159659167564
aF166.21225428324513
aF-352.2062241520449
aF561.2058574254366
aF0.8917523744064393
assI2
(dp8
S'FleeBehavior'
p9
(lp10
F-17.882452765586645
aF-33.61754926756866
aF1.9739582614377014
aF-12.15158801556524
aF-34.53554173600035
aF41.70234188055553
aF0.2308531453170437
asS'PursueBehavior'
p11
(lp12
F-14.357919400807441
aF-98.46958665894628
aF62.5509943953449
aF-34.599033004027504
aF-4.310426838448225
aF-43.12096462667906
aF0.5203359463146201
asS'SeekBehavior'
p13
(lp14
F-44.8307015359275
aF-75.1031447143125
aF43.89832439840974
aF8.68268642951111
aF8.460086784326206
aF-102.88696950224794
aF0.7241223298545272
assI3
(dp15
S'FleeBehavior'
p16
(lp17
F-18.787968339203903
aF-8.364493478224041
aF62.14041664075523
aF-93.37470356718025
aF40.6478812405367
aF-78.28997348137288
aF0.5541684509756851
asS'PursueBehavior'
p18
(lp19
F-60.63904803768311
aF35.420749011961966
aF0.27164512977179545
aF-11.405555185928648
aF-23.076962874838955
aF-27.751378543473482
aF0.5920193184997042
asS'SeekBehavior'
p20
(lp21
F-68.95359386496105
aF-24.130977410235072
aF3.673470299007592
aF-87.66412860593204
aF116.13948438827299
aF-45.4601991148476
aF0.059118721338806135
assI4
(dp22
S'FleeBehavior'
p23
(lp24
F-8.668608675305958
aF-47.67897481230876
aF-3.4138401804082124
aF-22.19072627893383
aF7.638726967773442
aF2.1513573888922592
aF0.3170275594085482
asS'PursueBehavior'
p25
(lp26
F-30.482214669755518
aF-62.74311813548718
aF-55.175652606291884
aF-85.55763887789554
aF51.63875563488547
aF-4.221280162693203
aF0.5546559045143378
asS'SeekBehavior'
p27
(lp28
F-11.468218249548903
aF-146.3874242223169
aF-35.33058515359185
aF-63.12654033280949
aF72.62861477266067
aF4.847975690558551
aF0.5912012233978517
ass.