(dp0
I1
(dp1
S'FleeBehavior'
p2
(lp3
F-39.352419585460716
aF-107.60149979649866
aF-27.37256616034123
aF-19.62443874744547
aF0.8117339283379406
asS'PursueBehavior'
p4
(lp5
F-44.32792173955076
aF-64.5233422175076
aF-0.40336282205149415
aF-42.898634195560625
aF0.02368026428915737
asS'SeekBehavior'
p6
(lp7
F-51.30554498359125
aF-15.039822205734026
aF5.607482862141089
aF-48.94317629058813
aF0.35102519242304475
assI2
(dp8
S'FleeBehavior'
p9
(lp10
F-46.71011883763457
aF-46.72826208702283
aF-4.815346944004167
aF-17.58174205005156
aF0.31412119286874374
aF-46.07529123861306
aF-17.73005624708778
aF-4.801211622009613
aF0.08937040928097073
asS'PursueBehavior'
p11
(lp12
F-42.601709438726886
aF-59.93487944737742
aF-17.847632962416075
aF-5.645108175569237
aF0.2451807086434803
aF-59.96988423077499
aF-5.680032304535401
aF-18.51156726377068
aF0.685180873334678
asS'SeekBehavior'
p13
(lp14
F-51.80352004280718
aF-32.876190084326645
aF-18.128530511730208
aF-10.608342256118206
aF0.6486249149564591
aF-32.987177387816054
aF-10.60154808290335
aF-17.651790371625154
aF0.4459020342458241
ass.