(dp0
I1
(dp1
S'FleeBehavior'
p2
(lp3
F-143.32894450913938
aF282.1891647946438
aF-16.891415950070957
aF-16.267592827066515
aF0.9431607406865614
aF282.56212641172516
aF-16.921636334880027
aF-17.044876730605246
aF0.00493713340984947
aF282.8904842275245
aF-16.846746189156555
aF-16.72201189841676
aF-6.699071340780872
aF0.5190361846540611
aF282.35258475885
aF-16.683719028683676
aF-16.90209415992505
aF-6.7617705290257675
aF0.4396220743257787
aF282.2466294887376
aF-7.271769060716565
aF-17.124185741518808
aF-16.42763550439991
aF0.4340954760464275
aF282.8959128149491
aF-16.637501903925163
aF-16.579261518064193
aF-7.059276354870178
aF-6.84640964733174
aF0.49710719894111033
aF283.00180744347387
aF-17.073480468687997
aF-16.235257667582722
aF-6.501060107839489
aF-6.8540266299300185
aF0.4331652340736284
aF282.6457540618904
aF-6.649706203347332
aF-16.775558291078703
aF-17.128176749323934
aF-6.78703619077632
aF0.6515741748281153
aF282.285378889867
aF-6.770828581675886
aF-16.99759013732254
aF-16.41646558060996
aF-7.2179816587809
aF0.6557911846399584
aF282.847453247489
aF-16.311127561976953
aF-16.879152498809155
aF-6.567597741087777
aF-7.100112170152613
aF0.6332833344161553
aF282.32033598968013
aF-17.139003398501266
aF-16.519898179333445
aF-6.7181442339350745
aF-6.642335516006906
aF0.4752253400153864
aF283.040295884587
aF-16.179734877272445
aF-16.572455859611743
aF-6.7632385128878525
aF-6.509303561674837
aF0.9254238653758282
aF282.35479939284534
aF-16.334609282409183
aF-16.421262256028378
aF-6.921128556991476
aF-6.438866281774917
aF0.8449562079366724
aF282.1544021157749
aF-6.862634660191446
aF-17.14655788450002
aF-17.163866625248808
aF-7.3142416067694285
aF0.8982186263671629
aF282.6218044519508
aF-16.36753786113882
aF-17.021057636045633
aF-6.692248429593089
aF-6.697289040742046
aF0.46392934811161246
aF283.0740049655265
aF-16.86489462382155
aF-16.56072389761014
aF-6.486131026951252
aF-6.651318324682247
aF0.38564315482620715
aF282.3996971528646
aF-6.959050408941806
aF-16.896902127349513
aF-16.664648623828775
aF-6.503547309586647
aF0.8191665890694855
aF282.5968050003423
aF-6.964665585490167
aF-16.793717259975885
aF-16.77594663342952
aF-6.5827564878914835
aF0.8537559503882485
aF283.0957023769775
aF-16.551856686674817
aF-16.429833642143443
aF-6.8417459216796885
aF-6.7918549427341475
aF0.38637060956660796
asS'PursueBehavior'
p4
(lp5
F-37.99442260850035
aF-854.5761790058128
aF-19.279990809512377
aF-19.387068529563543
aF0.31677465433112884
aF-854.7413424350649
aF-19.84102300135529
aF-19.958743150125706
aF0.33324643242685403
aF-854.435564028277
aF-19.96673272360683
aF-19.546953425017783
aF47.28177540377029
aF0.10126515471608233
aF-854.7239159010477
aF-19.183918647311664
aF-19.474231974898807
aF46.88052853642201
aF0.6344826191300624
aF-854.8868023185286
aF46.77300831871192
aF-19.389181977114752
aF-19.479662555231094
aF0.40357162294765525
aF-854.0529876443684
aF-19.193435275580406
aF-19.469976947069092
aF47.00775343814367
aF47.36564977869815
aF0.8831438986378808
aF-854.792503986547
aF-19.424851991089234
aF-19.577969578640896
aF47.550153532427736
aF47.03480183379812
aF0.12036158398531116
aF-854.7405508530978
aF47.036116000908315
aF-19.753352397185786
aF-19.13129427310269
aF47.381472578219665
aF0.6673278378156339
aF-854.6618307756977
aF46.74287599361352
aF-19.629487033679275
aF-19.90061537797883
aF47.540135736241915
aF0.7014466223684013
aF-854.1662735241603
aF-19.74245686719619
aF-19.04967703965705
aF47.717168562504945
aF46.82481130858579
aF0.1244192078018107
aF-854.2208080936308
aF-19.59411173771955
aF-19.892158446022712
aF47.081643788708185
aF46.862930092318344
aF0.5162756329327457
aF-854.3434564887068
aF-19.680275399113476
aF-19.960149727262127
aF46.8158136516898
aF46.904548944297936
aF0.8034484446610927
aF-854.0375614824675
aF-19.566603305793258
aF-19.874144340436352
aF47.67353582403003
aF47.04167814487263
aF0.3905997104884731
aF-854.4814709374444
aF47.35763731410426
aF-19.673882097118145
aF-19.89395072307233
aF46.847408564918815
aF0.8290705224750149
aF-854.6156780767824
aF-19.144878575068823
aF-19.59281980805404
aF47.48403441647039
aF47.16440895869888
aF0.19470861413323393
aF-854.0035930225458
aF-19.605162719263028
aF-19.750381685773284
aF46.9123215916463
aF47.09279185743295
aF0.8030770579681968
aF-854.733663788698
aF47.099200193577495
aF-19.801399992193275
aF-19.197831791476197
aF47.56515472051645
aF0.015664463124856698
aF-854.6952381756806
aF47.05402662028185
aF-19.641540132740623
aF-19.43727344932224
aF47.22939001270455
aF0.8265756460371396
aF-854.1031266633105
aF-19.77733308860558
aF-19.43642791597882
aF46.97676645423993
aF47.35652769524594
aF0.3487352923924407
asS'SeekBehavior'
p6
(lp7
F33.277118880162355
aF-1090.107174204657
aF153.53786460947072
aF153.13888351763583
aF0.737492640567098
aF-1090.1085397616707
aF153.52421448660382
aF153.76726724336928
aF0.14945918885552278
aF-1090.3038305538612
aF153.17605506962067
aF153.750721984738
aF116.59350385845053
aF0.4819951384787744
aF-1089.8035265606345
aF152.96857137602433
aF153.2589314607338
aF116.74822710447691
aF0.2364638885204957
aF-1090.4872075914536
aF116.55943359069218
aF153.7229012707365
aF153.2842084526771
aF0.713867413330774
aF-1090.4312006433147
aF152.9175730464255
aF153.4065992088418
aF116.4967874759399
aF116.5652618747911
aF0.09035616820092784
aF-1090.0932394288789
aF153.6991993535712
aF152.8733358657476
aF116.34401234989323
aF116.54073269061419
aF0.7414971217667404
aF-1089.7323802334558
aF116.70255711938253
aF153.58129095862233
aF153.70662906316176
aF116.32256122088987
aF0.04526596398352667
aF-1090.3298171093488
aF116.9634182282845
aF153.6817024312864
aF153.63171718895566
aF116.18771220601369
aF0.008361052300571603
aF-1089.8342130525457
aF152.91480659638523
aF152.91596800794628
aF116.8325891746886
aF116.21841945404233
aF0.6495048450131764
aF-1089.7257293426214
aF153.6976581874938
aF153.44298492663555
aF116.37282291933744
aF116.77511690290615
aF0.6090082991884429
aF-1089.7168633562833
aF153.2567714796292
aF153.4954729055497
aF116.58478509082525
aF116.46824463767715
aF0.356551013535957
aF-1090.1435869548745
aF153.78780693064786
aF153.60843617626347
aF116.62979744178259
aF116.84713636291829
aF0.15188216942510513
aF-1090.0695054212974
aF116.22448924306892
aF153.33280043382803
aF153.5560159587533
aF116.23779814925197
aF0.4881460010422308
aF-1090.4753787601448
aF153.08461224534392
aF153.62993971692612
aF116.45560759249443
aF116.26081793373297
aF0.5866856569807763
aF-1090.18393930077
aF153.74027429181425
aF153.05124859498153
aF116.47612505676241
aF117.02858944831613
aF0.7616270983647275
aF-1090.495205029978
aF117.05137668486103
aF153.03435432119136
aF153.50661076882346
aF116.72143322299203
aF0.5703053957680985
aF-1090.4294249485174
aF116.83320514268897
aF152.88516945605255
aF152.93850535961644
aF116.55849145963091
aF0.7736023283323014
aF-1089.843240614929
aF153.15012026189632
aF152.89640577214675
aF116.76136162537696
aF116.89301495019154
aF0.8122899281007709
assI2
(dp8
S'FleeBehavior'
p9
(lp10
F-87.22189662518562
aF46.68094660313664
aF3.515676516246274
aF-5.978427705447388
aF0.5573487699584724
aF46.311891805558666
aF-5.9188613804587265
aF3.0585011593253393
aF0.258010049878146
aF46.326958831864644
aF2.987143605845927
aF-6.138956320958703
aF23.44911130750002
aF0.08781883518441869
aF46.35309571686315
aF-6.685295905942037
aF3.287550195740274
aF23.88398063234316
aF0.08093647778724267
aF47.13153263812864
aF23.19773227337525
aF3.402844224598856
aF-5.991191233345995
aF0.761646489598067
aF46.568879586276296
aF3.4896685352026617
aF-5.948827388131144
aF23.169288600649836
aF23.493421541030855
aF0.5383563425198944
aF47.11067521731865
aF-6.585571750764683
aF3.6165846630687506
aF23.847684145983706
aF23.807910363301247
aF0.2850558874109911
aF46.38666040316381
aF23.82883578421054
aF2.9033205617436204
aF-5.857798307995357
aF23.442741351629778
aF0.17539801625097196
aF46.789839006475745
aF23.498707528174137
aF2.783532516096142
aF-6.25175439773304
aF23.80309319257465
aF0.6708392439599936
aF46.97462107669104
aF3.1281915496469646
aF-6.094980843530686
aF23.306699778319498
aF23.899498145414178
aF0.6829713169368888
aF46.21548318302613
aF-6.037196775629163
aF2.859587163464199
aF23.48490773405952
aF23.650808691491264
aF0.1237658799339304
aF46.96943140239165
aF3.0541975613413657
aF-6.51132437137029
aF23.600479194120126
aF23.4360623747274
aF0.8489776795328836
aF46.612814936869185
aF-6.22142092817191
aF3.6248691482801663
aF23.448859461226633
aF23.30244752151775
aF0.6186121340602574
aF47.020953786952234
aF23.310482896078767
aF2.828894471886751
aF-6.497139250395578
aF23.52690285238232
aF0.8840966728537552
aF46.38189790732649
aF3.419281368922694
aF-5.810883985100387
aF23.18172176168126
aF23.772595293232953
aF0.07616364259361819
aF47.05623641645471
aF-6.588980774382731
aF2.806897547904776
aF23.835901606390692
aF24.04895348064857
aF0.7789852335179731
aF47.073539368713384
aF23.663495200698847
aF3.2585441660568
aF-6.4803176898028925
aF23.619553614181726
aF0.7310725732248027
aF47.205942599122906
aF23.231256999093077
aF3.5188875538615543
aF-6.328303619507296
aF23.38993586047168
aF0.9698417492356651
aF46.67857554715248
aF3.0014963045008054
aF-6.240696816741104
aF23.458180309782463
aF23.980748374780056
aF0.35812282091502734
aF46.50742840744291
aF-6.279341159977251
aF2.996744966415581
aF23.46400505968525
aF23.42851934366935
aF0.10922712986952499
asS'PursueBehavior'
p11
(lp12
F547.9404777227207
aF-311.1359200032839
aF-41.68512392506332
aF-41.30373120809091
aF0.07040377877351589
aF-311.25233806772155
aF-41.353820464901176
aF-41.869280165649876
aF0.9998191964173601
aF-310.31483581467955
aF-41.56944835481841
aF-41.49462011276693
aF-20.719403351577768
aF0.9633732540073403
aF-310.7037770565097
aF-41.67029881243289
aF-41.96339527215356
aF-20.923888562347685
aF0.6768174664661963
aF-310.53877568555333
aF-20.60822106662161
aF-41.85614960858616
aF-41.73005399277356
aF0.5500625299946053
aF-310.3611502132369
aF-41.25974215154121
aF-41.76353965541402
aF-20.47498385134398
aF-20.759588001154526
aF0.4944206346891431
aF-310.76382180309884
aF-41.634682427610386
aF-41.762102390474105
aF-20.99738855613535
aF-20.93473132047282
aF0.5971782779173244
aF-310.4803159774872
aF-20.767975400832967
aF-41.51462914301036
aF-42.07876320123789
aF-20.41367854881767
aF0.7419308708184158
aF-310.72380675742306
aF-21.11903743560609
aF-41.4247874062872
aF-41.18771928066315
aF-20.973782005239656
aF0.6483066338939306
aF-311.1090184500389
aF-41.18993971960536
aF-41.246321338152086
aF-20.4933961617501
aF-21.015282498619655
aF0.36848619313388786
aF-310.7467873395518
aF-41.65909950222251
aF-41.80306776094232
aF-20.979956735550587
aF-20.28810102989408
aF0.29900332911579397
aF-311.16147757167755
aF-41.77447506825136
aF-41.44116347229603
aF-20.476451416420133
aF-21.102520793890363
aF0.13020650462751027
aF-310.50582156226574
aF-42.10227107048776
aF-42.0741030409266
aF-20.912468786178607
aF-20.67028652675552
aF0.4081926990031627
aF-310.86719634989447
aF-20.534343901847052
aF-42.00002513850855
aF-41.370045852570726
aF-20.336656333610364
aF0.5009621491697582
aF-311.2550135283889
aF-41.21157420259653
aF-41.957869072655654
aF-20.882643829038244
aF-20.636316048351574
aF0.49119067063210986
aF-310.5257711668621
aF-41.30701094188898
aF-41.49790091842707
aF-21.18047640143098
aF-21.106946760916372
aF0.2949335643482729
aF-310.4634228846634
aF-21.178971017476698
aF-41.70166856902614
aF-41.18605207603324
aF-20.425971128345765
aF0.5550868245008004
aF-310.47778590256974
aF-20.89099245061405
aF-41.303948862681835
aF-41.45432372203132
aF-20.718629337065323
aF0.09390889650028189
aF-311.15207853784966
aF-42.06545042209508
aF-41.804224948127725
aF-21.080569913594474
aF-20.64011315187716
aF0.2934663840570171
aF-311.13438979922125
aF-41.592486646859165
aF-41.3028214257759
aF-20.3820858066197
aF-21.17713986478364
aF0.9460984907605716
asS'SeekBehavior'
p13
(lp14
F407.228129126662
aF-2264.2658496672784
aF-10.254791122811051
aF-9.658365558670058
aF0.5048768413733957
aF-2263.9815570527344
aF-9.747748916317763
aF-10.311711002836613
aF0.9484445225379673
aF-2263.8719003725428
aF-9.723687669814646
aF-9.874451172775345
aF91.88760899094076
aF0.8214793685837279
aF-2263.8957958364836
aF-9.889463910342991
aF-10.076656049705537
aF92.04818076767414
aF0.2996695227843573
aF-2264.4078798553446
aF91.3742015052202
aF-10.271632473489577
aF-10.11931398277723
aF0.5120559254460693
aF-2264.176055000242
aF-9.734605040502439
aF-10.0589170933283
aF91.41141598344065
aF91.24059777883839
aF0.515709916600303
aF-2264.403172220168
aF-10.431208912209309
aF-9.583978658271024
aF92.10629043905818
aF91.33186463768551
aF0.2509592118134929
aF-2263.8646721761743
aF91.62410494577388
aF-9.927450253128677
aF-10.234850905846852
aF91.20829338119611
aF0.12930621338373371
aF-2264.1091106088033
aF91.69191234181098
aF-9.794445717874593
aF-10.343822416204361
aF92.08806733883729
aF0.5422456983643364
aF-2263.6992064175984
aF-10.119438620714982
aF-10.356450423326862
aF91.78210736767313
aF91.81139605156376
aF0.013211055794149495
aF-2264.1480364998206
aF-9.842243898433791
aF-9.558480394121156
aF92.13005116133435
aF91.4707420512831
aF0.5104019097382035
aF-2264.2347480844746
aF-10.224190842806888
aF-10.356796625299111
aF91.97129484270307
aF91.54102516946922
aF0.777409494138893
aF-2264.2412686791113
aF-9.916739637653198
aF-9.956754998824804
aF91.19093733324362
aF91.43739462281327
aF0.1083322722458625
aF-2263.873299329176
aF91.56150922569658
aF-9.49032920995219
aF-10.38887588181308
aF91.50788311447458
aF0.630929265381749
aF-2264.24503875178
aF-9.8078446831141
aF-10.081803536393325
aF91.57882893421437
aF91.17133526060016
aF0.3879600454014924
aF-2263.8279517253604
aF-9.976293394934425
aF-10.420307721860224
aF91.51822647004236
aF92.0698019086284
aF0.6428013563267673
aF-2263.921628519138
aF91.39742957751595
aF-9.726323757598946
aF-9.49073551372535
aF91.59408969102232
aF0.8879622598431626
aF-2264.3020037612196
aF91.76850573145556
aF-10.335743398564647
aF-10.19099817149709
aF91.23351293906661
aF0.9033403241350395
aF-2264.0115138068486
aF-9.966567719645878
aF-10.163910903882927
aF91.85446244786716
aF91.98202108246996
aF0.8912676409298311
aF-2263.716234724986
aF-9.745529448552013
aF-9.761607115986797
aF91.6532758288994
aF91.95004096017318
aF0.7807340285986551
ass.