(dp0
I1
(dp1
S'FleeBehavior'
p2
(lp3
F-50.41980983843524
aF-63.13923520818873
aF-27.878123599519476
aF-12.747120306109053
aF-22.417047128719414
aF0.3971737100780004
asS'PursueBehavior'
p4
(lp5
F-38.87808697616558
aF-138.57294488031044
aF9.193334283455961
aF-32.95236491600997
aF-22.89048089388854
aF0.6201559092323717
asS'SeekBehavior'
p6
(lp7
F-39.10534962631814
aF-140.82958585069983
aF-12.868783876318032
aF-6.703002471413532
aF-34.78107102906145
aF0.5455817482443385
assI2
(dp8
S'FleeBehavior'
p9
(lp10
F-12.311501414216126
aF-139.00848915479443
aF-7.317849263303335
aF-0.6811417828119106
aF-15.114587876087132
aF0.08937040928097073
aF-12.738415387045599
aF-138.65357227709532
aF-1.229021347943235
aF-7.981676685267339
aF-15.100254192357585
aF0.5580507670784419
asS'PursueBehavior'
p11
(lp12
F-28.152529643829425
aF-28.68222043272071
aF-7.654486653771416
aF-14.07481746588268
aF-13.675459142198168
aF0.12930873304767576
aF-27.772442882004043
aF-28.48057895446746
aF-13.719635052402891
aF-7.5711413459576145
aF-13.739594792531467
aF0.5199605554511534
asS'SeekBehavior'
p13
(lp14
F-16.51011410300697
aF-87.20706315799289
aF-20.434928091509644
aF4.049347805320969
aF-6.776576413571364
aF0.9356883094987457
aF-16.271718131137245
aF-87.48210190430451
aF4.358530157442771
aF-20.65520964690013
aF-7.246987832678248
aF0.685180873334678
assI3
(dp15
S'FleeBehavior'
p16
(lp17
F-18.577154092358946
aF11.247910867445931
aF-11.257956466778896
aF-1.3723670773472108
aF-11.280805223629757
aF0.9444469113879339
aF-18.394117910344367
aF11.524611812937218
aF-1.0836168261476955
aF-10.459392914435785
aF-11.727196034855012
aF0.44658002226711235
aF-18.215636763745895
aF11.201891380186336
aF-11.831936443375007
aF-10.888721360547983
aF-1.1808627202310604
aF0.11258244908065884
asS'PursueBehavior'
p18
(lp19
F-18.433076291353878
aF7.707569824898833
aF-17.027919662753582
aF-2.0748860264567504
aF-3.7263680710731606
aF0.23837497929759932
aF-18.758385884063415
aF7.166134338687318
aF-1.9537469370822107
aF-17.28604633797397
aF-4.040444811726198
aF0.055925965762756547
aF-18.32568475664283
aF7.162255431954652
aF-3.757020261955101
aF-16.62353183828157
aF-2.162937217824614
aF0.7603220547333283
asS'SeekBehavior'
p20
(lp21
F-16.437151693732755
aF18.581214071034708
aF-3.7553920524178435
aF-4.863108300635467
aF-11.067000085950857
aF0.809415333314606
aF-16.38433871159044
aF17.936688768998145
aF-5.242567972133349
aF-3.608339665347553
aF-11.536251443197177
aF0.5468261592315946
aF-16.87818514216282
aF17.968977544236076
aF-11.462407988440606
aF-3.347971359659818
aF-5.17222404486589
aF0.27816478753854834
ass.