(dp0
I1
(dp1
S'FleeBehavior'
p2
(lp3
F7277.318943572263
aF1645.862031645168
aF-78257.50427681353
aF-78257.32410465583
aF0.8828209839382862
aF1645.515442890487
aF-78257.42746065232
aF-78256.90959760285
aF0.3496346729394688
aF1645.5003218696156
aF-78257.13008462978
aF-78257.08241634714
aF-78256.80344833189
aF0.3753392832418575
aF1645.512076248645
aF-78256.75540789234
aF-78257.56736020447
aF-78257.33644538766
aF0.3342578211999261
aF1645.5480846723376
aF-78257.51546243607
aF-78257.6641781533
aF-78257.64911972873
aF0.47407601804902455
aF1645.8894629352226
aF-78256.94898293508
aF-78256.96284292474
aF-78257.08567411818
aF14857.432145491268
aF0.5228858287360615
aF1645.6225429213055
aF-78257.06244789241
aF-78256.8910009097
aF-78257.11419593637
aF14858.102267722566
aF0.23174839977156592
aF1645.7582200818078
aF-78257.32477501768
aF-78256.92305089212
aF-78257.2491381797
aF14857.855441153424
aF0.19710072036071258
aF1645.895518361097
aF14857.625219505946
aF-78256.85397472601
aF-78256.77425538571
aF-78256.90945790434
aF0.66770221156095
aF1646.4050749682983
aF-78257.16076574143
aF-78257.24466912514
aF-78257.65900998522
aF14857.475055621031
aF0.6822132979459079
aF1645.9765761033677
aF-78256.77664478551
aF-78256.80600761001
aF-78257.36682084211
aF14857.520828219098
aF0.8129628404103714
aF1645.7764920697273
aF-78256.89467769688
aF-78257.06421528701
aF-78256.8264812428
aF14857.35155845634
aF0.7737766938829829
aF1646.1710404753294
aF-78257.36847497159
aF-78257.51150963794
aF-78257.4198102714
aF14857.671086417595
aF0.7243793048820817
aF1645.8498460661222
aF-78257.51256005588
aF-78256.86791085848
aF-78256.95490032791
aF14857.571693714384
aF0.508687115660399
aF1645.488273695898
aF-78257.68706532662
aF-78257.00802440448
aF-78257.30410041058
aF14857.520052182514
aF0.03946306366092189
aF1646.200787854411
aF-78256.99631475435
aF-78257.04490287526
aF-78257.1347203626
aF14858.140451106618
aF0.5961319961147993
aF1646.1046515424177
aF-78257.03850068514
aF-78257.02951865408
aF-78256.77514604002
aF14858.145516388435
aF0.600850584688682
aF1646.0211409642807
aF14857.61651124831
aF-78256.99959048913
aF-78257.69719599756
aF-78257.24540524372
aF0.528597895974385
aF1646.2709552015558
aF-78257.6963168236
aF-78257.44086729511
aF-78257.57682548225
aF14857.372258660118
aF0.3504600831877783
aF1646.3610836033813
aF-78257.09493286825
aF-78256.83442877959
aF-78257.41026611501
aF14858.143011044736
aF0.754135857831156
aF1646.3883448663992
aF-78257.64401131251
aF-78256.75528955145
aF-78257.69562206257
aF14858.191328756362
aF0.7153938015362673
aF1646.1073924564998
aF-78257.66694363684
aF-78257.57279125706
aF-78256.84880374002
aF14857.571353529314
aF0.021053464297412283
aF1645.6844550991964
aF-78257.34204021141
aF-78257.20383332115
aF-78257.43310928895
aF14857.366179251429
aF0.12888059027908283
aF1645.4844463709896
aF-78257.14727799414
aF-78257.15426369513
aF-78257.37458336941
aF14857.7487015154
aF0.7090878887441245
aF1645.7783782430497
aF-78256.75561018717
aF-78256.79578877924
aF-78256.9770293368
aF14857.291297589396
aF0.08413116529615583
asS'PursueBehavior'
p4
(lp5
F3436689.9865123197
aF-7017781.950892485
aF-2700963.444380195
aF-2700963.0705808485
aF0.05939403368113938
aF-7017781.55319154
aF-2700963.4501681766
aF-2700962.9294918114
aF0.9473093660973466
aF-7017782.290684841
aF-2700963.559343838
aF-2700962.8093607496
aF-2700962.759994325
aF0.31782504689353697
aF-7017782.084065993
aF-2700962.779078541
aF-2700963.1983761312
aF-2700963.340216033
aF0.07350698635692754
aF-7017781.647233923
aF-2700962.857632931
aF-2700963.357149168
aF-2700963.0334914937
aF0.42319917103754434
aF-7017781.875040536
aF-2700963.639737464
aF-2700963.107541507
aF-2700963.3829421904
aF1315805.209071259
aF0.8108373375544382
aF-7017781.917831573
aF-2700963.2063335455
aF-2700962.9529876867
aF-2700963.02802506
aF1315806.0531826285
aF0.7518658474242677
aF-7017782.252126847
aF-2700963.441616842
aF-2700963.1096607097
aF-2700963.639945167
aF1315805.2902787635
aF0.4365304329910692
aF-7017782.25672664
aF1315805.7434879318
aF-2700962.794011793
aF-2700963.4286445794
aF-2700962.6965452544
aF0.20187999886778207
aF-7017782.022059129
aF-2700962.785249056
aF-2700962.9592090775
aF-2700963.027883791
aF1315805.545808067
aF0.2990432212444064
aF-7017782.303193024
aF-2700963.01615262
aF-2700963.58667546
aF-2700963.171561237
aF1315805.8864611215
aF0.03351256815862835
aF-7017781.331693321
aF-2700963.0031694868
aF-2700963.138807012
aF-2700963.585626912
aF1315805.4366961615
aF0.8493105030689783
aF-7017782.134349587
aF-2700962.7440011734
aF-2700962.79974636
aF-2700963.5794099164
aF1315805.162443241
aF0.1693124479878465
aF-7017782.125293464
aF-2700963.519652763
aF-2700963.4695308306
aF-2700963.4787431387
aF1315805.513860438
aF0.08363513637289288
aF-7017781.315673615
aF-2700962.714118283
aF-2700962.857579214
aF-2700963.1191963414
aF1315805.8693740396
aF0.2947616017683068
aF-7017781.5699484
aF-2700963.2758508734
aF-2700963.5379855637
aF-2700963.0948612317
aF1315805.9530400452
aF0.535712135741188
aF-7017781.81530445
aF-2700963.244856197
aF-2700962.809285691
aF-2700963.2266626535
aF1315805.228520507
aF0.44923257045096987
aF-7017781.948396531
aF1315805.6227244502
aF-2700962.9678430744
aF-2700963.4881030614
aF-2700963.0206293897
aF0.7598452629666225
aF-7017782.27240163
aF-2700962.8770693
aF-2700963.4761976283
aF-2700963.594475193
aF1315806.1229429687
aF0.22149238405411698
aF-7017781.992499358
aF-2700962.7937613796
aF-2700963.342080679
aF-2700962.6533693955
aF1315805.854468651
aF0.27391597725904104
aF-7017781.629259923
aF-2700963.344381315
aF-2700962.8863036856
aF-2700963.375545219
aF1315805.2577449307
aF0.05020667395520739
aF-7017781.932249538
aF-2700963.126119161
aF-2700963.6084843967
aF-2700963.6137153315
aF1315805.9772547553
aF0.11997335769419137
aF-7017782.296576471
aF-2700963.2116711615
aF-2700962.844206604
aF-2700962.8687546155
aF1315805.8517392743
aF0.019605736097412008
aF-7017781.7044406375
aF-2700962.787166634
aF-2700962.858741071
aF-2700962.8281875607
aF1315805.2753366278
aF0.08240515266599491
aF-7017781.636879469
aF-2700962.722492447
aF-2700962.8532096357
aF-2700962.7076325286
aF1315805.7597639905
aF0.12488798369748233
asS'SeekBehavior'
p6
(lp7
F79029.32145300471
aF276.4926223513621
aF-2.7343339811764995
aF-2.992793101637008
aF0.7129410502391907
aF276.8310607285248
aF-3.2536087355672336
aF-2.962614630247451
aF0.38337088808425646
aF276.88176488155386
aF-3.0056508652290415
aF-2.5358312855038907
aF-2.9666826012332903
aF0.7421068972794488
aF275.93538997010273
aF-2.83575536393052
aF-3.148224989231217
aF-3.3421849537845
aF0.880268959448857
aF276.6967923287093
aF-2.4668687985860966
aF-2.6073911874510403
aF-2.9613148654241925
aF0.2842610527053673
aF276.6979966346271
aF-3.2688137780842084
aF-3.108593243431045
aF-3.172622950748071
aF11643.166834574777
aF0.5351165013950329
aF276.2845169425864
aF-2.713909196128288
aF-3.0671241079961487
aF-3.102162781412342
aF11642.986505859359
aF0.2984823007336138
aF276.450729911533
aF-2.655016425681941
aF-3.2844336200723596
aF-3.425601478902177
aF11642.46790691215
aF0.4653109564562731
aF275.9625611114361
aF11642.966394569261
aF-2.892124684358425
aF-3.3515831950457455
aF-2.896057978653621
aF0.2976250064532715
aF276.547130982618
aF-2.7334894323574437
aF-2.879422746883475
aF-3.4376684304795004
aF11642.970348340927
aF0.586682460590527
aF275.91976047327717
aF-3.024029146572733
aF-2.5463214983837137
aF-3.2353424739483403
aF11642.94940499915
aF0.015607067764372484
aF276.40748798240475
aF-3.0347804261646374
aF-3.402078370344068
aF-2.521599287563456
aF11642.31541432356
aF0.41704526024683997
aF276.32317417207105
aF-3.0976733975644626
aF-3.3250830741504043
aF-3.3679421514678474
aF11643.160868710607
aF0.9975105654088345
aF275.92375051356885
aF-3.124203837257525
aF-3.13287494002185
aF-2.926018537000889
aF11642.551703722393
aF0.6269025677155039
aF276.3987174021613
aF-2.854897822088155
aF-2.529814195120238
aF-3.4007998558565795
aF11642.743614058187
aF0.4560711850245419
aF275.9244913846496
aF-3.295503478239471
aF-3.176778368362937
aF-2.6821909445376626
aF11642.496420734098
aF0.9878662084610841
aF276.88598773395006
aF-3.370727389012562
aF-2.949154534233669
aF-2.535205115361075
aF11642.35304421757
aF0.7148699619539971
aF275.94257505935184
aF11642.506099316468
aF-2.503939749663239
aF-2.530844841061054
aF-3.357724426238116
aF0.9526596948250636
aF276.51868802837726
aF-2.9931876776578408
aF-3.137614590402329
aF-2.9923331657312495
aF11643.27739165968
aF0.3665583194465073
aF276.5687069804562
aF-3.250359464469506
aF-2.791579059321135
aF-2.8069359852372298
aF11643.02230274369
aF0.666421092862874
aF276.0960143918719
aF-3.312791909402744
aF-2.9746830555677404
aF-3.183040637851425
aF11642.405585600298
aF0.7422524472174846
aF276.5946507733979
aF-2.9775352835015285
aF-2.6100051840433185
aF-3.1543223051640563
aF11643.13373054669
aF0.7160083702429905
aF276.4681422968797
aF-3.173885954324688
aF-2.678424287851149
aF-2.7658634288611648
aF11643.243337664144
aF0.8770880296561435
aF276.0353047414692
aF-3.1618767050805374
aF-3.4311533867395543
aF-3.0932779821728555
aF11643.135620342511
aF0.3257673935270158
aF276.0247773345918
aF-2.8180987487348066
aF-2.7919444431747316
aF-3.4373480734717745
aF11643.258578616662
aF0.5474559473254578
assI2
(dp8
S'FleeBehavior'
p9
(lp10
F41064.918403914584
aF-31295.230604489298
aF14433.943173975964
aF-189849.9116203985
aF0.6393349765288403
aF-31295.422962509045
aF-189849.8667629105
aF14433.538510014861
aF0.824882713288449
aF-31295.24762740914
aF14433.299953164116
aF-189850.32895673224
aF-189849.99124749078
aF0.8939214756417198
aF-31294.974248658145
aF-189849.8739702835
aF14434.15683227929
aF-189850.3042917669
aF0.5993278623103426
aF-31294.932899457453
aF-189849.83121249883
aF14433.830021844598
aF-189849.69563568485
aF0.8990509566965592
aF-31295.09895821666
aF14433.397095667347
aF-189850.3126751164
aF-189849.65355122052
aF5178.769949648632
aF0.22928296917023028
aF-31294.763454158434
aF-189849.67710287345
aF14433.366091654185
aF-189850.3855246555
aF5178.453478905737
aF0.29015786913220365
aF-31294.60362870701
aF-189850.19420456188
aF14434.193386317349
aF-189850.0209102971
aF5178.245366986434
aF0.8821672921360736
aF-31294.72597059432
aF5178.543427099431
aF14433.461036229055
aF-189849.93141631948
aF-189849.61385836126
aF0.9803952688937219
aF-31295.096203030007
aF14434.086455154695
aF-189849.8510766943
aF-189850.3522781554
aF5178.3681118869
aF0.4829505344862133
aF-31295.35431253224
aF-189849.9405203004
aF14433.567234708713
aF-189849.82710379385
aF5178.122351995452
aF0.12496178325689378
aF-31294.997251762696
aF14434.036604333198
aF-189849.8117358354
aF-189849.49773599504
aF5178.968501528886
aF0.5344638560591078
aF-31294.697857304876
aF-189850.11530733845
aF14434.043672589358
aF-189849.90763646373
aF5178.4057791483365
aF0.05989130034889112
aF-31295.412888440995
aF-189849.6420269998
aF14433.495654580263
aF-189850.25323068775
aF5178.392797512061
aF0.8081503285470361
aF-31295.13312994675
aF14433.517903349511
aF-189850.33408439928
aF-189850.1795031935
aF5178.78865968666
aF0.42634628403605535
aF-31294.47226569955
aF-189849.67084785976
aF14433.92487610252
aF-189849.88619496886
aF5178.4120828412715
aF0.5624101597015913
aF-31294.74250367641
aF-189849.70107487493
aF14433.63637957015
aF-189849.87438114206
aF5178.238852653464
aF0.1867460997369207
aF-31295.19606238683
aF5178.532035685407
aF14433.688393252707
aF-189849.81191831478
aF-189850.23292467487
aF0.30483478386435525
aF-31294.606430455497
aF14433.245595488857
aF-189850.22287074052
aF-189849.51520962376
aF5178.698506750429
aF0.08572917099887867
aF-31295.25350090184
aF-189850.18369604027
aF14433.601731657058
aF-189850.2397588362
aF5178.92517402288
aF0.9404338787697376
aF-31295.42496890408
aF14433.871127774099
aF-189849.9445859675
aF-189850.37646571876
aF5178.674228010234
aF0.9962152537162873
aF-31294.96378688835
aF-189849.51205037432
aF14433.718063766604
aF-189849.78694697822
aF5178.826166892571
aF0.23220669742015687
aF-31295.070563015797
aF14433.91901439026
aF-189850.46712893446
aF-189849.58399963
aF5178.314984952712
aF0.40723615518934897
aF-31295.412080098737
aF-189850.26613378595
aF14433.427396857014
aF-189850.4159261887
aF5178.192226237007
aF0.3069274596008368
aF-31295.311044809037
aF14433.629682854145
aF-189850.3344959646
aF-189849.74168373548
aF5178.939429130668
aF0.4390510231452529
aF-31295.11014495098
aF-189849.86656426094
aF14433.942329282861
aF-189849.68880208945
aF5178.981776932692
aF0.9314623751784171
asS'PursueBehavior'
p11
(lp12
F18139.875064259606
aF-9290.793416028335
aF-253742.61509084597
aF-253742.32553868133
aF0.2669644534256149
aF-9291.089170137517
aF-253742.57608953025
aF-253742.47388506713
aF0.20034245482711743
aF-9291.183313170759
aF-253742.53998273285
aF-253742.9606595719
aF-253742.74457183006
aF0.8680954708352671
aF-9291.045384063522
aF-253743.06862707183
aF-253742.38446828641
aF-253742.18145146163
aF0.26489509174962034
aF-9291.097968433643
aF-253742.93975005485
aF-253742.38992855843
aF-253742.9417294827
aF0.010573189796914018
aF-9291.430468904202
aF-253742.7937159184
aF-253742.4706143653
aF-253742.37162977539
aF1041.6045136327189
aF0.2954878759668075
aF-9291.18102648228
aF-253742.30963750524
aF-253742.5320418462
aF-253742.590281286
aF1041.172685648347
aF0.4817029385015218
aF-9291.185394127491
aF-253742.51727606825
aF-253742.33140188453
aF-253742.69544608355
aF1042.0898811091788
aF0.7072234769936847
aF-9290.808859322648
aF1041.1473138652832
aF-253742.28529108225
aF-253743.01792535413
aF-253742.71983232044
aF0.6880945476413297
aF-9291.417572930093
aF-253743.06819954724
aF-253742.18834136258
aF-253742.40408573617
aF1041.6840064179883
aF0.8427770078522664
aF-9290.740124662696
aF-253742.8989659825
aF-253742.92576843157
aF-253742.97076412593
aF1041.8201400624125
aF0.8177184867039612
aF-9290.924207088667
aF-253742.40505097387
aF-253742.48267022584
aF-253742.39201047452
aF1041.4872663313758
aF0.6424483566254753
aF-9290.65191856144
aF-253742.9018144033
aF-253742.93247292194
aF-253742.17688052726
aF1042.0963783967777
aF0.8217555397203944
aF-9291.270603149287
aF-253742.5548633468
aF-253742.33548475016
aF-253742.80148730127
aF1041.2501946702864
aF0.2627028238379455
aF-9290.700111525393
aF-253742.4517068757
aF-253742.5070686234
aF-253742.63114678935
aF1041.2886222220582
aF0.35727583469434854
aF-9291.122861285245
aF-253742.5117837625
aF-253742.89966003824
aF-253742.31553951863
aF1042.098318229549
aF0.9913411882854692
aF-9291.037808799056
aF-253742.24647823512
aF-253743.149620599
aF-253742.54279014037
aF1041.4956710658184
aF0.07552727603377907
aF-9291.239341017763
aF1041.54354577995
aF-253742.4422190131
aF-253742.607392247
aF-253743.17192900478
aF0.9392304417783746
aF-9290.532807550708
aF-253742.2461058867
aF-253743.1256355511
aF-253742.79620929444
aF1041.2082299601057
aF0.13544612846281023
aF-9290.986580445964
aF-253742.8406223452
aF-253742.76073289203
aF-253742.7871009441
aF1041.6539153922236
aF0.6914731613073162
aF-9290.703022745378
aF-253742.92980335676
aF-253742.18843104842
aF-253742.8954185356
aF1041.6324160958497
aF0.8613956734229403
aF-9290.721874599889
aF-253742.61248287876
aF-253742.90313693165
aF-253742.35836278377
aF1041.4701205448105
aF0.5229927556304474
aF-9290.596804145434
aF-253742.411569932
aF-253742.32932265266
aF-253742.30527080357
aF1041.2554664731028
aF0.6870656927030138
aF-9291.203569138519
aF-253743.08317531747
aF-253742.6406437108
aF-253742.51752714772
aF1041.5319672742658
aF0.6096413618253916
aF-9290.843455831744
aF-253742.3378914674
aF-253742.2556970725
aF-253742.49523992062
aF1041.4158876199685
aF0.12385978900291694
aF-9291.230913963927
aF-253742.95593470172
aF-253742.52412300667
aF-253742.21921445578
aF1041.7234120641983
aF0.2632618797775783
asS'SeekBehavior'
p13
(lp14
F16434.46854065877
aF-23868.942506831227
aF-4663.114438654712
aF-4662.593513093538
aF0.7549453276727327
aF-23868.701451930225
aF-4663.319958009586
aF-4663.492022696347
aF0.16406570029119927
aF-23869.313149042922
aF-4663.5298979433755
aF-4663.27700698128
aF-4662.9200906560345
aF0.3043624780992218
aF-23869.025680671883
aF-4662.808881189932
aF-4663.538615634994
aF-4663.478449996093
aF0.09428033700297178
aF-23868.547974854882
aF-4662.747475318763
aF-4662.8019559302575
aF-4662.623380367437
aF0.3172101766020391
aF-23869.078099048646
aF-4663.554460305173
aF-4663.252893206429
aF-4663.1442963158925
aF6638.268774688217
aF0.8633255662058632
aF-23868.724794024827
aF-4662.672877560048
aF-4663.194070070688
aF-4662.640089378058
aF6638.0594893744765
aF0.3859031015549782
aF-23869.01929597909
aF-4663.256301791447
aF-4662.6872930167865
aF-4662.748651100294
aF6638.366692434904
aF0.12159961339791969
aF-23868.55632023629
aF6638.326843407625
aF-4662.921810271442
aF-4662.604054171583
aF-4663.145031194721
aF0.6718015705459156
aF-23868.88045938719
aF-4663.508675965295
aF-4662.981281058347
aF-4663.362458284058
aF6638.302319986136
aF0.891579266331545
aF-23868.429862043722
aF-4662.583415437033
aF-4663.348838664829
aF-4662.938905238113
aF6638.303766174804
aF0.09494705984434593
aF-23869.27654983737
aF-4663.289838323207
aF-4662.655905052434
aF-4663.081981723628
aF6638.69373252032
aF0.47022364443037423
aF-23868.7822431897
aF-4663.270167915422
aF-4663.509185206945
aF-4663.468421172171
aF6638.192376508256
aF0.9116423386782615
aF-23868.675777949436
aF-4662.788451473697
aF-4662.605007897959
aF-4662.675566401852
aF6638.667190970851
aF0.15914887369396258
aF-23869.34508205172
aF-4663.312690457194
aF-4662.709033274874
aF-4663.147029534066
aF6637.7413381222195
aF0.22150707497408406
aF-23869.100105576596
aF-4662.850016997914
aF-4662.780362998265
aF-4663.053905893235
aF6637.761667130535
aF0.8334432218010513
aF-23868.724490049288
aF-4663.194934039317
aF-4662.937799585261
aF-4663.0728876524245
aF6638.249316708376
aF0.7417270434667302
aF-23869.18489161568
aF6637.755436339312
aF-4663.355608544563
aF-4663.022548166307
aF-4663.180012428538
aF0.3091757169130175
aF-23869.13314052257
aF-4663.1316873880805
aF-4662.669535214892
aF-4663.284855167967
aF6637.97315512983
aF0.11175648558825113
aF-23869.18213693203
aF-4662.751422433494
aF-4662.786068596019
aF-4663.269501550076
aF6637.997201221051
aF0.1774330896689843
aF-23869.143334679255
aF-4663.48864081867
aF-4663.28701700031
aF-4663.31792480415
aF6637.820395617027
aF0.17637423957018072
aF-23869.23443056444
aF-4663.431589285433
aF-4662.815869929304
aF-4663.042635264714
aF6638.569516324727
aF0.18167433339873884
aF-23868.837475890447
aF-4663.428126947231
aF-4662.790353932778
aF-4663.476334259573
aF6638.109369311203
aF0.2303654232568707
aF-23869.198575606115
aF-4663.473872323858
aF-4663.055869992897
aF-4662.750840860108
aF6637.886037622693
aF0.08374223344790943
aF-23868.53798885156
aF-4662.676793290615
aF-4662.991416911633
aF-4663.472574100327
aF6638.661711101186
aF0.8894693312765267
aF-23869.32624743168
aF-4662.701294364114
aF-4662.5929575311675
aF-4662.913652859133
aF6638.528865830494
aF0.45608380898470724
assI3
(dp15
S'FleeBehavior'
p16
(lp17
F-1141.644185409322
aF-1885.2620041157757
aF-84524.20116067365
aF-84524.10465187361
aF0.40507045067930747
aF-1884.6680962503547
aF-84523.71980335223
aF-84524.21963500963
aF0.8888792740385335
aF-1884.7690439281873
aF-84524.11628066083
aF-84524.1598308098
aF-84523.84155221927
aF0.2244610263338428
aF-1884.8999544101785
aF-84524.25511804983
aF-84523.56276744227
aF-84523.89936023636
aF0.30673789886009617
aF-1884.693678418333
aF-84523.56076638648
aF-84523.81566729596
aF-84523.88221736613
aF0.9320606386804762
aF-1884.8466414584095
aF-84523.75257165942
aF-84524.30077441793
aF-84523.87547283989
aF417.915266539132
aF0.08912368148459582
aF-1885.394933857851
aF-84524.18540425264
aF-84523.56706821446
aF-84524.08446815607
aF417.7774484898054
aF0.45985387998753424
aF-1885.3026310093542
aF-84523.5739336143
aF-84524.35858773845
aF-84523.73642734044
aF417.5062763189798
aF0.7297433249932936
aF-1885.2400254586641
aF417.43326923300805
aF-84523.56437861655
aF-84524.12953167284
aF-84523.94142904252
aF0.6705407577733425
aF-1885.5473349308127
aF-84524.48905320292
aF-84524.18550933622
aF-84524.05593479586
aF417.8143581062413
aF0.42692100978148495
aF-1884.6301211837076
aF-84524.34766991866
aF-84523.60051572762
aF-84523.96420758154
aF417.50705777569414
aF0.03177911960224633
aF-1884.6713409214422
aF-84524.28608590607
aF-84524.34576108267
aF-84523.90363050216
aF417.63046471199226
aF0.4253075606117528
aF-1884.9301294095744
aF-84523.96057221324
aF-84523.77817056896
aF-84523.57134337147
aF417.4062584914736
aF0.7970996612047374
aF-1885.2153936067884
aF-84524.43088525384
aF-84524.55106955381
aF-84524.03242489742
aF417.82658203929344
aF0.6964555330577715
aF-1884.734930740026
aF-84523.88610612051
aF-84523.71138606798
aF-84523.55731731573
aF417.7790535985641
aF0.43793385882655755
aF-1885.5441288124007
aF-84524.22317466789
aF-84523.58151210818
aF-84523.99312606185
aF417.7008120957125
aF0.07766343082603155
aF-1885.4483382253643
aF-84523.78921188749
aF-84524.4071427568
aF-84524.41109887375
aF417.22962364840527
aF0.3839764744943035
aF-1885.5702634604645
aF417.5204550830039
aF-84523.76043914368
aF-84524.34663390995
aF-84523.99975957478
aF0.18364605836277081
aF-1885.423579108187
aF-84523.63037183823
aF-84523.92077489225
aF-84523.86142238305
aF417.5853543720604
aF0.6930452488128879
aF-1885.0632404582716
aF-84524.49162537497
aF-84523.73251978979
aF-84523.74767588415
aF417.5612724336624
aF0.5630402420537661
aF-1885.0685933558784
aF-84523.7257563586
aF-84523.98252079335
aF-84523.61341195037
aF417.4174732084302
aF0.287346785959805
aF-1884.7204796160217
aF-84524.15120821293
aF-84524.28001276725
aF-84524.2284252067
aF417.50451395189333
aF0.8503123586667186
aF-1885.240765770663
aF-84524.38622482568
aF-84524.24434603419
aF-84524.09219503505
aF417.3358634226915
aF0.8019781201289831
aF-1885.3586683632252
aF-84524.50815120913
aF-84523.81917888497
aF-84523.95567156973
aF417.35104775683607
aF0.5174420541017024
aF-1885.3297045471359
aF-84524.16667921827
aF-84523.64433592712
aF-84523.57961629312
aF417.6151809755483
aF0.6774322685198968
aF-1885.4134471060165
aF-84524.4838618149
aF-84524.05929086797
aF-84524.16151731671
aF417.44725517284854
aF0.6761169197993655
aF-1884.6455977879928
aF-84523.87321599395
aF-84523.67633221124
aF-84523.63174054399
aF417.73962024573297
aF0.3734453406971405
asS'PursueBehavior'
p18
(lp19
F14244.328533170492
aF-787.7326559855946
aF-38286.30913445595
aF-38286.467670273596
aF0.5402347331260684
aF-788.2720250738912
aF-38286.27394737499
aF-38286.180964329586
aF0.8459852095585726
aF-787.5747618323003
aF-38286.33400084434
aF-38285.80430647655
aF206343.98656221532
aF0.9648038471015694
aF-788.4314262439993
aF-38285.50063060889
aF-38285.949687607725
aF206344.31602429526
aF0.7208958164824211
aF-787.5709515732851
aF206343.6971685858
aF-38285.651463607246
aF-38285.54839158352
aF0.44137741740192027
aF-788.1525456580121
aF-38286.424567445734
aF-38285.62013890275
aF206344.25622521742
aF-232.95464896935886
aF0.1840460811447876
aF-787.9136019756888
aF-38285.73990897575
aF-38286.33517184576
aF206344.30931172508
aF-232.2816260444801
aF0.7871581537392415
aF-788.2338518065508
aF206344.2359829303
aF-38285.87786462063
aF-38286.25989862876
aF-232.28304464289835
aF0.2788657995658457
aF-787.7015856735661
aF-232.53535055837568
aF-38285.81483572604
aF-38286.30340575825
aF206344.31248715447
aF0.567750820735932
aF-788.2683686729979
aF-38286.12726287427
aF-38285.63866746068
aF206343.72596470107
aF-233.01557597287905
aF0.05669009553553894
aF-787.9959936976547
aF-38285.983231450766
aF-38285.998274629295
aF206343.75866311678
aF-232.75843396407294
aF0.6806480658601476
aF-787.5639259274021
aF-38285.703071435964
aF-38286.29680382786
aF206343.62330872702
aF-233.14830093680797
aF0.8430309987309635
aF-788.1255037201636
aF-38285.9388138613
aF-38285.87117404862
aF206344.14530293093
aF-232.56668668292554
aF0.9617712802082737
aF-787.689447674501
aF206343.86900303376
aF-38286.01667655121
aF-38286.18874868819
aF-232.6914983375886
aF0.8539488430624141
aF-788.2501983838565
aF-38286.1038145179
aF-38286.07601617532
aF206343.73479249314
aF-232.78899647065413
aF0.4343352179118962
aF-788.2148750093902
aF-38286.16631375859
aF-38286.43889050126
aF206344.39714097528
aF-232.59629827123575
aF0.008750795565333314
aF-788.0398951520028
aF206343.6078569247
aF-38286.415169234104
aF-38285.7307320312
aF-232.30213146697355
aF0.47081883843472694
aF-788.3165597325042
aF-232.3796821417622
aF-38286.136496225125
aF-38285.79478664564
aF206344.35763296697
aF0.5760673808781144
aF-787.9610813551753
aF-38286.23319090881
aF-38285.78575352982
aF206344.0056576397
aF-232.71418566850338
aF0.1629353055445426
aF-787.911675512526
aF-38285.71929761371
aF-38286.35261160524
aF206344.26152923002
aF-232.69348135041804
aF0.22725942448327263
aF-788.219003723997
aF-38285.9581762717
aF-38285.93523141621
aF206343.74022926297
aF-233.09573856874925
aF0.16814226865382342
aF-787.9086092843381
aF-38286.05371609285
aF-38285.82629456463
aF206344.02298739215
aF-232.56375543550388
aF0.18280242613241338
aF-787.7670801480408
aF-38286.32116287863
aF-38286.308845297
aF206344.47256803905
aF-232.56542402460622
aF0.061565390873834724
aF-787.837399919701
aF-38286.21812604077
aF-38286.32396587411
aF206344.09272600515
aF-232.7264583652854
aF0.6602114755211119
aF-788.0133737812012
aF-38285.999293362154
aF-38286.287031613465
aF206344.1467212711
aF-233.0171160258455
aF0.8331301106171063
aF-788.3001275549641
aF-38286.46528381679
aF-38286.17173637272
aF206344.12176707832
aF-232.64401650067742
aF0.47481941324000276
aF-788.2792024902983
aF206343.77341500274
aF-38285.96076615619
aF-38286.09760861003
aF-232.67661082559647
aF0.7735175430262637
asS'SeekBehavior'
p20
(lp21
F13563.89172600238
aF-8188.014901980272
aF-46604.30087000741
aF-46604.45978707467
aF0.9024525298305228
aF-8187.661384092769
aF-46604.21605924637
aF-46604.08125194054
aF0.5106803739411804
aF-8187.293436574657
aF-46604.32498978698
aF-46604.68164192437
aF-46228.4966926364
aF0.40518554485307157
aF-8188.182566705256
aF-46604.53122853633
aF-46604.569815538045
aF-46228.02734132987
aF0.8950033575585052
aF-8187.431192593567
aF-46228.73107467622
aF-46603.89726696318
aF-46604.39238471353
aF0.3117034846275457
aF-8187.72785023536
aF-46603.945001372194
aF-46604.67069888614
aF-46228.02731512175
aF31.506257965937003
aF0.32022697899768315
aF-8187.886962794151
aF-46604.19305634762
aF-46604.43029914513
aF-46228.754304846065
aF31.764571782286986
aF0.10392127017241604
aF-8188.024680549779
aF-46228.766004741
aF-46603.869829332696
aF-46603.89590030177
aF31.713708333130818
aF0.33745703333983834
aF-8187.689087319099
aF31.846620124730144
aF-46604.60161288376
aF-46604.32943965137
aF-46228.22744496811
aF0.9384016924292063
aF-8187.576917281827
aF-46604.363187802264
aF-46603.93796635909
aF-46228.156620101385
aF31.884526902807885
aF0.6490010057096721
aF-8187.734764119015
aF-46603.95057242202
aF-46604.295097209564
aF-46228.007050975306
aF31.224792891096477
aF0.4050316106037394
aF-8187.819610851619
aF-46604.69408520198
aF-46604.18385428672
aF-46228.551646490945
aF31.12791779749201
aF0.17246248688119103
aF-8187.54475882002
aF-46603.93679260674
aF-46604.28337468064
aF-46228.762121900465
aF31.989480089609025
aF0.312591934559309
aF-8187.971076910491
aF-46227.998550073986
aF-46603.91348750853
aF-46604.01776678277
aF31.43148437863598
aF0.31435259787267533
aF-8187.655802545711
aF-46604.460224755865
aF-46604.51201285057
aF-46228.34242798375
aF31.16310517649432
aF0.667548939711603
aF-8188.24058687411
aF-46604.31276578665
aF-46604.19974651179
aF-46228.787744523834
aF31.360680573439787
aF0.2829464390261297
aF-8187.362381080211
aF-46228.32322642686
aF-46603.896701034886
aF-46604.041881639336
aF31.39069696036855
aF0.4885395184780338
aF-8187.665150002316
aF31.49742004114338
aF-46604.67862431301
aF-46604.64630841081
aF-46228.1568660518
aF0.9013468088735578
aF-8187.959036461145
aF-46603.85633069986
aF-46604.526699314214
aF-46228.15695647779
aF31.469830489722845
aF0.8962062118097309
aF-8187.802667530379
aF-46604.177972279336
aF-46603.92586422646
aF-46227.955478360505
aF31.51935082132146
aF0.9807949181320512
aF-8187.885391644379
aF-46604.63705847377
aF-46603.971851999944
aF-46228.63772537438
aF31.868195187935235
aF0.3121413007563828
aF-8187.493588804975
aF-46604.658985786846
aF-46603.79914017996
aF-46228.41245396124
aF31.433965104841228
aF0.7674419671181989
aF-8187.431399917032
aF-46604.24154236647
aF-46604.594655407476
aF-46228.32733646197
aF31.206570829051962
aF0.4293197843148928
aF-8187.312065224438
aF-46604.20836638882
aF-46604.65398758956
aF-46228.71133330386
aF31.2671811282216
aF0.3055597660616577
aF-8187.747768708961
aF-46604.71790313596
aF-46604.09080455334
aF-46228.215259728524
aF31.04723473153532
aF0.20355562464518095
aF-8187.760929850048
aF-46604.0332782004
aF-46604.53755747407
aF-46228.53210438573
aF31.129285387565652
aF0.04316776199869565
aF-8188.25025624135
aF-46228.59904068458
aF-46604.112424304745
aF-46604.08495336294
aF31.128181257581637
aF0.4389646867680399
ass.