(dp0
I1
(dp1
S'FleeBehavior'
p2
(lp3
F-5.58146736854856e+130
aF-4.193344133568417e+130
aF-1.6285343311896404e+131
aF-1.634703177920142e+131
aF0.39800430375190865
aF-4.193344133568417e+130
aF-1.634703177920142e+131
aF-1.6285343311896404e+131
aF0.6661812100517195
aF-4.193344133568417e+130
aF-1.6285343311896404e+131
aF-1.634703177920142e+131
aF-1.6285343311896404e+131
aF0.8879188136663028
aF-4.193344133568417e+130
aF-1.634703177920142e+131
aF-1.6285343311896404e+131
aF-1.6285343311896404e+131
aF0.20782756368740252
aF-4.193344133568417e+130
aF-1.6285343311896404e+131
aF-1.6285343311896404e+131
aF-1.634703177920142e+131
aF0.31833516691216446
aF-4.193344133568417e+130
aF-1.6285343311896404e+131
aF-1.634703177920142e+131
aF-1.6285343311896404e+131
aF-1.7713296541311499e+131
aF0.5582238211290255
aF-4.193344133568417e+130
aF-1.634703177920142e+131
aF-1.6285343311896404e+131
aF-1.6285343311896404e+131
aF-1.7713296541311499e+131
aF0.9690590444461057
aF-4.193344133568417e+130
aF-1.6285343311896404e+131
aF-1.6285343311896404e+131
aF-1.634703177920142e+131
aF-1.7713296541311499e+131
aF0.7259195980479229
aF-4.193344133568417e+130
aF-1.7713296541311499e+131
aF-1.6285343311896404e+131
aF-1.634703177920142e+131
aF-1.6285343311896404e+131
aF0.5904506209821188
aF-4.193344133568417e+130
aF-1.6285343311896404e+131
aF-1.634703177920142e+131
aF-1.6285343311896404e+131
aF-1.7713296541311499e+131
aF0.5106615980054268
aF-4.193344133568417e+130
aF-1.634703177920142e+131
aF-1.6285343311896404e+131
aF-1.6285343311896404e+131
aF-1.7713296541311499e+131
aF0.8597289166136322
aF-4.193344133568417e+130
aF-1.6285343311896404e+131
aF-1.634703177920142e+131
aF-1.6285343311896404e+131
aF-1.7713296541311499e+131
aF0.7006937043760617
aF-4.193344133568417e+130
aF-1.634703177920142e+131
aF-1.6285343311896404e+131
aF-1.6285343311896404e+131
aF-1.7713296541311499e+131
aF0.6017108197720907
aF-4.193344133568417e+130
aF-1.6285343311896404e+131
aF-1.6285343311896404e+131
aF-1.634703177920142e+131
aF-1.7713296541311499e+131
aF0.9488178098511908
aF-4.193344133568417e+130
aF-1.6285343311896404e+131
aF-1.634703177920142e+131
aF-1.6285343311896404e+131
aF-1.7713296541311499e+131
aF0.7228522153989243
aF-4.193344133568417e+130
aF-1.634703177920142e+131
aF-1.6285343311896404e+131
aF-1.6285343311896404e+131
aF-1.7713296541311499e+131
aF0.40383338464581175
aF-4.193344133568417e+130
aF-1.6285343311896404e+131
aF-1.6285343311896404e+131
aF-1.634703177920142e+131
aF-1.7713296541311499e+131
aF0.9768500955356061
aF-4.193344133568417e+130
aF-1.7713296541311499e+131
aF-1.6285343311896404e+131
aF-1.634703177920142e+131
aF-1.6285343311896404e+131
aF0.8323517288312509
aF-4.193344133568417e+130
aF-1.6285343311896404e+131
aF-1.634703177920142e+131
aF-1.6285343311896404e+131
aF-1.7713296541311499e+131
aF0.021686877340611477
aF-4.193344133568417e+130
aF-1.634703177920142e+131
aF-1.6285343311896404e+131
aF-1.6285343311896404e+131
aF-1.7713296541311499e+131
aF0.4404849252914763
aF-4.193344133568417e+130
aF-1.6285343311896404e+131
aF-1.634703177920142e+131
aF-1.6285343311896404e+131
aF-1.7713296541311499e+131
aF0.0007527846800903237
aF-4.193344133568417e+130
aF-1.634703177920142e+131
aF-1.6285343311896404e+131
aF-1.6285343311896404e+131
aF-1.7713296541311499e+131
aF0.884453980480545
aF-4.193344133568417e+130
aF-1.6285343311896404e+131
aF-1.634703177920142e+131
aF-1.6285343311896404e+131
aF-1.7713296541311499e+131
aF0.21116023206120615
aF-4.193344133568417e+130
aF-1.634703177920142e+131
aF-1.6285343311896404e+131
aF-1.6285343311896404e+131
aF-1.7713296541311499e+131
aF0.20847026434470106
aF-4.193344133568417e+130
aF-1.6285343311896404e+131
aF-1.634703177920142e+131
aF-1.6285343311896404e+131
aF-1.7713296541311499e+131
aF0.19824079089404745
aF-4.193344133568417e+130
aF-1.634703177920142e+131
aF-1.6285343311896404e+131
aF-1.6285343311896404e+131
aF-1.7713296541311499e+131
aF0.6821100053856011
aF-4.193344133568417e+130
aF-1.6285343311896404e+131
aF-1.6285343311896404e+131
aF-1.634703177920142e+131
aF-1.7713296541311499e+131
aF0.9531525431826026
aF-4.193344133568417e+130
aF-1.6285343311896404e+131
aF-1.634703177920142e+131
aF-1.6285343311896404e+131
aF-1.7713296541311499e+131
aF0.5736353399837447
aF-4.193344133568417e+130
aF-1.634703177920142e+131
aF-1.6285343311896404e+131
aF-1.6285343311896404e+131
aF-1.7713296541311499e+131
aF0.17299225453899492
aF-4.193344133568417e+130
aF-1.6285343311896404e+131
aF-1.6285343311896404e+131
aF-1.634703177920142e+131
aF-1.7713296541311499e+131
aF0.9052440446105539
aF-4.193344133568417e+130
aF-1.6285343311896404e+131
aF-1.634703177920142e+131
aF-1.6285343311896404e+131
aF-1.7713296541311499e+131
aF0.7937191124569224
aF-4.193344133568417e+130
aF-1.634703177920142e+131
aF-1.6285343311896404e+131
aF-1.6285343311896404e+131
aF-1.7713296541311499e+131
aF0.1536521351956346
aF-4.193344133568417e+130
aF-1.6285343311896404e+131
aF-1.6285343311896404e+131
aF-1.634703177920142e+131
aF-1.7713296541311499e+131
aF0.23177600216977223
aF-4.193344133568417e+130
aF-1.6285343311896404e+131
aF-1.634703177920142e+131
aF-1.6285343311896404e+131
aF-1.7713296541311499e+131
aF0.4145678547571259
asS'PursueBehavior'
p4
(lp5
F-1.612085515663509e+131
aF-4.780052986393198e+130
aF-2.140901577053231e+131
aF-2.1377933243528272e+131
aF0.43134150766154433
aF-4.780052986393198e+130
aF-2.1377933243528272e+131
aF-2.140901577053231e+131
aF0.4048306340958542
aF-4.780052986393198e+130
aF-2.140901577053231e+131
aF-2.1377933243528272e+131
aF-2.140901577030061e+131
aF0.7514281937522223
aF-4.780052986393198e+130
aF-2.1377933243528272e+131
aF-2.140901577053231e+131
aF-2.140901577030061e+131
aF0.6144905944908565
aF-4.780052986393198e+130
aF-2.140901577030061e+131
aF-2.140901577053231e+131
aF-2.1377933243528272e+131
aF0.520924004279055
aF-4.780052986393198e+130
aF-2.140901577053231e+131
aF-2.1377933243528272e+131
aF-2.140901577030061e+131
aF-2.1405321016078694e+131
aF0.41139764028443926
aF-4.780052986393198e+130
aF-2.1377933243528272e+131
aF-2.140901577053231e+131
aF-2.140901577030061e+131
aF-2.1405321016078694e+131
aF0.11853505959132649
aF-4.780052986393198e+130
aF-2.140901577030061e+131
aF-2.140901577053231e+131
aF-2.1377933243528272e+131
aF-2.1405321016078694e+131
aF0.7576248429213533
aF-4.780052986393198e+130
aF-2.1405321016078694e+131
aF-2.140901577053231e+131
aF-2.1377933243528272e+131
aF-2.140901577030061e+131
aF0.39287093711565935
aF-4.780052986393198e+130
aF-2.140901577053231e+131
aF-2.1377933243528272e+131
aF-2.140901577030061e+131
aF-2.1405321016078694e+131
aF0.2216521186476872
aF-4.780052986393198e+130
aF-2.1377933243528272e+131
aF-2.140901577053231e+131
aF-2.140901577030061e+131
aF-2.1405321016078694e+131
aF0.5675865905568356
aF-4.780052986393198e+130
aF-2.140901577053231e+131
aF-2.1377933243528272e+131
aF-2.140901577030061e+131
aF-2.1405321016078694e+131
aF0.04798663021905902
aF-4.780052986393198e+130
aF-2.1377933243528272e+131
aF-2.140901577053231e+131
aF-2.140901577030061e+131
aF-2.1405321016078694e+131
aF0.1358287464299366
aF-4.780052986393198e+130
aF-2.140901577030061e+131
aF-2.140901577053231e+131
aF-2.1377933243528272e+131
aF-2.1405321016078694e+131
aF0.31594622092921076
aF-4.780052986393198e+130
aF-2.140901577053231e+131
aF-2.1377933243528272e+131
aF-2.140901577030061e+131
aF-2.1405321016078694e+131
aF0.19009754780776833
aF-4.780052986393198e+130
aF-2.1377933243528272e+131
aF-2.140901577053231e+131
aF-2.140901577030061e+131
aF-2.1405321016078694e+131
aF0.9487260061434024
aF-4.780052986393198e+130
aF-2.140901577030061e+131
aF-2.140901577053231e+131
aF-2.1377933243528272e+131
aF-2.1405321016078694e+131
aF0.5558392313635687
aF-4.780052986393198e+130
aF-2.1405321016078694e+131
aF-2.140901577053231e+131
aF-2.1377933243528272e+131
aF-2.140901577030061e+131
aF0.18725938014918386
aF-4.780052986393198e+130
aF-2.140901577053231e+131
aF-2.1377933243528272e+131
aF-2.140901577030061e+131
aF-2.1405321016078694e+131
aF0.9492185306114216
aF-4.780052986393198e+130
aF-2.1377933243528272e+131
aF-2.140901577053231e+131
aF-2.140901577030061e+131
aF-2.1405321016078694e+131
aF0.8375294129795604
aF-4.780052986393198e+130
aF-2.140901577053231e+131
aF-2.1377933243528272e+131
aF-2.140901577030061e+131
aF-2.1405321016078694e+131
aF0.008465129075771238
aF-4.780052986393198e+130
aF-2.1377933243528272e+131
aF-2.140901577053231e+131
aF-2.140901577030061e+131
aF-2.1405321016078694e+131
aF0.5680832868523988
aF-4.780052986393198e+130
aF-2.140901577053231e+131
aF-2.1377933243528272e+131
aF-2.140901577030061e+131
aF-2.1405321016078694e+131
aF0.5693100624226024
aF-4.780052986393198e+130
aF-2.1377933243528272e+131
aF-2.140901577053231e+131
aF-2.140901577030061e+131
aF-2.1405321016078694e+131
aF0.26736985147793446
aF-4.780052986393198e+130
aF-2.140901577053231e+131
aF-2.1377933243528272e+131
aF-2.140901577030061e+131
aF-2.1405321016078694e+131
aF0.5766220975692048
aF-4.780052986393198e+130
aF-2.1377933243528272e+131
aF-2.140901577053231e+131
aF-2.140901577030061e+131
aF-2.1405321016078694e+131
aF0.7774718656184697
aF-4.780052986393198e+130
aF-2.140901577030061e+131
aF-2.140901577053231e+131
aF-2.1377933243528272e+131
aF-2.1405321016078694e+131
aF0.5209898002591996
aF-4.780052986393198e+130
aF-2.140901577053231e+131
aF-2.1377933243528272e+131
aF-2.140901577030061e+131
aF-2.1405321016078694e+131
aF0.1166532651929022
aF-4.780052986393198e+130
aF-2.1377933243528272e+131
aF-2.140901577053231e+131
aF-2.140901577030061e+131
aF-2.1405321016078694e+131
aF0.1494483992337169
aF-4.780052986393198e+130
aF-2.140901577030061e+131
aF-2.140901577053231e+131
aF-2.1377933243528272e+131
aF-2.1405321016078694e+131
aF0.7562780179159788
aF-4.780052986393198e+130
aF-2.140901577053231e+131
aF-2.1377933243528272e+131
aF-2.140901577030061e+131
aF-2.1405321016078694e+131
aF0.19726495595139903
aF-4.780052986393198e+130
aF-2.1377933243528272e+131
aF-2.140901577053231e+131
aF-2.140901577030061e+131
aF-2.1405321016078694e+131
aF0.3732856964846464
aF-4.780052986393198e+130
aF-2.140901577030061e+131
aF-2.140901577053231e+131
aF-2.1377933243528272e+131
aF-2.1405321016078694e+131
aF0.6071705111352323
aF-4.780052986393198e+130
aF-2.140901577053231e+131
aF-2.1377933243528272e+131
aF-2.140901577030061e+131
aF-2.1405321016078694e+131
aF0.4678738788875081
asS'SeekBehavior'
p6
(lp7
F3.6928985203132448e+130
aF2.6828603944848717e+129
aF3.4968555937853796e+129
aF-3.147759533362691e+129
aF0.5245190440634383
aF2.6828603944848717e+129
aF-3.147759533362691e+129
aF3.4968555937853796e+129
aF0.702935004262165
aF2.6828603944848717e+129
aF3.4968555937853796e+129
aF-3.147759533362691e+129
aF3.4968555937853796e+129
aF0.009714300429120581
aF2.6828603944848717e+129
aF-3.147759533362691e+129
aF3.4968555937853796e+129
aF3.4968555937853796e+129
aF0.42487587394257664
aF2.6828603944848717e+129
aF3.4968555937853796e+129
aF3.4968555937853796e+129
aF-3.147759533362691e+129
aF0.8755097759410897
aF2.6828603944848717e+129
aF3.4968555937853796e+129
aF-3.147759533362691e+129
aF3.4968555937853796e+129
aF-3.678366268088844e+129
aF0.43900982492176466
aF2.6828603944848717e+129
aF-3.147759533362691e+129
aF3.4968555937853796e+129
aF3.4968555937853796e+129
aF-3.678366268088844e+129
aF0.5380426778117897
aF2.6828603944848717e+129
aF3.4968555937853796e+129
aF3.4968555937853796e+129
aF-3.147759533362691e+129
aF-3.678366268088844e+129
aF0.642604556137702
aF2.6828603944848717e+129
aF-3.678366268088844e+129
aF3.4968555937853796e+129
aF-3.147759533362691e+129
aF3.4968555937853796e+129
aF0.7176458962583628
aF2.6828603944848717e+129
aF3.4968555937853796e+129
aF-3.147759533362691e+129
aF3.4968555937853796e+129
aF-3.678366268088844e+129
aF0.2541587417149038
aF2.6828603944848717e+129
aF-3.147759533362691e+129
aF3.4968555937853796e+129
aF3.4968555937853796e+129
aF-3.678366268088844e+129
aF0.9034573666307164
aF2.6828603944848717e+129
aF3.4968555937853796e+129
aF-3.147759533362691e+129
aF3.4968555937853796e+129
aF-3.678366268088844e+129
aF0.3897632564066491
aF2.6828603944848717e+129
aF-3.147759533362691e+129
aF3.4968555937853796e+129
aF3.4968555937853796e+129
aF-3.678366268088844e+129
aF0.27558789274520057
aF2.6828603944848717e+129
aF3.4968555937853796e+129
aF3.4968555937853796e+129
aF-3.147759533362691e+129
aF-3.678366268088844e+129
aF0.09997078416939864
aF2.6828603944848717e+129
aF3.4968555937853796e+129
aF-3.147759533362691e+129
aF3.4968555937853796e+129
aF-3.678366268088844e+129
aF0.7885758966781194
aF2.6828603944848717e+129
aF-3.147759533362691e+129
aF3.4968555937853796e+129
aF3.4968555937853796e+129
aF-3.678366268088844e+129
aF0.7218834654170738
aF2.6828603944848717e+129
aF3.4968555937853796e+129
aF3.4968555937853796e+129
aF-3.147759533362691e+129
aF-3.678366268088844e+129
aF0.6502592921212733
aF2.6828603944848717e+129
aF-3.678366268088844e+129
aF3.4968555937853796e+129
aF-3.147759533362691e+129
aF3.4968555937853796e+129
aF0.2694681856080847
aF2.6828603944848717e+129
aF3.4968555937853796e+129
aF-3.147759533362691e+129
aF3.4968555937853796e+129
aF-3.678366268088844e+129
aF0.8610980150697074
aF2.6828603944848717e+129
aF-3.147759533362691e+129
aF3.4968555937853796e+129
aF3.4968555937853796e+129
aF-3.678366268088844e+129
aF0.753006015947016
aF2.6828603944848717e+129
aF3.4968555937853796e+129
aF-3.147759533362691e+129
aF3.4968555937853796e+129
aF-3.678366268088844e+129
aF0.14294457631570623
aF2.6828603944848717e+129
aF-3.147759533362691e+129
aF3.4968555937853796e+129
aF3.4968555937853796e+129
aF-3.678366268088844e+129
aF0.7091333078987113
aF2.6828603944848717e+129
aF3.4968555937853796e+129
aF-3.147759533362691e+129
aF3.4968555937853796e+129
aF-3.678366268088844e+129
aF0.4435876993591863
aF2.6828603944848717e+129
aF-3.147759533362691e+129
aF3.4968555937853796e+129
aF3.4968555937853796e+129
aF-3.678366268088844e+129
aF0.19034463210271402
aF2.6828603944848717e+129
aF3.4968555937853796e+129
aF-3.147759533362691e+129
aF3.4968555937853796e+129
aF-3.678366268088844e+129
aF0.4659907104253401
aF2.6828603944848717e+129
aF-3.147759533362691e+129
aF3.4968555937853796e+129
aF3.4968555937853796e+129
aF-3.678366268088844e+129
aF0.2561589384746785
aF2.6828603944848717e+129
aF3.4968555937853796e+129
aF3.4968555937853796e+129
aF-3.147759533362691e+129
aF-3.678366268088844e+129
aF0.34374725840878595
aF2.6828603944848717e+129
aF3.4968555937853796e+129
aF-3.147759533362691e+129
aF3.4968555937853796e+129
aF-3.678366268088844e+129
aF0.6156599944489994
aF2.6828603944848717e+129
aF-3.147759533362691e+129
aF3.4968555937853796e+129
aF3.4968555937853796e+129
aF-3.678366268088844e+129
aF0.8072336812357372
aF2.6828603944848717e+129
aF3.4968555937853796e+129
aF3.4968555937853796e+129
aF-3.147759533362691e+129
aF-3.678366268088844e+129
aF0.42582170741554015
aF2.6828603944848717e+129
aF3.4968555937853796e+129
aF-3.147759533362691e+129
aF3.4968555937853796e+129
aF-3.678366268088844e+129
aF0.9514860836382277
aF2.6828603944848717e+129
aF-3.147759533362691e+129
aF3.4968555937853796e+129
aF3.4968555937853796e+129
aF-3.678366268088844e+129
aF0.4413124760603122
aF2.6828603944848717e+129
aF3.4968555937853796e+129
aF3.4968555937853796e+129
aF-3.147759533362691e+129
aF-3.678366268088844e+129
aF0.43137570008688453
aF2.6828603944848717e+129
aF3.4968555937853796e+129
aF-3.147759533362691e+129
aF3.4968555937853796e+129
aF-3.678366268088844e+129
aF0.4603008768101955
assI2
(dp8
S'FleeBehavior'
p9
(lp10
F-2.7615883361952983e+141
aF6.339249527349177e+139
aF-3.9759408788166736e+141
aF-6.286886462186964e+141
aF0.7385241238685226
aF6.339249527349177e+139
aF-6.286886462186964e+141
aF-3.9759408788166736e+141
aF0.9288803880211233
aF6.339249527349177e+139
aF-3.9759408788166736e+141
aF-6.286886462186964e+141
aF-3.975939119449088e+141
aF0.11700899234634099
aF6.339249527349177e+139
aF-6.286886462186964e+141
aF-3.9759408788166736e+141
aF-3.975939119449088e+141
aF0.9047731735831349
aF6.339249527349177e+139
aF-3.975939119449088e+141
aF-3.9759408788166736e+141
aF-6.286886462186964e+141
aF0.05660059369393833
aF6.339249527349177e+139
aF-3.9759408788166736e+141
aF-6.286886462186964e+141
aF-3.975939119449088e+141
aF-6.286884579657187e+141
aF0.054200648526174455
aF6.339249527349177e+139
aF-6.286886462186964e+141
aF-3.9759408788166736e+141
aF-3.975939119449088e+141
aF-6.286884579657187e+141
aF0.6966406499632524
aF6.339249527349177e+139
aF-3.975939119449088e+141
aF-3.9759408788166736e+141
aF-6.286886462186964e+141
aF-6.286884579657187e+141
aF0.9699703336230501
aF6.339249527349177e+139
aF-6.286884579657187e+141
aF-3.9759408788166736e+141
aF-6.286886462186964e+141
aF-3.975939119449088e+141
aF0.35199309717871174
aF6.339249527349177e+139
aF-3.9759408788166736e+141
aF-6.286886462186964e+141
aF-3.975939119449088e+141
aF-6.286884579657187e+141
aF0.9188249173639678
aF6.339249527349177e+139
aF-6.286886462186964e+141
aF-3.9759408788166736e+141
aF-3.975939119449088e+141
aF-6.286884579657187e+141
aF0.4038310656403117
aF6.339249527349177e+139
aF-3.9759408788166736e+141
aF-6.286886462186964e+141
aF-3.975939119449088e+141
aF-6.286884579657187e+141
aF0.7999252627231677
aF6.339249527349177e+139
aF-6.286886462186964e+141
aF-3.9759408788166736e+141
aF-3.975939119449088e+141
aF-6.286884579657187e+141
aF0.35771506284949117
aF6.339249527349177e+139
aF-3.975939119449088e+141
aF-3.9759408788166736e+141
aF-6.286886462186964e+141
aF-6.286884579657187e+141
aF0.7375412263213833
aF6.339249527349177e+139
aF-3.9759408788166736e+141
aF-6.286886462186964e+141
aF-3.975939119449088e+141
aF-6.286884579657187e+141
aF0.31843144804706314
aF6.339249527349177e+139
aF-6.286886462186964e+141
aF-3.9759408788166736e+141
aF-3.975939119449088e+141
aF-6.286884579657187e+141
aF0.12761033454267257
aF6.339249527349177e+139
aF-3.975939119449088e+141
aF-3.9759408788166736e+141
aF-6.286886462186964e+141
aF-6.286884579657187e+141
aF0.6824896647035573
aF6.339249527349177e+139
aF-6.286884579657187e+141
aF-3.9759408788166736e+141
aF-6.286886462186964e+141
aF-3.975939119449088e+141
aF0.326360792277683
aF6.339249527349177e+139
aF-3.9759408788166736e+141
aF-6.286886462186964e+141
aF-3.975939119449088e+141
aF-6.286884579657187e+141
aF0.23020985450055953
aF6.339249527349177e+139
aF-6.286886462186964e+141
aF-3.9759408788166736e+141
aF-3.975939119449088e+141
aF-6.286884579657187e+141
aF0.5629602014902755
aF6.339249527349177e+139
aF-3.9759408788166736e+141
aF-6.286886462186964e+141
aF-3.975939119449088e+141
aF-6.286884579657187e+141
aF0.9824377374389864
aF6.339249527349177e+139
aF-6.286886462186964e+141
aF-3.9759408788166736e+141
aF-3.975939119449088e+141
aF-6.286884579657187e+141
aF0.416781014210061
aF6.339249527349177e+139
aF-3.9759408788166736e+141
aF-6.286886462186964e+141
aF-3.975939119449088e+141
aF-6.286884579657187e+141
aF0.3387429576457176
aF6.339249527349177e+139
aF-6.286886462186964e+141
aF-3.9759408788166736e+141
aF-3.975939119449088e+141
aF-6.286884579657187e+141
aF0.7630263359611845
aF6.339249527349177e+139
aF-3.9759408788166736e+141
aF-6.286886462186964e+141
aF-3.975939119449088e+141
aF-6.286884579657187e+141
aF0.3251423930400682
aF6.339249527349177e+139
aF-6.286886462186964e+141
aF-3.9759408788166736e+141
aF-3.975939119449088e+141
aF-6.286884579657187e+141
aF0.9723077502747952
aF6.339249527349177e+139
aF-3.975939119449088e+141
aF-3.9759408788166736e+141
aF-6.286886462186964e+141
aF-6.286884579657187e+141
aF0.28614692317724655
aF6.339249527349177e+139
aF-3.9759408788166736e+141
aF-6.286886462186964e+141
aF-3.975939119449088e+141
aF-6.286884579657187e+141
aF0.3523507080505469
aF6.339249527349177e+139
aF-6.286886462186964e+141
aF-3.9759408788166736e+141
aF-3.975939119449088e+141
aF-6.286884579657187e+141
aF0.16451672642764092
aF6.339249527349177e+139
aF-3.975939119449088e+141
aF-3.9759408788166736e+141
aF-6.286886462186964e+141
aF-6.286884579657187e+141
aF0.8868698722764793
aF6.339249527349177e+139
aF-3.9759408788166736e+141
aF-6.286886462186964e+141
aF-3.975939119449088e+141
aF-6.286884579657187e+141
aF0.9250416722217445
aF6.339249527349177e+139
aF-6.286886462186964e+141
aF-3.9759408788166736e+141
aF-3.975939119449088e+141
aF-6.286884579657187e+141
aF0.07347566506489189
aF6.339249527349177e+139
aF-3.975939119449088e+141
aF-3.9759408788166736e+141
aF-6.286886462186964e+141
aF-6.286884579657187e+141
aF0.6483630105775154
aF6.339249527349177e+139
aF-3.9759408788166736e+141
aF-6.286886462186964e+141
aF-3.975939119449088e+141
aF-6.286884579657187e+141
aF0.6982994807021876
aF6.339249527349177e+139
aF-6.286886462186964e+141
aF-3.9759408788166736e+141
aF-3.975939119449088e+141
aF-6.286884579657187e+141
aF0.5772664314970564
asS'PursueBehavior'
p11
(lp12
F-2.8661058361045542e+140
aF-4.3238901056921613e+139
aF4.6544642871320626e+139
aF-6.405336115756393e+140
aF0.19613981580000084
aF-4.3238901056921613e+139
aF-6.405336115756393e+140
aF4.6544642871320626e+139
aF0.7214011035208875
aF-4.3238901056921613e+139
aF4.6544642871320626e+139
aF-6.405336115756393e+140
aF-6.2615887689525535e+140
aF0.7792913025827589
aF-4.3238901056921613e+139
aF-6.405336115756393e+140
aF4.6544642871320626e+139
aF-6.2615887689525535e+140
aF0.9701326702709643
aF-4.3238901056921613e+139
aF-6.2615887689525535e+140
aF4.6544642871320626e+139
aF-6.405336115756393e+140
aF0.8288541563204892
aF-4.3238901056921613e+139
aF4.6544642871320626e+139
aF-6.405336115756393e+140
aF-6.2615887689525535e+140
aF-5.032005409024468e+140
aF0.3936632783491577
aF-4.3238901056921613e+139
aF-6.405336115756393e+140
aF4.6544642871320626e+139
aF-6.2615887689525535e+140
aF-5.032005409024468e+140
aF0.6747605174970505
aF-4.3238901056921613e+139
aF-6.2615887689525535e+140
aF4.6544642871320626e+139
aF-6.405336115756393e+140
aF-5.032005409024468e+140
aF0.9873086816982841
aF-4.3238901056921613e+139
aF-5.032005409024468e+140
aF4.6544642871320626e+139
aF-6.405336115756393e+140
aF-6.2615887689525535e+140
aF0.5636351868842664
aF-4.3238901056921613e+139
aF4.6544642871320626e+139
aF-6.405336115756393e+140
aF-6.2615887689525535e+140
aF-5.032005409024468e+140
aF0.7905221419315286
aF-4.3238901056921613e+139
aF-6.405336115756393e+140
aF4.6544642871320626e+139
aF-6.2615887689525535e+140
aF-5.032005409024468e+140
aF0.6137663265664187
aF-4.3238901056921613e+139
aF4.6544642871320626e+139
aF-6.405336115756393e+140
aF-6.2615887689525535e+140
aF-5.032005409024468e+140
aF0.6238010367035802
aF-4.3238901056921613e+139
aF-6.405336115756393e+140
aF4.6544642871320626e+139
aF-6.2615887689525535e+140
aF-5.032005409024468e+140
aF0.33731064821903867
aF-4.3238901056921613e+139
aF-6.2615887689525535e+140
aF4.6544642871320626e+139
aF-6.405336115756393e+140
aF-5.032005409024468e+140
aF0.9120503884944465
aF-4.3238901056921613e+139
aF4.6544642871320626e+139
aF-6.405336115756393e+140
aF-6.2615887689525535e+140
aF-5.032005409024468e+140
aF0.7476086786791305
aF-4.3238901056921613e+139
aF-6.405336115756393e+140
aF4.6544642871320626e+139
aF-6.2615887689525535e+140
aF-5.032005409024468e+140
aF0.44662561924108435
aF-4.3238901056921613e+139
aF-6.2615887689525535e+140
aF4.6544642871320626e+139
aF-6.405336115756393e+140
aF-5.032005409024468e+140
aF0.6328632613894524
aF-4.3238901056921613e+139
aF-5.032005409024468e+140
aF4.6544642871320626e+139
aF-6.405336115756393e+140
aF-6.2615887689525535e+140
aF0.5764646954863027
aF-4.3238901056921613e+139
aF4.6544642871320626e+139
aF-6.405336115756393e+140
aF-6.2615887689525535e+140
aF-5.032005409024468e+140
aF0.7787116131502927
aF-4.3238901056921613e+139
aF-6.405336115756393e+140
aF4.6544642871320626e+139
aF-6.2615887689525535e+140
aF-5.032005409024468e+140
aF0.9407114597443401
aF-4.3238901056921613e+139
aF4.6544642871320626e+139
aF-6.405336115756393e+140
aF-6.2615887689525535e+140
aF-5.032005409024468e+140
aF0.8200081168920137
aF-4.3238901056921613e+139
aF-6.405336115756393e+140
aF4.6544642871320626e+139
aF-6.2615887689525535e+140
aF-5.032005409024468e+140
aF0.24937293554965645
aF-4.3238901056921613e+139
aF4.6544642871320626e+139
aF-6.405336115756393e+140
aF-6.2615887689525535e+140
aF-5.032005409024468e+140
aF0.16275218990375573
aF-4.3238901056921613e+139
aF-6.405336115756393e+140
aF4.6544642871320626e+139
aF-6.2615887689525535e+140
aF-5.032005409024468e+140
aF0.23819530127117972
aF-4.3238901056921613e+139
aF4.6544642871320626e+139
aF-6.405336115756393e+140
aF-6.2615887689525535e+140
aF-5.032005409024468e+140
aF0.7651913281126733
aF-4.3238901056921613e+139
aF-6.405336115756393e+140
aF4.6544642871320626e+139
aF-6.2615887689525535e+140
aF-5.032005409024468e+140
aF0.270036375683384
aF-4.3238901056921613e+139
aF-6.2615887689525535e+140
aF4.6544642871320626e+139
aF-6.405336115756393e+140
aF-5.032005409024468e+140
aF0.15611671546716077
aF-4.3238901056921613e+139
aF4.6544642871320626e+139
aF-6.405336115756393e+140
aF-6.2615887689525535e+140
aF-5.032005409024468e+140
aF0.8616702925212866
aF-4.3238901056921613e+139
aF-6.405336115756393e+140
aF4.6544642871320626e+139
aF-6.2615887689525535e+140
aF-5.032005409024468e+140
aF0.6046442132704152
aF-4.3238901056921613e+139
aF-6.2615887689525535e+140
aF4.6544642871320626e+139
aF-6.405336115756393e+140
aF-5.032005409024468e+140
aF0.39437976435323563
aF-4.3238901056921613e+139
aF4.6544642871320626e+139
aF-6.405336115756393e+140
aF-6.2615887689525535e+140
aF-5.032005409024468e+140
aF0.00743278959523741
aF-4.3238901056921613e+139
aF-6.405336115756393e+140
aF4.6544642871320626e+139
aF-6.2615887689525535e+140
aF-5.032005409024468e+140
aF0.9814268994520206
aF-4.3238901056921613e+139
aF-6.2615887689525535e+140
aF4.6544642871320626e+139
aF-6.405336115756393e+140
aF-5.032005409024468e+140
aF0.03334252636516688
aF-4.3238901056921613e+139
aF4.6544642871320626e+139
aF-6.405336115756393e+140
aF-6.2615887689525535e+140
aF-5.032005409024468e+140
aF0.2035781018311924
aF-4.3238901056921613e+139
aF-6.405336115756393e+140
aF4.6544642871320626e+139
aF-6.2615887689525535e+140
aF-5.032005409024468e+140
aF0.11854926959690049
asS'SeekBehavior'
p13
(lp14
F-1.2711612387446375e+141
aF-1.5163158520787613e+140
aF-1.2365689714802062e+139
aF1.6920113009996427e+140
aF0.4718774295619842
aF-1.5163158520787613e+140
aF1.6920113009996427e+140
aF-1.2365689714802062e+139
aF0.3729895138232273
aF-1.5163158520787613e+140
aF-1.2365689714802062e+139
aF1.6920113009996427e+140
aF1.7029664110614314e+140
aF0.5783789386203262
aF-1.5163158520787613e+140
aF1.6920113009996427e+140
aF-1.2365689714802062e+139
aF1.7029664110614314e+140
aF0.3463303407557201
aF-1.5163158520787613e+140
aF1.7029664110614314e+140
aF-1.2365689714802062e+139
aF1.6920113009996427e+140
aF0.6746447561807514
aF-1.5163158520787613e+140
aF-1.2365689714802062e+139
aF1.6920113009996427e+140
aF1.7029664110614314e+140
aF1.721554584972252e+140
aF0.048440004082292765
aF-1.5163158520787613e+140
aF1.6920113009996427e+140
aF-1.2365689714802062e+139
aF1.7029664110614314e+140
aF1.721554584972252e+140
aF0.973725564387546
aF-1.5163158520787613e+140
aF1.7029664110614314e+140
aF-1.2365689714802062e+139
aF1.6920113009996427e+140
aF1.721554584972252e+140
aF0.0011579026690479166
aF-1.5163158520787613e+140
aF1.721554584972252e+140
aF-1.2365689714802062e+139
aF1.6920113009996427e+140
aF1.7029664110614314e+140
aF0.3959849062326679
aF-1.5163158520787613e+140
aF-1.2365689714802062e+139
aF1.6920113009996427e+140
aF1.7029664110614314e+140
aF1.721554584972252e+140
aF0.007349029162208143
aF-1.5163158520787613e+140
aF1.6920113009996427e+140
aF-1.2365689714802062e+139
aF1.7029664110614314e+140
aF1.721554584972252e+140
aF0.7588806543861462
aF-1.5163158520787613e+140
aF-1.2365689714802062e+139
aF1.6920113009996427e+140
aF1.7029664110614314e+140
aF1.721554584972252e+140
aF0.8295083190811741
aF-1.5163158520787613e+140
aF1.6920113009996427e+140
aF-1.2365689714802062e+139
aF1.7029664110614314e+140
aF1.721554584972252e+140
aF0.5641812533716293
aF-1.5163158520787613e+140
aF1.7029664110614314e+140
aF-1.2365689714802062e+139
aF1.6920113009996427e+140
aF1.721554584972252e+140
aF0.3224116213019754
aF-1.5163158520787613e+140
aF-1.2365689714802062e+139
aF1.6920113009996427e+140
aF1.7029664110614314e+140
aF1.721554584972252e+140
aF0.7727106042565302
aF-1.5163158520787613e+140
aF1.6920113009996427e+140
aF-1.2365689714802062e+139
aF1.7029664110614314e+140
aF1.721554584972252e+140
aF0.5262587189184463
aF-1.5163158520787613e+140
aF1.7029664110614314e+140
aF-1.2365689714802062e+139
aF1.6920113009996427e+140
aF1.721554584972252e+140
aF0.41006329489296867
aF-1.5163158520787613e+140
aF1.721554584972252e+140
aF-1.2365689714802062e+139
aF1.6920113009996427e+140
aF1.7029664110614314e+140
aF0.8398051303608242
aF-1.5163158520787613e+140
aF-1.2365689714802062e+139
aF1.6920113009996427e+140
aF1.7029664110614314e+140
aF1.721554584972252e+140
aF0.2356025167177056
aF-1.5163158520787613e+140
aF1.6920113009996427e+140
aF-1.2365689714802062e+139
aF1.7029664110614314e+140
aF1.721554584972252e+140
aF0.12523219935701912
aF-1.5163158520787613e+140
aF-1.2365689714802062e+139
aF1.6920113009996427e+140
aF1.7029664110614314e+140
aF1.721554584972252e+140
aF0.6738788838396897
aF-1.5163158520787613e+140
aF1.6920113009996427e+140
aF-1.2365689714802062e+139
aF1.7029664110614314e+140
aF1.721554584972252e+140
aF0.35047400983736743
aF-1.5163158520787613e+140
aF-1.2365689714802062e+139
aF1.6920113009996427e+140
aF1.7029664110614314e+140
aF1.721554584972252e+140
aF0.5413663759178987
aF-1.5163158520787613e+140
aF1.6920113009996427e+140
aF-1.2365689714802062e+139
aF1.7029664110614314e+140
aF1.721554584972252e+140
aF0.04610771390940471
aF-1.5163158520787613e+140
aF-1.2365689714802062e+139
aF1.6920113009996427e+140
aF1.7029664110614314e+140
aF1.721554584972252e+140
aF0.1165791223276128
aF-1.5163158520787613e+140
aF1.6920113009996427e+140
aF-1.2365689714802062e+139
aF1.7029664110614314e+140
aF1.721554584972252e+140
aF0.3633998001651334
aF-1.5163158520787613e+140
aF1.7029664110614314e+140
aF-1.2365689714802062e+139
aF1.6920113009996427e+140
aF1.721554584972252e+140
aF0.2831317352278516
aF-1.5163158520787613e+140
aF-1.2365689714802062e+139
aF1.6920113009996427e+140
aF1.7029664110614314e+140
aF1.721554584972252e+140
aF0.5047825179366138
aF-1.5163158520787613e+140
aF1.6920113009996427e+140
aF-1.2365689714802062e+139
aF1.7029664110614314e+140
aF1.721554584972252e+140
aF0.3604752263227752
aF-1.5163158520787613e+140
aF1.7029664110614314e+140
aF-1.2365689714802062e+139
aF1.6920113009996427e+140
aF1.721554584972252e+140
aF0.20559051729825528
aF-1.5163158520787613e+140
aF-1.2365689714802062e+139
aF1.6920113009996427e+140
aF1.7029664110614314e+140
aF1.721554584972252e+140
aF0.20242996157441384
aF-1.5163158520787613e+140
aF1.6920113009996427e+140
aF-1.2365689714802062e+139
aF1.7029664110614314e+140
aF1.721554584972252e+140
aF0.314413500632854
aF-1.5163158520787613e+140
aF1.7029664110614314e+140
aF-1.2365689714802062e+139
aF1.6920113009996427e+140
aF1.721554584972252e+140
aF0.32963306916127966
aF-1.5163158520787613e+140
aF-1.2365689714802062e+139
aF1.6920113009996427e+140
aF1.7029664110614314e+140
aF1.721554584972252e+140
aF0.278154954122809
aF-1.5163158520787613e+140
aF1.6920113009996427e+140
aF-1.2365689714802062e+139
aF1.7029664110614314e+140
aF1.721554584972252e+140
aF0.5386007663926193
assI3
(dp15
S'FleeBehavior'
p16
(lp17
F1.6396666543012784e+138
aF8.144498285648879e+136
aF-1.9353123927093234e+137
aF-1.9353123927095832e+137
aF0.08088419935740365
aF8.144498285648879e+136
aF-1.9353123927095832e+137
aF-1.9353123927093234e+137
aF0.08371507902381126
aF8.144498285648879e+136
aF-1.9353123927093234e+137
aF-1.9353123927095832e+137
aF1.4524498681369994e+138
aF0.33639179072594294
aF8.144498285648879e+136
aF-1.9353123927095832e+137
aF-1.9353123927093234e+137
aF1.4524498681369994e+138
aF0.15034431602806353
aF8.144498285648879e+136
aF1.4524498681369994e+138
aF-1.9353123927093234e+137
aF-1.9353123927095832e+137
aF0.9740129597140391
aF8.144498285648879e+136
aF-1.9353123927093234e+137
aF-1.9353123927095832e+137
aF1.4524498681369994e+138
aF1.4958801382994985e+138
aF0.23750842102441483
aF8.144498285648879e+136
aF-1.9353123927095832e+137
aF-1.9353123927093234e+137
aF1.4524498681369994e+138
aF1.4958801382994985e+138
aF0.7107219341895524
aF8.144498285648879e+136
aF1.4524498681369994e+138
aF-1.9353123927093234e+137
aF-1.9353123927095832e+137
aF1.4958801382994985e+138
aF0.6322062650776415
aF8.144498285648879e+136
aF1.4958801382994985e+138
aF-1.9353123927093234e+137
aF-1.9353123927095832e+137
aF1.4524498681369994e+138
aF0.49009503249689534
aF8.144498285648879e+136
aF-1.9353123927093234e+137
aF-1.9353123927095832e+137
aF1.4524498681369994e+138
aF1.4958801382994985e+138
aF0.5921066846196202
aF8.144498285648879e+136
aF-1.9353123927095832e+137
aF-1.9353123927093234e+137
aF1.4524498681369994e+138
aF1.4958801382994985e+138
aF0.6226943744987341
aF8.144498285648879e+136
aF-1.9353123927093234e+137
aF-1.9353123927095832e+137
aF1.4524498681369994e+138
aF1.4958801382994985e+138
aF0.026357819423674433
aF8.144498285648879e+136
aF-1.9353123927095832e+137
aF-1.9353123927093234e+137
aF1.4524498681369994e+138
aF1.4958801382994985e+138
aF0.18458432256190005
aF8.144498285648879e+136
aF1.4524498681369994e+138
aF-1.9353123927093234e+137
aF-1.9353123927095832e+137
aF1.4958801382994985e+138
aF0.04689744334593782
aF8.144498285648879e+136
aF-1.9353123927093234e+137
aF-1.9353123927095832e+137
aF1.4524498681369994e+138
aF1.4958801382994985e+138
aF0.8104108642740782
aF8.144498285648879e+136
aF-1.9353123927095832e+137
aF-1.9353123927093234e+137
aF1.4524498681369994e+138
aF1.4958801382994985e+138
aF0.5152062610099531
aF8.144498285648879e+136
aF1.4524498681369994e+138
aF-1.9353123927093234e+137
aF-1.9353123927095832e+137
aF1.4958801382994985e+138
aF0.39437732960103145
aF8.144498285648879e+136
aF1.4958801382994985e+138
aF-1.9353123927093234e+137
aF-1.9353123927095832e+137
aF1.4524498681369994e+138
aF0.02930241341785811
aF8.144498285648879e+136
aF-1.9353123927093234e+137
aF-1.9353123927095832e+137
aF1.4524498681369994e+138
aF1.4958801382994985e+138
aF0.05332196669419742
aF8.144498285648879e+136
aF-1.9353123927095832e+137
aF-1.9353123927093234e+137
aF1.4524498681369994e+138
aF1.4958801382994985e+138
aF0.3034660482055278
aF8.144498285648879e+136
aF-1.9353123927093234e+137
aF-1.9353123927095832e+137
aF1.4524498681369994e+138
aF1.4958801382994985e+138
aF0.6048116546424807
aF8.144498285648879e+136
aF-1.9353123927095832e+137
aF-1.9353123927093234e+137
aF1.4524498681369994e+138
aF1.4958801382994985e+138
aF0.5062213671037002
aF8.144498285648879e+136
aF-1.9353123927093234e+137
aF-1.9353123927095832e+137
aF1.4524498681369994e+138
aF1.4958801382994985e+138
aF0.005288351785037393
aF8.144498285648879e+136
aF-1.9353123927095832e+137
aF-1.9353123927093234e+137
aF1.4524498681369994e+138
aF1.4958801382994985e+138
aF0.23033133913045079
aF8.144498285648879e+136
aF-1.9353123927093234e+137
aF-1.9353123927095832e+137
aF1.4524498681369994e+138
aF1.4958801382994985e+138
aF0.4540320410946965
aF8.144498285648879e+136
aF-1.9353123927095832e+137
aF-1.9353123927093234e+137
aF1.4524498681369994e+138
aF1.4958801382994985e+138
aF0.008671608606414916
aF8.144498285648879e+136
aF1.4524498681369994e+138
aF-1.9353123927093234e+137
aF-1.9353123927095832e+137
aF1.4958801382994985e+138
aF0.45205246977207925
aF8.144498285648879e+136
aF-1.9353123927093234e+137
aF-1.9353123927095832e+137
aF1.4524498681369994e+138
aF1.4958801382994985e+138
aF0.6287741232453983
aF8.144498285648879e+136
aF-1.9353123927095832e+137
aF-1.9353123927093234e+137
aF1.4524498681369994e+138
aF1.4958801382994985e+138
aF0.5987611404927722
aF8.144498285648879e+136
aF1.4524498681369994e+138
aF-1.9353123927093234e+137
aF-1.9353123927095832e+137
aF1.4958801382994985e+138
aF0.36024417834414324
aF8.144498285648879e+136
aF-1.9353123927093234e+137
aF-1.9353123927095832e+137
aF1.4524498681369994e+138
aF1.4958801382994985e+138
aF0.7501352684383932
aF8.144498285648879e+136
aF-1.9353123927095832e+137
aF-1.9353123927093234e+137
aF1.4524498681369994e+138
aF1.4958801382994985e+138
aF0.9541439409546892
aF8.144498285648879e+136
aF1.4524498681369994e+138
aF-1.9353123927093234e+137
aF-1.9353123927095832e+137
aF1.4958801382994985e+138
aF0.5301905241116045
aF8.144498285648879e+136
aF-1.9353123927093234e+137
aF-1.9353123927095832e+137
aF1.4524498681369994e+138
aF1.4958801382994985e+138
aF0.1255922434442247
aF8.144498285648879e+136
aF-1.9353123927095832e+137
aF-1.9353123927093234e+137
aF1.4524498681369994e+138
aF1.4958801382994985e+138
aF0.7944862945923943
aF8.144498285648879e+136
aF1.4524498681369994e+138
aF-1.9353123927093234e+137
aF-1.9353123927095832e+137
aF1.4958801382994985e+138
aF0.17746170170052866
asS'PursueBehavior'
p18
(lp19
F-2.4140660399291664e+140
aF-4.64897309266695e+138
aF-2.416176713331572e+140
aF-2.4164478410402407e+140
aF0.8397152442380322
aF-4.64897309266695e+138
aF-2.4164478410402407e+140
aF-2.416176713331572e+140
aF0.3961385680566082
aF-4.64897309266695e+138
aF-2.416176713331572e+140
aF-2.4164478410402407e+140
aF-2.4242948048707316e+140
aF0.1190537464571525
aF-4.64897309266695e+138
aF-2.4164478410402407e+140
aF-2.416176713331572e+140
aF-2.4242948048707316e+140
aF0.6839229979120719
aF-4.64897309266695e+138
aF-2.4242948048707316e+140
aF-2.416176713331572e+140
aF-2.4164478410402407e+140
aF0.27816749420870257
aF-4.64897309266695e+138
aF-2.416176713331572e+140
aF-2.4164478410402407e+140
aF-2.4242948048707316e+140
aF-2.4245582308628986e+140
aF0.1284873916814704
aF-4.64897309266695e+138
aF-2.4164478410402407e+140
aF-2.416176713331572e+140
aF-2.4242948048707316e+140
aF-2.4245582308628986e+140
aF0.5090511598229837
aF-4.64897309266695e+138
aF-2.4242948048707316e+140
aF-2.416176713331572e+140
aF-2.4164478410402407e+140
aF-2.4245582308628986e+140
aF0.4872611129696074
aF-4.64897309266695e+138
aF-2.4245582308628986e+140
aF-2.416176713331572e+140
aF-2.4164478410402407e+140
aF-2.4242948048707316e+140
aF0.7729179209282576
aF-4.64897309266695e+138
aF-2.416176713331572e+140
aF-2.4164478410402407e+140
aF-2.4242948048707316e+140
aF-2.4245582308628986e+140
aF0.2502867866408992
aF-4.64897309266695e+138
aF-2.4164478410402407e+140
aF-2.416176713331572e+140
aF-2.4242948048707316e+140
aF-2.4245582308628986e+140
aF0.6564722601193876
aF-4.64897309266695e+138
aF-2.416176713331572e+140
aF-2.4164478410402407e+140
aF-2.4242948048707316e+140
aF-2.4245582308628986e+140
aF0.24215657751180075
aF-4.64897309266695e+138
aF-2.4164478410402407e+140
aF-2.416176713331572e+140
aF-2.4242948048707316e+140
aF-2.4245582308628986e+140
aF0.7441115385972501
aF-4.64897309266695e+138
aF-2.4242948048707316e+140
aF-2.416176713331572e+140
aF-2.4164478410402407e+140
aF-2.4245582308628986e+140
aF0.7613483052623979
aF-4.64897309266695e+138
aF-2.416176713331572e+140
aF-2.4164478410402407e+140
aF-2.4242948048707316e+140
aF-2.4245582308628986e+140
aF0.9200708831922728
aF-4.64897309266695e+138
aF-2.4164478410402407e+140
aF-2.416176713331572e+140
aF-2.4242948048707316e+140
aF-2.4245582308628986e+140
aF0.26322208011482184
aF-4.64897309266695e+138
aF-2.4242948048707316e+140
aF-2.416176713331572e+140
aF-2.4164478410402407e+140
aF-2.4245582308628986e+140
aF0.05101393108266694
aF-4.64897309266695e+138
aF-2.4245582308628986e+140
aF-2.416176713331572e+140
aF-2.4164478410402407e+140
aF-2.4242948048707316e+140
aF0.6488037722232574
aF-4.64897309266695e+138
aF-2.416176713331572e+140
aF-2.4164478410402407e+140
aF-2.4242948048707316e+140
aF-2.4245582308628986e+140
aF0.7216190873599929
aF-4.64897309266695e+138
aF-2.4164478410402407e+140
aF-2.416176713331572e+140
aF-2.4242948048707316e+140
aF-2.4245582308628986e+140
aF0.24456550306285518
aF-4.64897309266695e+138
aF-2.416176713331572e+140
aF-2.4164478410402407e+140
aF-2.4242948048707316e+140
aF-2.4245582308628986e+140
aF0.9299011591180347
aF-4.64897309266695e+138
aF-2.4164478410402407e+140
aF-2.416176713331572e+140
aF-2.4242948048707316e+140
aF-2.4245582308628986e+140
aF0.8133529878391065
aF-4.64897309266695e+138
aF-2.416176713331572e+140
aF-2.4164478410402407e+140
aF-2.4242948048707316e+140
aF-2.4245582308628986e+140
aF0.40186192698646095
aF-4.64897309266695e+138
aF-2.4164478410402407e+140
aF-2.416176713331572e+140
aF-2.4242948048707316e+140
aF-2.4245582308628986e+140
aF0.246649437001219
aF-4.64897309266695e+138
aF-2.416176713331572e+140
aF-2.4164478410402407e+140
aF-2.4242948048707316e+140
aF-2.4245582308628986e+140
aF0.3134710425596823
aF-4.64897309266695e+138
aF-2.4164478410402407e+140
aF-2.416176713331572e+140
aF-2.4242948048707316e+140
aF-2.4245582308628986e+140
aF0.07743667572558799
aF-4.64897309266695e+138
aF-2.4242948048707316e+140
aF-2.416176713331572e+140
aF-2.4164478410402407e+140
aF-2.4245582308628986e+140
aF0.25766174076290116
aF-4.64897309266695e+138
aF-2.416176713331572e+140
aF-2.4164478410402407e+140
aF-2.4242948048707316e+140
aF-2.4245582308628986e+140
aF0.6930919949146069
aF-4.64897309266695e+138
aF-2.4164478410402407e+140
aF-2.416176713331572e+140
aF-2.4242948048707316e+140
aF-2.4245582308628986e+140
aF0.9784037534672926
aF-4.64897309266695e+138
aF-2.4242948048707316e+140
aF-2.416176713331572e+140
aF-2.4164478410402407e+140
aF-2.4245582308628986e+140
aF0.2703024753398856
aF-4.64897309266695e+138
aF-2.416176713331572e+140
aF-2.4164478410402407e+140
aF-2.4242948048707316e+140
aF-2.4245582308628986e+140
aF0.0875608045959011
aF-4.64897309266695e+138
aF-2.4164478410402407e+140
aF-2.416176713331572e+140
aF-2.4242948048707316e+140
aF-2.4245582308628986e+140
aF0.7430709707166103
aF-4.64897309266695e+138
aF-2.4242948048707316e+140
aF-2.416176713331572e+140
aF-2.4164478410402407e+140
aF-2.4245582308628986e+140
aF0.5656795596946146
aF-4.64897309266695e+138
aF-2.416176713331572e+140
aF-2.4164478410402407e+140
aF-2.4242948048707316e+140
aF-2.4245582308628986e+140
aF0.296148909294209
aF-4.64897309266695e+138
aF-2.4164478410402407e+140
aF-2.416176713331572e+140
aF-2.4242948048707316e+140
aF-2.4245582308628986e+140
aF0.9629295268271798
aF-4.64897309266695e+138
aF-2.4242948048707316e+140
aF-2.416176713331572e+140
aF-2.4164478410402407e+140
aF-2.4245582308628986e+140
aF0.3831907845931043
asS'SeekBehavior'
p20
(lp21
F-1.976381744622514e+140
aF-8.55049109998143e+140
aF-4.997664846448502e+140
aF-4.997664846448502e+140
aF0.5794866053640674
aF-8.55049109998143e+140
aF-4.997664846448502e+140
aF-4.997664846448502e+140
aF0.34895461456058663
aF-8.55049109998143e+140
aF-4.997664846448502e+140
aF-4.997664846448502e+140
aF-4.997664846448502e+140
aF0.784647357745123
aF-8.55049109998143e+140
aF-4.997664846448502e+140
aF-4.997664846448502e+140
aF-4.997664846448502e+140
aF0.6464673953936916
aF-8.55049109998143e+140
aF-4.997664846448502e+140
aF-4.997664846448502e+140
aF-4.997664846448502e+140
aF0.020097220824766504
aF-8.55049109998143e+140
aF-4.997664846448502e+140
aF-4.997664846448502e+140
aF-4.997664846448502e+140
aF-4.997664846440437e+140
aF0.3023804467831702
aF-8.55049109998143e+140
aF-4.997664846448502e+140
aF-4.997664846448502e+140
aF-4.997664846448502e+140
aF-4.997664846440437e+140
aF0.1753625951803014
aF-8.55049109998143e+140
aF-4.997664846448502e+140
aF-4.997664846448502e+140
aF-4.997664846448502e+140
aF-4.997664846440437e+140
aF0.46016989943233955
aF-8.55049109998143e+140
aF-4.997664846440437e+140
aF-4.997664846448502e+140
aF-4.997664846448502e+140
aF-4.997664846448502e+140
aF0.736143136676196
aF-8.55049109998143e+140
aF-4.997664846448502e+140
aF-4.997664846448502e+140
aF-4.997664846448502e+140
aF-4.997664846440437e+140
aF0.26265013169830786
aF-8.55049109998143e+140
aF-4.997664846448502e+140
aF-4.997664846448502e+140
aF-4.997664846448502e+140
aF-4.997664846440437e+140
aF0.6554852372464396
aF-8.55049109998143e+140
aF-4.997664846448502e+140
aF-4.997664846448502e+140
aF-4.997664846448502e+140
aF-4.997664846440437e+140
aF0.008202705977074953
aF-8.55049109998143e+140
aF-4.997664846448502e+140
aF-4.997664846448502e+140
aF-4.997664846448502e+140
aF-4.997664846440437e+140
aF0.7307864783975401
aF-8.55049109998143e+140
aF-4.997664846448502e+140
aF-4.997664846448502e+140
aF-4.997664846448502e+140
aF-4.997664846440437e+140
aF0.5443047208707475
aF-8.55049109998143e+140
aF-4.997664846448502e+140
aF-4.997664846448502e+140
aF-4.997664846448502e+140
aF-4.997664846440437e+140
aF0.8573599796797057
aF-8.55049109998143e+140
aF-4.997664846448502e+140
aF-4.997664846448502e+140
aF-4.997664846448502e+140
aF-4.997664846440437e+140
aF0.5371390414919698
aF-8.55049109998143e+140
aF-4.997664846448502e+140
aF-4.997664846448502e+140
aF-4.997664846448502e+140
aF-4.997664846440437e+140
aF0.8948369235919011
aF-8.55049109998143e+140
aF-4.997664846440437e+140
aF-4.997664846448502e+140
aF-4.997664846448502e+140
aF-4.997664846448502e+140
aF0.489437235709262
aF-8.55049109998143e+140
aF-4.997664846448502e+140
aF-4.997664846448502e+140
aF-4.997664846448502e+140
aF-4.997664846440437e+140
aF0.04094747797003595
aF-8.55049109998143e+140
aF-4.997664846448502e+140
aF-4.997664846448502e+140
aF-4.997664846448502e+140
aF-4.997664846440437e+140
aF0.2799378998646562
aF-8.55049109998143e+140
aF-4.997664846448502e+140
aF-4.997664846448502e+140
aF-4.997664846448502e+140
aF-4.997664846440437e+140
aF0.19048011513250285
aF-8.55049109998143e+140
aF-4.997664846448502e+140
aF-4.997664846448502e+140
aF-4.997664846448502e+140
aF-4.997664846440437e+140
aF0.6266309903762126
aF-8.55049109998143e+140
aF-4.997664846448502e+140
aF-4.997664846448502e+140
aF-4.997664846448502e+140
aF-4.997664846440437e+140
aF0.47412960835863305
aF-8.55049109998143e+140
aF-4.997664846448502e+140
aF-4.997664846448502e+140
aF-4.997664846448502e+140
aF-4.997664846440437e+140
aF0.7751303361110103
aF-8.55049109998143e+140
aF-4.997664846448502e+140
aF-4.997664846448502e+140
aF-4.997664846448502e+140
aF-4.997664846440437e+140
aF0.69530512042214
aF-8.55049109998143e+140
aF-4.997664846448502e+140
aF-4.997664846448502e+140
aF-4.997664846448502e+140
aF-4.997664846440437e+140
aF0.7119029162193731
aF-8.55049109998143e+140
aF-4.997664846448502e+140
aF-4.997664846448502e+140
aF-4.997664846448502e+140
aF-4.997664846440437e+140
aF0.2569488858166099
aF-8.55049109998143e+140
aF-4.997664846448502e+140
aF-4.997664846448502e+140
aF-4.997664846448502e+140
aF-4.997664846440437e+140
aF0.46009951755446443
aF-8.55049109998143e+140
aF-4.997664846448502e+140
aF-4.997664846448502e+140
aF-4.997664846448502e+140
aF-4.997664846440437e+140
aF0.026727227420947797
aF-8.55049109998143e+140
aF-4.997664846448502e+140
aF-4.997664846448502e+140
aF-4.997664846448502e+140
aF-4.997664846440437e+140
aF0.7329026014479278
aF-8.55049109998143e+140
aF-4.997664846448502e+140
aF-4.997664846448502e+140
aF-4.997664846448502e+140
aF-4.997664846440437e+140
aF0.9530000074641188
aF-8.55049109998143e+140
aF-4.997664846448502e+140
aF-4.997664846448502e+140
aF-4.997664846448502e+140
aF-4.997664846440437e+140
aF0.6948214127764326
aF-8.55049109998143e+140
aF-4.997664846448502e+140
aF-4.997664846448502e+140
aF-4.997664846448502e+140
aF-4.997664846440437e+140
aF0.42352516984304145
aF-8.55049109998143e+140
aF-4.997664846448502e+140
aF-4.997664846448502e+140
aF-4.997664846448502e+140
aF-4.997664846440437e+140
aF0.81062084071903
aF-8.55049109998143e+140
aF-4.997664846448502e+140
aF-4.997664846448502e+140
aF-4.997664846448502e+140
aF-4.997664846440437e+140
aF0.0915989154820751
aF-8.55049109998143e+140
aF-4.997664846448502e+140
aF-4.997664846448502e+140
aF-4.997664846448502e+140
aF-4.997664846440437e+140
aF0.699928915470398
assI4
(dp22
S'FleeBehavior'
p23
(lp24
F-7.898155209740525e+144
aF-1.0868055601099818e+144
aF-7.898330323730671e+144
aF-7.898335763438354e+144
aF0.870817712800688
aF-1.0868055601099818e+144
aF-7.898335763438354e+144
aF-7.898330323730671e+144
aF0.239547940521181
aF-1.0868055601099818e+144
aF-7.898330323730671e+144
aF-7.898335763438354e+144
aF-7.898330323730671e+144
aF0.11566268951516223
aF-1.0868055601099818e+144
aF-7.898335763438354e+144
aF-7.898330323730671e+144
aF-7.898330323730671e+144
aF0.5920946072563216
aF-1.0868055601099818e+144
aF-7.898330323730671e+144
aF-7.898330323730671e+144
aF-7.898335763438354e+144
aF0.68978262266049
aF-1.0868055601099818e+144
aF-7.898330323730671e+144
aF-7.898335763438354e+144
aF-7.898330323730671e+144
aF-7.898123449658481e+144
aF0.37130363268209354
aF-1.0868055601099818e+144
aF-7.898335763438354e+144
aF-7.898330323730671e+144
aF-7.898330323730671e+144
aF-7.898123449658481e+144
aF0.80649996331264
aF-1.0868055601099818e+144
aF-7.898330323730671e+144
aF-7.898330323730671e+144
aF-7.898335763438354e+144
aF-7.898123449658481e+144
aF0.7940348460948693
aF-1.0868055601099818e+144
aF-7.898123449658481e+144
aF-7.898330323730671e+144
aF-7.898335763438354e+144
aF-7.898330323730671e+144
aF0.39359526177189685
aF-1.0868055601099818e+144
aF-7.898330323730671e+144
aF-7.898335763438354e+144
aF-7.898330323730671e+144
aF-7.898123449658481e+144
aF0.014463918925363584
aF-1.0868055601099818e+144
aF-7.898335763438354e+144
aF-7.898330323730671e+144
aF-7.898330323730671e+144
aF-7.898123449658481e+144
aF0.7660422911319843
aF-1.0868055601099818e+144
aF-7.898330323730671e+144
aF-7.898335763438354e+144
aF-7.898330323730671e+144
aF-7.898123449658481e+144
aF0.6028749473620797
aF-1.0868055601099818e+144
aF-7.898335763438354e+144
aF-7.898330323730671e+144
aF-7.898330323730671e+144
aF-7.898123449658481e+144
aF0.7913609971429102
aF-1.0868055601099818e+144
aF-7.898330323730671e+144
aF-7.898330323730671e+144
aF-7.898335763438354e+144
aF-7.898123449658481e+144
aF0.006338469485255849
aF-1.0868055601099818e+144
aF-7.898330323730671e+144
aF-7.898335763438354e+144
aF-7.898330323730671e+144
aF-7.898123449658481e+144
aF0.036697640141212795
aF-1.0868055601099818e+144
aF-7.898335763438354e+144
aF-7.898330323730671e+144
aF-7.898330323730671e+144
aF-7.898123449658481e+144
aF0.5275571541118794
aF-1.0868055601099818e+144
aF-7.898330323730671e+144
aF-7.898330323730671e+144
aF-7.898335763438354e+144
aF-7.898123449658481e+144
aF0.9213881255556031
aF-1.0868055601099818e+144
aF-7.898123449658481e+144
aF-7.898330323730671e+144
aF-7.898335763438354e+144
aF-7.898330323730671e+144
aF0.20384359821549258
aF-1.0868055601099818e+144
aF-7.898330323730671e+144
aF-7.898335763438354e+144
aF-7.898330323730671e+144
aF-7.898123449658481e+144
aF0.04279971535327087
aF-1.0868055601099818e+144
aF-7.898335763438354e+144
aF-7.898330323730671e+144
aF-7.898330323730671e+144
aF-7.898123449658481e+144
aF0.10523154147113656
aF-1.0868055601099818e+144
aF-7.898330323730671e+144
aF-7.898335763438354e+144
aF-7.898330323730671e+144
aF-7.898123449658481e+144
aF0.15608319125767534
aF-1.0868055601099818e+144
aF-7.898335763438354e+144
aF-7.898330323730671e+144
aF-7.898330323730671e+144
aF-7.898123449658481e+144
aF0.46173702898756297
aF-1.0868055601099818e+144
aF-7.898330323730671e+144
aF-7.898335763438354e+144
aF-7.898330323730671e+144
aF-7.898123449658481e+144
aF0.0623364714096587
aF-1.0868055601099818e+144
aF-7.898335763438354e+144
aF-7.898330323730671e+144
aF-7.898330323730671e+144
aF-7.898123449658481e+144
aF0.7375584273197404
aF-1.0868055601099818e+144
aF-7.898330323730671e+144
aF-7.898335763438354e+144
aF-7.898330323730671e+144
aF-7.898123449658481e+144
aF0.9994124096989411
aF-1.0868055601099818e+144
aF-7.898335763438354e+144
aF-7.898330323730671e+144
aF-7.898330323730671e+144
aF-7.898123449658481e+144
aF0.5920289640786722
aF-1.0868055601099818e+144
aF-7.898330323730671e+144
aF-7.898330323730671e+144
aF-7.898335763438354e+144
aF-7.898123449658481e+144
aF0.9344891487030296
aF-1.0868055601099818e+144
aF-7.898330323730671e+144
aF-7.898335763438354e+144
aF-7.898330323730671e+144
aF-7.898123449658481e+144
aF0.35984750918965613
aF-1.0868055601099818e+144
aF-7.898335763438354e+144
aF-7.898330323730671e+144
aF-7.898330323730671e+144
aF-7.898123449658481e+144
aF0.028537036549860395
aF-1.0868055601099818e+144
aF-7.898330323730671e+144
aF-7.898330323730671e+144
aF-7.898335763438354e+144
aF-7.898123449658481e+144
aF0.10448719855135524
aF-1.0868055601099818e+144
aF-7.898330323730671e+144
aF-7.898335763438354e+144
aF-7.898330323730671e+144
aF-7.898123449658481e+144
aF0.4025838210302558
aF-1.0868055601099818e+144
aF-7.898335763438354e+144
aF-7.898330323730671e+144
aF-7.898330323730671e+144
aF-7.898123449658481e+144
aF0.8191189680907626
aF-1.0868055601099818e+144
aF-7.898330323730671e+144
aF-7.898330323730671e+144
aF-7.898335763438354e+144
aF-7.898123449658481e+144
aF0.868558330173793
aF-1.0868055601099818e+144
aF-7.898330323730671e+144
aF-7.898335763438354e+144
aF-7.898330323730671e+144
aF-7.898123449658481e+144
aF0.4576979078091472
aF-1.0868055601099818e+144
aF-7.898335763438354e+144
aF-7.898330323730671e+144
aF-7.898330323730671e+144
aF-7.898123449658481e+144
aF0.31062767159425675
aF-1.0868055601099818e+144
aF-7.898330323730671e+144
aF-7.898330323730671e+144
aF-7.898335763438354e+144
aF-7.898123449658481e+144
aF0.8045734341246535
aF-1.0868055601099818e+144
aF-7.898123449658481e+144
aF-7.898330323730671e+144
aF-7.898335763438354e+144
aF-7.898330323730671e+144
aF0.49791193981319926
asS'PursueBehavior'
p25
(lp26
F-1.5861803958198807e+145
aF-2.007176709252207e+146
aF-1.7385921155072267e+147
aF-1.738471629051274e+147
aF0.4236565267533243
aF-2.007176709252207e+146
aF-1.738471629051274e+147
aF-1.7385921155072267e+147
aF0.3782374755529131
aF-2.007176709252207e+146
aF-1.7385921155072267e+147
aF-1.738471629051274e+147
aF-1.7385921155072267e+147
aF0.1238170684094182
aF-2.007176709252207e+146
aF-1.738471629051274e+147
aF-1.7385921155072267e+147
aF-1.7385921155072267e+147
aF0.624096422662478
aF-2.007176709252207e+146
aF-1.7385921155072267e+147
aF-1.7385921155072267e+147
aF-1.738471629051274e+147
aF0.2171253716737218
aF-2.007176709252207e+146
aF-1.7385921155072267e+147
aF-1.738471629051274e+147
aF-1.7385921155072267e+147
aF-1.7384716101140966e+147
aF0.9552476142972066
aF-2.007176709252207e+146
aF-1.738471629051274e+147
aF-1.7385921155072267e+147
aF-1.7385921155072267e+147
aF-1.7384716101140966e+147
aF0.8850128676928661
aF-2.007176709252207e+146
aF-1.7385921155072267e+147
aF-1.7385921155072267e+147
aF-1.738471629051274e+147
aF-1.7384716101140966e+147
aF0.4064827625962605
aF-2.007176709252207e+146
aF-1.7384716101140966e+147
aF-1.7385921155072267e+147
aF-1.738471629051274e+147
aF-1.7385921155072267e+147
aF0.2000072826493493
aF-2.007176709252207e+146
aF-1.7385921155072267e+147
aF-1.738471629051274e+147
aF-1.7385921155072267e+147
aF-1.7384716101140966e+147
aF0.06511260237729177
aF-2.007176709252207e+146
aF-1.738471629051274e+147
aF-1.7385921155072267e+147
aF-1.7385921155072267e+147
aF-1.7384716101140966e+147
aF0.04219624588256199
aF-2.007176709252207e+146
aF-1.7385921155072267e+147
aF-1.738471629051274e+147
aF-1.7385921155072267e+147
aF-1.7384716101140966e+147
aF0.663553273436251
aF-2.007176709252207e+146
aF-1.738471629051274e+147
aF-1.7385921155072267e+147
aF-1.7385921155072267e+147
aF-1.7384716101140966e+147
aF0.7156658762021614
aF-2.007176709252207e+146
aF-1.7385921155072267e+147
aF-1.7385921155072267e+147
aF-1.738471629051274e+147
aF-1.7384716101140966e+147
aF0.28544954467292427
aF-2.007176709252207e+146
aF-1.7385921155072267e+147
aF-1.738471629051274e+147
aF-1.7385921155072267e+147
aF-1.7384716101140966e+147
aF0.8457882749811209
aF-2.007176709252207e+146
aF-1.738471629051274e+147
aF-1.7385921155072267e+147
aF-1.7385921155072267e+147
aF-1.7384716101140966e+147
aF0.9734458603773177
aF-2.007176709252207e+146
aF-1.7385921155072267e+147
aF-1.7385921155072267e+147
aF-1.738471629051274e+147
aF-1.7384716101140966e+147
aF0.3354346360320084
aF-2.007176709252207e+146
aF-1.7384716101140966e+147
aF-1.7385921155072267e+147
aF-1.738471629051274e+147
aF-1.7385921155072267e+147
aF0.655493087467534
aF-2.007176709252207e+146
aF-1.7385921155072267e+147
aF-1.738471629051274e+147
aF-1.7385921155072267e+147
aF-1.7384716101140966e+147
aF0.1551461731017305
aF-2.007176709252207e+146
aF-1.738471629051274e+147
aF-1.7385921155072267e+147
aF-1.7385921155072267e+147
aF-1.7384716101140966e+147
aF0.1305187826684897
aF-2.007176709252207e+146
aF-1.7385921155072267e+147
aF-1.738471629051274e+147
aF-1.7385921155072267e+147
aF-1.7384716101140966e+147
aF0.7617467951579668
aF-2.007176709252207e+146
aF-1.738471629051274e+147
aF-1.7385921155072267e+147
aF-1.7385921155072267e+147
aF-1.7384716101140966e+147
aF0.805291311981159
aF-2.007176709252207e+146
aF-1.7385921155072267e+147
aF-1.738471629051274e+147
aF-1.7385921155072267e+147
aF-1.7384716101140966e+147
aF0.28116332819318324
aF-2.007176709252207e+146
aF-1.738471629051274e+147
aF-1.7385921155072267e+147
aF-1.7385921155072267e+147
aF-1.7384716101140966e+147
aF0.36118498795093157
aF-2.007176709252207e+146
aF-1.7385921155072267e+147
aF-1.738471629051274e+147
aF-1.7385921155072267e+147
aF-1.7384716101140966e+147
aF0.42441840277754506
aF-2.007176709252207e+146
aF-1.738471629051274e+147
aF-1.7385921155072267e+147
aF-1.7385921155072267e+147
aF-1.7384716101140966e+147
aF0.14494454611875718
aF-2.007176709252207e+146
aF-1.7385921155072267e+147
aF-1.7385921155072267e+147
aF-1.738471629051274e+147
aF-1.7384716101140966e+147
aF0.42363336596705203
aF-2.007176709252207e+146
aF-1.7385921155072267e+147
aF-1.738471629051274e+147
aF-1.7385921155072267e+147
aF-1.7384716101140966e+147
aF0.7871134617909182
aF-2.007176709252207e+146
aF-1.738471629051274e+147
aF-1.7385921155072267e+147
aF-1.7385921155072267e+147
aF-1.7384716101140966e+147
aF0.2517399332324556
aF-2.007176709252207e+146
aF-1.7385921155072267e+147
aF-1.7385921155072267e+147
aF-1.738471629051274e+147
aF-1.7384716101140966e+147
aF0.6620196045213885
aF-2.007176709252207e+146
aF-1.7385921155072267e+147
aF-1.738471629051274e+147
aF-1.7385921155072267e+147
aF-1.7384716101140966e+147
aF0.402910227154913
aF-2.007176709252207e+146
aF-1.738471629051274e+147
aF-1.7385921155072267e+147
aF-1.7385921155072267e+147
aF-1.7384716101140966e+147
aF0.05851591099843123
aF-2.007176709252207e+146
aF-1.7385921155072267e+147
aF-1.7385921155072267e+147
aF-1.738471629051274e+147
aF-1.7384716101140966e+147
aF0.9446663461697311
aF-2.007176709252207e+146
aF-1.7385921155072267e+147
aF-1.738471629051274e+147
aF-1.7385921155072267e+147
aF-1.7384716101140966e+147
aF0.4825069609324768
aF-2.007176709252207e+146
aF-1.738471629051274e+147
aF-1.7385921155072267e+147
aF-1.7385921155072267e+147
aF-1.7384716101140966e+147
aF0.020901293998390358
aF-2.007176709252207e+146
aF-1.7385921155072267e+147
aF-1.7385921155072267e+147
aF-1.738471629051274e+147
aF-1.7384716101140966e+147
aF0.9594260104802529
aF-2.007176709252207e+146
aF-1.7384716101140966e+147
aF-1.7385921155072267e+147
aF-1.738471629051274e+147
aF-1.7385921155072267e+147
aF0.22527634410754194
asS'SeekBehavior'
p27
(lp28
F3.691764540548392e+142
aF-1.2476112350357328e+142
aF-2.519755439711493e+142
aF-2.51857927547051e+142
aF0.25267923183622243
aF-1.2476112350357328e+142
aF-2.51857927547051e+142
aF-2.519755439711493e+142
aF0.9019344877079407
aF-1.2476112350357328e+142
aF-2.519755439711493e+142
aF-2.51857927547051e+142
aF-2.519755439711493e+142
aF0.9443608096675234
aF-1.2476112350357328e+142
aF-2.51857927547051e+142
aF-2.519755439711493e+142
aF-2.519755439711493e+142
aF0.03232980720786771
aF-1.2476112350357328e+142
aF-2.519755439711493e+142
aF-2.519755439711493e+142
aF-2.51857927547051e+142
aF0.5651660302576605
aF-1.2476112350357328e+142
aF-2.519755439711493e+142
aF-2.51857927547051e+142
aF-2.519755439711493e+142
aF6.32724778050731e+142
aF0.816416222817953
aF-1.2476112350357328e+142
aF-2.51857927547051e+142
aF-2.519755439711493e+142
aF-2.519755439711493e+142
aF6.32724778050731e+142
aF0.40275614453270214
aF-1.2476112350357328e+142
aF-2.519755439711493e+142
aF-2.519755439711493e+142
aF-2.51857927547051e+142
aF6.32724778050731e+142
aF0.5230439496382554
aF-1.2476112350357328e+142
aF6.32724778050731e+142
aF-2.519755439711493e+142
aF-2.51857927547051e+142
aF-2.519755439711493e+142
aF0.6861094854232467
aF-1.2476112350357328e+142
aF-2.519755439711493e+142
aF-2.51857927547051e+142
aF-2.519755439711493e+142
aF6.32724778050731e+142
aF0.7293061405814063
aF-1.2476112350357328e+142
aF-2.51857927547051e+142
aF-2.519755439711493e+142
aF-2.519755439711493e+142
aF6.32724778050731e+142
aF0.3271543315211347
aF-1.2476112350357328e+142
aF-2.519755439711493e+142
aF-2.51857927547051e+142
aF-2.519755439711493e+142
aF6.32724778050731e+142
aF0.9099152890872876
aF-1.2476112350357328e+142
aF-2.51857927547051e+142
aF-2.519755439711493e+142
aF-2.519755439711493e+142
aF6.32724778050731e+142
aF0.8786245747827977
aF-1.2476112350357328e+142
aF-2.519755439711493e+142
aF-2.519755439711493e+142
aF-2.51857927547051e+142
aF6.32724778050731e+142
aF0.2615649851405817
aF-1.2476112350357328e+142
aF-2.519755439711493e+142
aF-2.51857927547051e+142
aF-2.519755439711493e+142
aF6.32724778050731e+142
aF0.4098120636559197
aF-1.2476112350357328e+142
aF-2.51857927547051e+142
aF-2.519755439711493e+142
aF-2.519755439711493e+142
aF6.32724778050731e+142
aF0.09104441609270952
aF-1.2476112350357328e+142
aF-2.519755439711493e+142
aF-2.519755439711493e+142
aF-2.51857927547051e+142
aF6.32724778050731e+142
aF0.9090642640950791
aF-1.2476112350357328e+142
aF6.32724778050731e+142
aF-2.519755439711493e+142
aF-2.51857927547051e+142
aF-2.519755439711493e+142
aF0.8285306924415146
aF-1.2476112350357328e+142
aF-2.519755439711493e+142
aF-2.51857927547051e+142
aF-2.519755439711493e+142
aF6.32724778050731e+142
aF0.6679233987832766
aF-1.2476112350357328e+142
aF-2.51857927547051e+142
aF-2.519755439711493e+142
aF-2.519755439711493e+142
aF6.32724778050731e+142
aF0.39519718352126143
aF-1.2476112350357328e+142
aF-2.519755439711493e+142
aF-2.51857927547051e+142
aF-2.519755439711493e+142
aF6.32724778050731e+142
aF0.11995571238999236
aF-1.2476112350357328e+142
aF-2.51857927547051e+142
aF-2.519755439711493e+142
aF-2.519755439711493e+142
aF6.32724778050731e+142
aF0.8519835250976115
aF-1.2476112350357328e+142
aF-2.519755439711493e+142
aF-2.51857927547051e+142
aF-2.519755439711493e+142
aF6.32724778050731e+142
aF0.99309242505484
aF-1.2476112350357328e+142
aF-2.51857927547051e+142
aF-2.519755439711493e+142
aF-2.519755439711493e+142
aF6.32724778050731e+142
aF0.9814448750666758
aF-1.2476112350357328e+142
aF-2.519755439711493e+142
aF-2.51857927547051e+142
aF-2.519755439711493e+142
aF6.32724778050731e+142
aF0.9191914856441192
aF-1.2476112350357328e+142
aF-2.51857927547051e+142
aF-2.519755439711493e+142
aF-2.519755439711493e+142
aF6.32724778050731e+142
aF0.2002518816559139
aF-1.2476112350357328e+142
aF-2.519755439711493e+142
aF-2.519755439711493e+142
aF-2.51857927547051e+142
aF6.32724778050731e+142
aF0.5365952060851468
aF-1.2476112350357328e+142
aF-2.519755439711493e+142
aF-2.51857927547051e+142
aF-2.519755439711493e+142
aF6.32724778050731e+142
aF0.31248282217573065
aF-1.2476112350357328e+142
aF-2.51857927547051e+142
aF-2.519755439711493e+142
aF-2.519755439711493e+142
aF6.32724778050731e+142
aF0.08491239760502522
aF-1.2476112350357328e+142
aF-2.519755439711493e+142
aF-2.519755439711493e+142
aF-2.51857927547051e+142
aF6.32724778050731e+142
aF0.21915331355853807
aF-1.2476112350357328e+142
aF-2.519755439711493e+142
aF-2.51857927547051e+142
aF-2.519755439711493e+142
aF6.32724778050731e+142
aF0.545359955122409
aF-1.2476112350357328e+142
aF-2.51857927547051e+142
aF-2.519755439711493e+142
aF-2.519755439711493e+142
aF6.32724778050731e+142
aF0.33493387832038346
aF-1.2476112350357328e+142
aF-2.519755439711493e+142
aF-2.519755439711493e+142
aF-2.51857927547051e+142
aF6.32724778050731e+142
aF0.27038650788055707
aF-1.2476112350357328e+142
aF-2.519755439711493e+142
aF-2.51857927547051e+142
aF-2.519755439711493e+142
aF6.32724778050731e+142
aF0.9848558502130847
aF-1.2476112350357328e+142
aF-2.51857927547051e+142
aF-2.519755439711493e+142
aF-2.519755439711493e+142
aF6.32724778050731e+142
aF0.3787336548310445
aF-1.2476112350357328e+142
aF-2.519755439711493e+142
aF-2.519755439711493e+142
aF-2.51857927547051e+142
aF6.32724778050731e+142
aF0.15479316220385886
aF-1.2476112350357328e+142
aF6.32724778050731e+142
aF-2.519755439711493e+142
aF-2.51857927547051e+142
aF-2.519755439711493e+142
aF0.3741209695652795
ass.