(dp0
S'learn_scores'
p1
(lp2
F-266.0
aF496.0
aF2750.0
aF1507.0
aF1642.0
aF2764.0
aF2974.0
aF-197.0
aF2618.0
aF2635.0
asS'test_scores'
p3
(lp4
F2414.0
asS'behavior_count'
p5
(dp6
I1
(dp7
S'FleeBehavior'
p8
(lp9
I1
aI14
aI39
aI21
aI53
aI42
aI64
aI1
aI36
aI22
aI0
asS'PursueBehavior'
p10
(lp11
I14
aI16
aI55
aI58
aI145
aI257
aI262
aI35
aI266
aI35
aI376
asS'SeekBehavior'
p12
(lp13
I12
aI95
aI346
aI165
aI111
aI127
aI90
aI2
aI70
aI298
aI0
assI2
(dp14
S'FleeBehavior'
p15
(lp16
I14
aI43
aI122
aI111
aI113
aI248
aI152
aI37
aI159
aI161
aI257
asS'PursueBehavior'
p17
(lp18
I2
aI21
aI70
aI22
aI56
aI95
aI73
aI1
aI93
aI45
aI119
asS'SeekBehavior'
p19
(lp20
I10
aI60
aI248
aI111
aI140
aI83
aI191
aI0
aI120
aI149
aI0
assI3
(dp21
S'FleeBehavior'
p22
(lp23
I2
aI25
aI37
aI30
aI75
aI23
aI26
aI1
aI52
aI70
aI0
asS'PursueBehavior'
p24
(lp25
I23
aI92
aI162
aI157
aI128
aI385
aI213
aI37
aI209
aI116
aI373
asS'SeekBehavior'
p26
(lp27
I1
aI7
aI241
aI57
aI105
aI18
aI177
aI0
aI111
aI169
aI3
assI4
(dp28
S'FleeBehavior'
p29
(lp30
I26
aI79
aI296
aI203
aI202
aI246
aI308
aI33
aI269
aI259
aI254
asS'PursueBehavior'
p31
(lp32
I0
aI25
aI93
aI16
aI44
aI115
aI47
aI2
aI67
aI74
aI119
asS'SeekBehavior'
p33
(lp34
I0
aI20
aI51
aI25
aI62
aI65
aI61
aI2
aI36
aI22
aI3
asss.