(dp0
S'learn_scores'
p1
(lp2
F-264.0
aF-195.0
aF-201.0
aF-278.0
aF-119.0
aF-508.0
aF-606.0
aF16.0
aF-219.0
aF-125.0
asS'test_scores'
p3
(lp4
F-150.0
asS'behavior_count'
p5
(dp6
I1
(dp7
S'FleeBehavior'
p8
(lp9
I15
aI26
aI41
aI4
aI9
aI24
aI103
aI13
aI29
aI6
aI4
asS'PursueBehavior'
p10
(lp11
I20
aI16
aI28
aI4
aI12
aI174
aI143
aI15
aI31
aI1
aI0
asS'SeekBehavior'
p12
(lp13
I140
aI64
aI433
aI20
aI29
aI221
aI181
aI57
aI70
aI38
aI47
assI2
(dp14
S'FleeBehavior'
p15
(lp16
I21
aI81
aI411
aI26
aI36
aI235
aI273
aI49
aI110
aI42
aI50
asS'PursueBehavior'
p17
(lp18
I39
aI8
aI62
aI0
aI0
aI54
aI44
aI23
aI18
aI1
aI0
asS'SeekBehavior'
p19
(lp20
I115
aI16
aI28
aI2
aI13
aI130
aI109
aI13
aI1
aI2
aI0
asss.