(dp0
S'learn_scores'
p1
(lp2
F-181.0
aF-252.0
aF453.0
aF-146.0
aF-258.0
aF-197.0
aF-781.0
aF-432.0
aF-195.0
aF-184.0
asS'test_scores'
p3
(lp4
F-242.0
asS'behavior_count'
p5
(dp6
I1
(dp7
S'FleeBehavior'
p8
(lp9
I75
aI18
aI49
aI113
aI1
aI25
aI327
aI100
aI55
aI26
aI14
asS'PursueBehavior'
p10
(lp11
I6
aI35
aI83
aI57
aI27
aI10
aI121
aI74
aI30
aI18
aI0
asS'SeekBehavior'
p12
(lp13
I11
aI120
aI36
aI47
aI51
aI3
aI154
aI69
aI21
aI21
aI18
assI2
(dp14
S'FleeBehavior'
p15
(lp16
I68
aI103
aI74
aI72
aI41
aI29
aI324
aI115
aI15
aI25
aI28
asS'PursueBehavior'
p17
(lp18
I5
aI54
aI39
aI86
aI17
aI0
aI153
aI65
aI40
aI12
aI0
asS'SeekBehavior'
p19
(lp20
I18
aI15
aI55
aI58
aI20
aI9
aI125
aI63
aI50
aI27
aI4
asss.