(dp0
S'learn_scores'
p1
(lp2
F-197.0
aF-253.0
aF-242.0
aF-111.0
aF-233.0
aF-256.0
aF180.0
aF-292.0
aF-66.0
aF-164.0
asS'test_scores'
p3
(lp4
F172.0
asS'behavior_count'
p5
(dp6
I1
(dp7
S'FleeBehavior'
p8
(lp9
I10
aI58
aI9
aI15
aI12
aI25
aI18
aI19
aI12
aI23
aI0
asS'PursueBehavior'
p10
(lp11
I13
aI49
aI11
aI21
aI16
aI141
aI43
aI54
aI100
aI203
aI109
asS'SeekBehavior'
p12
(lp13
I14
aI57
aI12
aI26
aI16
aI11
aI60
aI170
aI25
aI19
aI0
assI2
(dp14
S'FleeBehavior'
p15
(lp16
I16
aI57
aI6
aI20
aI12
aI15
aI37
aI35
aI18
aI16
aI0
asS'PursueBehavior'
p17
(lp18
I11
aI48
aI13
aI31
aI18
aI147
aI39
aI193
aI49
aI203
aI108
asS'SeekBehavior'
p19
(lp20
I10
aI58
aI13
aI11
aI14
aI14
aI45
aI15
aI70
aI25
aI0
assI3
(dp21
S'FleeBehavior'
p22
(lp23
I10
aI50
aI12
aI16
aI10
aI44
aI46
aI30
aI16
aI88
aI0
asS'PursueBehavior'
p24
(lp25
I12
aI42
aI11
aI27
aI18
aI54
aI44
aI104
aI41
aI92
aI108
asS'SeekBehavior'
p26
(lp27
I15
aI71
aI9
aI19
aI15
aI78
aI30
aI108
aI79
aI64
aI0
asss.