(dp0
S'learn_scores'
p1
(lp2
F-216.0
aF173.0
aF-161.0
aF-123.0
aF-155.0
aF-552.0
aF-197.0
aF-272.0
aF-233.0
aF-260.0
asS'test_scores'
p3
(lp4
F23.0
asS'behavior_count'
p5
(dp6
I1
(dp7
S'FleeBehavior'
p8
(lp9
I9
aI91
aI11
aI18
aI35
aI343
aI12
aI4
aI106
aI20
aI0
asS'PursueBehavior'
p10
(lp11
I16
aI103
aI21
aI46
aI22
aI65
aI22
aI18
aI33
aI36
aI78
asS'SeekBehavior'
p12
(lp13
I12
aI34
aI10
aI10
aI9
aI55
aI3
aI11
aI15
aI15
aI0
assI2
(dp14
S'FleeBehavior'
p15
(lp16
I9
aI71
aI13
aI43
aI15
aI129
aI17
aI7
aI19
aI36
aI0
asS'PursueBehavior'
p17
(lp18
I13
aI106
aI18
aI24
aI26
aI162
aI20
aI22
aI130
aI35
aI78
asS'SeekBehavior'
p19
(lp20
I14
aI51
aI11
aI7
aI25
aI172
aI0
aI4
aI5
aI0
aI0
assI3
(dp21
S'FleeBehavior'
p22
(lp23
I13
aI48
aI6
aI18
aI21
aI161
aI6
aI7
aI35
aI13
aI0
asS'PursueBehavior'
p24
(lp25
I11
aI97
aI21
aI31
aI39
aI159
aI24
aI20
aI73
aI56
aI78
asS'SeekBehavior'
p26
(lp27
I12
aI82
aI15
aI24
aI5
aI143
aI7
aI5
aI46
aI2
aI0
asss.