(dp0
S'learn_scores'
p1
(lp2
F2646.0
aF2836.0
aF1092.0
aF594.0
aF-329.0
aF2989.0
aF2807.0
aF2663.0
aF2824.0
aF2835.0
aF2853.0
aF2993.0
aF1211.0
aF2446.0
aF2809.0
aF2652.0
aF3173.0
aF3044.0
aF2438.0
aF2824.0
aF1390.0
aF-95.0
aF3067.0
aF3256.0
aF2850.0
aF2880.0
aF906.0
aF2635.0
aF2657.0
aF1511.0
aF-161.0
aF-270.0
aF926.0
aF593.0
aF3006.0
aF1715.0
aF211.0
aF2641.0
aF2611.0
aF1445.0
aF2847.0
aF2830.0
aF2847.0
aF336.0
aF3031.0
aF3229.0
aF2779.0
aF2647.0
aF3008.0
aF573.0
aF766.0
aF2843.0
aF75.0
aF1159.0
aF1652.0
aF2862.0
aF3041.0
aF1496.0
aF2865.0
aF509.0
aF2985.0
aF223.0
aF2854.0
aF1220.0
aF2638.0
aF1174.0
aF2665.0
aF2627.0
aF3392.0
aF969.0
aF2812.0
aF1222.0
aF2879.0
aF2738.0
aF3032.0
aF2851.0
aF882.0
aF3227.0
aF2428.0
aF2802.0
aF2772.0
aF2373.0
aF1019.0
aF2430.0
aF2986.0
aF-27.0
aF2840.0
aF2636.0
aF110.0
aF1555.0
aF753.0
aF2853.0
aF3576.0
aF920.0
aF3003.0
aF3069.0
aF2647.0
aF582.0
aF2805.0
aF988.0
asS'test_scores'
p3
(lp4
F2859.0
asS'behavior_count'
p5
(dp6
I1
(dp7
S'FleeBehavior'
p8
(lp9
I140
aI61
aI43
aI122
aI17
aI207
aI161
aI103
aI215
aI187
aI137
aI176
aI59
aI94
aI149
aI63
aI237
aI70
aI80
aI196
aI116
aI52
aI206
aI248
aI63
aI108
aI16
aI143
aI145
aI80
aI31
aI6
aI39
aI4
aI41
aI20
aI42
aI147
aI21
aI41
aI79
aI11
aI96
aI63
aI221
aI219
aI323
aI190
aI275
aI14
aI52
aI164
aI63
aI65
aI126
aI63
aI77
aI64
aI101
aI35
aI320
aI10
aI41
aI35
aI58
aI41
aI25
aI20
aI193
aI222
aI243
aI100
aI72
aI71
aI243
aI92
aI48
aI186
aI159
aI86
aI118
aI98
aI57
aI305
aI208
aI1
aI105
aI163
aI5
aI78
aI5
aI28
aI107
aI89
aI165
aI135
aI72
aI51
aI76
aI22
aI13
asS'PursueBehavior'
p10
(lp11
I107
aI93
aI46
aI5
aI1
aI111
aI92
aI145
aI4
aI61
aI52
aI100
aI211
aI196
aI86
aI67
aI135
aI202
aI25
aI18
aI97
aI0
aI62
aI24
aI83
aI126
aI179
aI118
aI183
aI200
aI8
aI25
aI163
aI44
aI32
aI63
aI21
aI158
aI121
aI131
aI108
aI73
aI164
aI58
aI124
aI104
aI7
aI14
aI57
aI113
aI159
aI155
aI3
aI141
aI150
aI243
aI163
aI168
aI48
aI2
aI42
aI46
aI225
aI66
aI62
aI4
aI9
aI88
aI156
aI14
aI21
aI176
aI201
aI34
aI23
aI63
aI38
aI61
aI130
aI210
aI281
aI241
aI82
aI40
aI154
aI45
aI184
aI27
aI3
aI74
aI16
aI40
aI82
aI41
aI139
aI116
aI131
aI60
aI133
aI24
aI133
asS'SeekBehavior'
p12
(lp13
I97
aI200
aI100
aI80
aI2
aI83
aI130
aI79
aI147
aI107
aI148
aI121
aI20
aI54
aI146
aI208
aI45
aI74
aI247
aI152
aI78
aI4
aI55
aI62
aI194
aI76
aI30
aI94
aI5
aI10
aI3
aI0
aI13
aI50
aI311
aI253
aI37
aI44
aI237
aI74
aI156
aI276
aI83
aI4
aI14
aI38
aI81
aI139
aI50
aI31
aI14
aI28
aI19
aI46
aI33
aI22
aI109
aI73
aI176
aI35
aI43
aI22
aI70
aI160
aI232
aI131
aI291
aI255
aI49
aI6
aI114
aI23
aI38
aI347
aI92
aI184
aI123
aI116
aI73
aI92
aI19
aI78
aI63
aI15
aI42
aI22
aI61
aI164
aI63
aI174
aI117
aI269
aI225
aI51
aI83
aI70
aI140
aI68
aI176
aI177
aI185
assI2
(dp14
S'FleeBehavior'
p15
(lp16
I104
aI121
aI1
aI86
aI1
aI206
aI38
aI104
aI26
aI85
aI116
aI110
aI138
aI75
aI47
aI27
aI123
aI87
aI170
aI95
aI99
aI8
aI29
aI141
aI120
aI99
aI20
aI57
aI121
aI142
aI8
aI1
aI53
aI18
aI46
aI24
aI29
aI101
aI107
aI142
aI126
aI136
aI75
aI37
aI61
aI42
aI32
aI9
aI150
aI13
aI25
aI65
aI15
aI165
aI167
aI257
aI126
aI44
aI26
aI65
aI52
aI2
aI26
aI38
aI50
aI38
aI105
aI63
aI86
aI39
aI115
aI69
aI77
aI78
aI34
aI72
aI22
aI94
aI118
aI131
aI115
aI117
aI22
aI49
aI134
aI7
aI70
aI120
aI22
aI142
aI125
aI191
aI229
aI91
aI154
aI60
aI51
aI83
aI156
aI83
aI166
asS'PursueBehavior'
p17
(lp18
I102
aI103
aI142
aI69
aI17
aI144
aI219
aI62
aI206
aI231
aI50
aI74
aI89
aI88
aI232
aI191
aI179
aI176
aI71
aI136
aI102
aI47
aI154
aI49
aI155
aI200
aI172
aI123
aI137
aI62
aI4
aI3
aI25
aI28
aI128
aI211
aI1
aI56
aI56
aI68
aI57
aI214
aI88
aI21
aI25
aI142
aI194
aI217
aI65
aI136
aI190
aI138
aI9
aI69
aI100
aI32
aI107
aI245
aI129
aI2
aI130
aI60
aI30
aI126
aI207
aI18
aI39
aI93
aI187
aI100
aI167
aI172
aI69
aI179
aI100
aI136
aI10
aI150
aI35
aI42
aI31
aI64
aI24
aI18
aI99
aI4
aI60
aI74
aI4
aI15
aI6
aI10
aI65
aI9
aI35
aI76
aI51
aI22
aI33
aI8
aI0
asS'SeekBehavior'
p19
(lp20
I138
aI130
aI46
aI51
aI2
aI51
aI126
aI161
aI134
aI39
aI171
aI213
aI63
aI181
aI102
aI120
aI115
aI83
aI111
aI135
aI90
aI1
aI140
aI144
aI65
aI11
aI32
aI175
aI75
aI86
aI30
aI27
aI136
aI51
aI210
aI101
aI70
aI192
aI216
aI36
aI160
aI10
aI180
aI66
aI273
aI177
aI185
aI117
aI167
aI9
aI10
aI144
aI61
aI18
aI42
aI39
aI116
aI16
aI170
aI5
aI223
aI16
aI280
aI97
aI95
aI120
aI181
aI207
aI125
aI103
aI96
aI58
aI165
aI195
aI224
aI131
aI177
aI119
aI209
aI215
aI272
aI236
aI155
aI293
aI171
aI57
aI220
aI160
aI44
aI169
aI7
aI136
aI120
aI81
aI198
aI185
aI241
aI74
aI196
aI132
aI165
assI3
(dp21
S'FleeBehavior'
p22
(lp23
I95
aI154
aI67
aI116
aI19
aI162
aI77
aI132
aI101
aI103
aI86
aI190
aI106
aI133
aI180
aI187
aI122
aI49
aI75
aI142
aI145
aI29
aI126
aI90
aI45
aI194
aI132
aI99
aI87
aI86
aI3
aI6
aI20
aI2
aI99
aI85
aI22
aI93
aI78
aI100
aI97
aI114
aI137
aI48
aI105
aI136
aI193
aI221
aI209
aI64
aI68
aI75
aI5
aI92
aI156
aI189
aI196
aI95
aI119
aI51
aI201
aI70
aI132
aI80
aI151
aI50
aI168
aI155
aI165
aI125
aI91
aI43
aI100
aI256
aI191
aI129
aI132
aI140
aI110
aI86
aI70
aI166
aI78
aI93
aI100
aI35
aI105
aI102
aI11
aI77
aI24
aI93
aI220
aI78
aI203
aI204
aI174
aI60
aI127
aI54
aI118
asS'PursueBehavior'
p24
(lp25
I143
aI132
aI59
aI62
aI0
aI120
aI271
aI145
aI199
aI187
aI166
aI84
aI147
aI141
aI88
aI72
aI230
aI193
aI185
aI126
aI73
aI11
aI86
aI211
aI210
aI35
aI38
aI190
aI106
aI154
aI36
aI25
aI102
aI38
aI166
aI153
aI49
aI177
aI184
aI101
aI191
aI150
aI106
aI59
aI152
aI135
aI103
aI30
aI104
aI60
aI144
aI122
aI67
aI114
aI73
aI23
aI35
aI127
aI55
aI7
aI132
aI5
aI84
aI150
aI105
aI76
aI79
aI169
aI154
aI73
aI193
aI167
aI155
aI64
aI40
aI112
aI36
aI131
aI126
aI238
aI199
aI132
aI104
aI179
aI186
aI25
aI168
aI185
aI55
aI169
aI65
aI174
aI135
aI35
aI89
aI54
aI90
aI79
aI211
aI83
aI142
asS'SeekBehavior'
p26
(lp27
I106
aI68
aI63
aI28
aI1
aI119
aI35
aI50
aI66
aI65
aI85
aI123
aI37
aI70
aI113
aI79
aI65
aI104
aI92
aI98
aI72
aI16
aI111
aI33
aI85
aI81
aI54
aI66
aI140
aI50
aI3
aI0
aI92
aI57
aI119
aI97
aI29
aI79
aI117
aI44
aI55
aI96
aI100
aI17
aI102
aI90
aI115
aI92
aI69
aI34
aI12
aI150
aI13
aI46
aI80
aI116
aI118
aI83
aI151
aI13
aI72
aI3
aI120
aI31
aI96
aI50
aI78
aI39
aI79
aI44
aI94
aI89
aI56
aI132
aI127
aI98
aI41
aI92
aI126
aI64
aI149
aI119
aI19
aI88
aI118
aI8
aI77
aI67
aI4
aI80
aI49
aI70
aI59
aI68
aI95
aI63
aI79
aI39
aI47
aI85
aI71
assI4
(dp28
S'FleeBehavior'
p29
(lp30
I141
aI142
aI69
aI67
aI1
aI132
aI131
aI44
aI81
aI64
aI91
aI129
aI48
aI80
aI78
aI157
aI116
aI126
aI120
aI77
aI50
aI9
aI134
aI87
aI59
aI25
aI37
aI83
aI58
aI109
aI8
aI16
aI112
aI26
aI117
aI110
aI47
aI155
aI134
aI58
aI114
aI116
aI70
aI15
aI125
aI142
aI65
aI71
aI60
aI42
aI80
aI131
aI31
aI61
aI54
aI120
aI99
aI63
aI80
aI2
aI58
aI14
aI58
aI12
aI106
aI56
aI136
aI103
aI84
aI131
aI104
aI86
aI51
aI109
aI95
aI82
aI77
aI122
aI143
aI87
aI77
aI77
aI52
aI86
aI61
aI17
aI105
aI85
aI16
aI42
aI10
aI57
aI144
aI20
aI154
aI111
aI109
aI40
aI80
aI44
aI144
asS'PursueBehavior'
p31
(lp32
I156
aI127
aI72
aI54
aI18
aI165
aI151
aI159
aI162
aI151
aI141
aI201
aI159
aI117
aI231
aI133
aI196
aI126
aI198
aI205
aI152
aI45
aI138
aI213
aI147
aI207
aI101
aI157
aI100
aI105
aI32
aI13
aI38
aI53
aI233
aI139
aI33
aI126
aI171
aI102
aI180
aI206
aI218
aI72
aI145
aI151
aI276
aI227
aI154
aI71
aI77
aI133
aI52
aI108
aI180
aI173
aI209
aI151
aI187
aI39
aI315
aI61
aI162
aI170
aI196
aI98
aI140
aI199
aI266
aI58
aI217
aI160
aI175
aI228
aI192
aI126
aI58
aI179
aI188
aI262
aI270
aI276
aI135
aI205
aI230
aI49
aI152
aI199
aI28
aI226
aI83
aI164
aI209
aI86
aI174
aI131
aI211
aI92
aI231
aI153
aI144
asS'SeekBehavior'
p33
(lp34
I47
aI85
aI48
aI85
aI0
aI104
aI101
aI124
aI123
aI140
aI105
aI67
aI83
aI147
aI72
aI48
aI105
aI94
aI34
aI84
aI88
aI1
aI51
aI34
aI134
aI78
aI86
aI115
aI175
aI76
aI1
aI1
aI64
aI18
aI34
aI86
aI19
aI68
aI74
aI85
aI49
aI38
aI55
aI37
aI89
aI68
aI70
aI45
aI168
aI45
aI67
aI83
aI2
aI82
aI74
aI35
aI41
aI91
aI58
aI30
aI32
aI2
aI116
aI79
aI50
aI22
aI49
aI61
aI48
aI53
aI57
aI52
aI85
aI115
aI71
aI131
aI73
aI62
aI31
aI39
aI71
aI64
aI14
aI69
aI113
aI2
aI93
aI70
aI26
aI57
aI45
aI116
aI61
aI74
aI59
aI79
aI23
aI46
aI74
aI25
aI43
asss.