(dp0
S'learn_scores'
p1
(lp2
F-291.0
aF-145.0
aF-350.0
aF76.0
aF-142.0
aF-110.0
aF-138.0
aF-315.0
aF-141.0
aF-323.0
asS'test_scores'
p3
(lp4
F-223.0
asS'behavior_count'
p5
(dp6
I1
(dp7
S'FleeBehavior'
p8
(lp9
I130
aI21
aI157
aI30
aI16
aI20
aI11
aI6
aI9
aI4
aI0
asS'PursueBehavior'
p10
(lp11
I51
aI4
aI76
aI23
aI26
aI31
aI33
aI16
aI37
aI19
aI174
asS'SeekBehavior'
p12
(lp13
I21
aI31
aI68
aI42
aI11
aI10
aI15
aI3
aI6
aI0
aI0
assI2
(dp14
S'FleeBehavior'
p15
(lp16
I23
aI22
aI232
aI32
aI6
aI20
aI18
aI11
aI16
aI5
aI0
asS'PursueBehavior'
p17
(lp18
I128
aI24
aI27
aI47
aI2
aI9
aI1
aI1
aI3
aI0
aI0
asS'SeekBehavior'
p19
(lp20
I50
aI9
aI42
aI16
aI45
aI31
aI39
aI13
aI32
aI18
aI173
assI3
(dp21
S'FleeBehavior'
p22
(lp23
I48
aI21
aI61
aI40
aI25
aI22
aI48
aI23
aI33
aI22
aI173
asS'PursueBehavior'
p24
(lp25
I20
aI13
aI29
aI19
aI15
aI17
aI7
aI0
aI9
aI0
aI0
asS'SeekBehavior'
p26
(lp27
I133
aI21
aI210
aI36
aI13
aI21
aI3
aI2
aI9
aI1
aI0
asss.