(dp0
S'learn_scores'
p1
(lp2
F-345.0
aF-278.0
aF-394.0
aF-216.0
aF154.0
aF-245.0
aF-179.0
aF82.0
aF-143.0
aF-161.0
asS'test_scores'
p3
(lp4
F-141.0
asS'behavior_count'
p5
(dp6
I1
(dp7
S'FleeBehavior'
p8
(lp9
I123
aI5
aI18
aI1
aI6
aI5
aI2
aI22
aI0
aI0
aI0
asS'PursueBehavior'
p10
(lp11
I8
aI4
aI178
aI13
aI35
aI69
aI7
aI18
aI1
aI4
aI0
asS'SeekBehavior'
p12
(lp13
I25
aI20
aI119
aI23
aI106
aI82
aI30
aI68
aI42
aI38
aI52
assI2
(dp14
S'FleeBehavior'
p15
(lp16
I108
aI10
aI120
aI3
aI13
aI25
aI2
aI10
aI0
aI1
aI0
asS'PursueBehavior'
p17
(lp18
I10
aI12
aI104
aI9
aI23
aI32
aI3
aI42
aI2
aI0
aI0
asS'SeekBehavior'
p19
(lp20
I38
aI7
aI91
aI25
aI111
aI98
aI34
aI56
aI41
aI41
aI52
assI3
(dp21
S'FleeBehavior'
p22
(lp23
I45
aI24
aI31
aI36
aI88
aI57
aI34
aI85
aI37
aI39
aI51
asS'PursueBehavior'
p24
(lp25
I99
aI4
aI153
aI0
aI21
aI37
aI1
aI13
aI5
aI2
aI0
asS'SeekBehavior'
p26
(lp27
I11
aI1
aI130
aI0
aI38
aI61
aI4
aI10
aI1
aI1
aI0
asss.