(dp0
S'learn_scores'
p1
(lp2
F-186.0
aF-142.0
aF-106.0
aF-242.0
aF-370.0
aF-419.0
aF-302.0
aF-106.0
aF-167.0
aF-242.0
asS'test_scores'
p3
(lp4
F-230.0
asS'behavior_count'
p5
(dp6
I1
(dp7
S'FleeBehavior'
p8
(lp9
I74
aI20
aI30
aI11
aI6
aI68
aI78
aI30
aI13
aI9
aI0
asS'PursueBehavior'
p10
(lp11
I25
aI5
aI14
aI11
aI10
aI61
aI63
aI32
aI61
aI18
aI301
asS'SeekBehavior'
p12
(lp13
I8
aI38
aI33
aI10
aI5
aI101
aI72
aI15
aI4
aI5
aI0
assI2
(dp14
S'FleeBehavior'
p15
(lp16
I14
aI26
aI27
aI8
aI11
aI95
aI91
aI34
aI27
aI12
aI4
asS'PursueBehavior'
p17
(lp18
I56
aI26
aI32
aI1
aI1
aI74
aI75
aI16
aI3
aI2
aI0
asS'SeekBehavior'
p19
(lp20
I36
aI10
aI18
aI23
aI9
aI61
aI47
aI26
aI47
aI18
aI296
assI3
(dp21
S'FleeBehavior'
p22
(lp23
I28
aI41
aI19
aI18
aI18
aI50
aI89
aI23
aI62
aI31
aI300
asS'PursueBehavior'
p24
(lp25
I64
aI13
aI20
aI7
aI2
aI88
aI65
aI31
aI12
aI1
aI0
asS'SeekBehavior'
p26
(lp27
I14
aI8
aI37
aI7
aI1
aI91
aI59
aI22
aI3
aI0
aI0
asss.