(dp0
S'learn_scores'
p1
(lp2
F-317.0
aF-273.0
aF-36.0
aF-180.0
aF-169.0
aF-112.0
aF-375.0
aF-211.0
aF-136.0
aF-146.0
asS'test_scores'
p3
(lp4
F-197.0
asS'behavior_count'
p5
(dp6
I1
(dp7
S'FleeBehavior'
p8
(lp9
I10
aI50
aI36
aI10
aI21
aI35
aI83
aI48
aI7
aI28
aI0
asS'PursueBehavior'
p10
(lp11
I3
aI17
aI36
aI4
aI50
aI4
aI106
aI44
aI24
aI39
aI62
asS'SeekBehavior'
p12
(lp13
I14
aI17
aI35
aI27
aI19
aI24
aI97
aI70
aI16
aI0
aI6
assI2
(dp14
S'FleeBehavior'
p15
(lp16
I11
aI17
aI25
aI9
aI23
aI27
aI81
aI32
aI9
aI13
aI0
asS'PursueBehavior'
p17
(lp18
I9
aI44
aI34
aI29
aI41
aI11
aI157
aI77
aI24
aI37
aI11
asS'SeekBehavior'
p19
(lp20
I7
aI23
aI48
aI2
aI26
aI24
aI47
aI52
aI14
aI17
aI57
assI3
(dp21
S'FleeBehavior'
p22
(lp23
I8
aI23
aI42
aI17
aI42
aI10
aI82
aI58
aI10
aI24
aI31
asS'PursueBehavior'
p24
(lp25
I15
aI29
aI43
aI12
aI32
aI32
aI108
aI53
aI33
aI42
aI36
asS'SeekBehavior'
p26
(lp27
I4
aI31
aI21
aI11
aI16
aI20
aI95
aI50
aI4
aI0
aI0
asss.