(dp0
S'learn_scores'
p1
(lp2
F-422.0
aF-469.0
aF-170.0
aF-372.0
aF39.0
aF-114.0
aF-200.0
aF195.0
aF-132.0
aF-181.0
asS'test_scores'
p3
(lp4
F-197.0
asS'behavior_count'
p5
(dp6
I1
(dp7
S'FleeBehavior'
p8
(lp9
I189
aI433
aI18
aI147
aI50
aI1
aI2
aI10
aI1
aI5
aI0
asS'PursueBehavior'
p10
(lp11
I9
aI38
aI18
aI18
aI29
aI4
aI96
aI19
aI2
aI7
aI0
asS'SeekBehavior'
p12
(lp13
I35
aI99
aI4
aI128
aI63
aI49
aI53
aI57
aI50
aI80
aI37
assI2
(dp14
S'FleeBehavior'
p15
(lp16
I26
aI219
aI3
aI106
aI39
aI3
aI12
aI10
aI2
aI6
aI0
asS'PursueBehavior'
p17
(lp18
I11
aI148
aI4
aI120
aI43
aI10
aI57
aI14
aI3
aI29
aI0
asS'SeekBehavior'
p19
(lp20
I196
aI202
aI33
aI66
aI59
aI41
aI82
aI62
aI48
aI56
aI37
assI3
(dp21
S'FleeBehavior'
p22
(lp23
I76
aI42
aI34
aI143
aI82
aI49
aI92
aI51
aI36
aI84
aI37
asS'PursueBehavior'
p24
(lp25
I142
aI472
aI1
aI76
aI41
aI3
aI5
aI23
aI1
aI2
aI0
asS'SeekBehavior'
p26
(lp27
I15
aI55
aI5
aI73
aI18
aI2
aI54
aI12
aI15
aI5
aI0
asss.