(dp0
S'learn_scores'
p1
(lp2
F-303.0
aF-170.0
aF-315.0
aF-206.0
aF-231.0
aF-384.0
aF86.0
aF387.0
aF-233.0
aF-260.0
asS'test_scores'
p3
(lp4
F-476.0
asS'behavior_count'
p5
(dp6
I1
(dp7
S'FleeBehavior'
p8
(lp9
I124
aI9
aI7
aI15
aI17
aI35
aI161
aI102
aI2
aI0
aI0
asS'PursueBehavior'
p10
(lp11
I135
aI11
aI6
aI38
aI9
aI42
aI47
aI14
aI1
aI1
aI0
asS'SeekBehavior'
p12
(lp13
I125
aI20
aI12
aI34
aI26
aI118
aI77
aI78
aI31
aI29
aI427
assI2
(dp14
S'FleeBehavior'
p15
(lp16
I143
aI1
aI21
aI17
aI51
aI84
aI95
aI57
aI30
aI22
aI427
asS'PursueBehavior'
p17
(lp18
I96
aI17
aI4
aI17
aI1
aI78
aI54
aI72
aI2
aI6
aI0
asS'SeekBehavior'
p19
(lp20
I145
aI22
aI0
aI52
aI0
aI33
aI135
aI64
aI2
aI2
aI0
asss.