(dp0
S'learn_scores'
p1
(lp2
F-205.0
aF-289.0
aF-147.0
aF-308.0
aF-257.0
aF-477.0
aF-148.0
aF-322.0
aF117.0
aF-684.0
asS'test_scores'
p3
(lp4
F-134.0
asS'behavior_count'
p5
(dp6
I1
(dp7
S'FleeBehavior'
p8
(lp9
I76
aI109
aI71
aI0
aI46
aI122
aI35
aI74
aI81
aI295
aI4
asS'PursueBehavior'
p10
(lp11
I33
aI55
aI10
aI16
aI80
aI147
aI23
aI25
aI59
aI108
aI0
asS'SeekBehavior'
p12
(lp13
I17
aI46
aI17
aI13
aI42
aI129
aI11
aI34
aI24
aI162
aI41
assI2
(dp14
S'FleeBehavior'
p15
(lp16
I65
aI86
aI49
aI17
aI39
aI186
aI12
aI56
aI73
aI286
aI45
asS'PursueBehavior'
p17
(lp18
I46
aI90
aI41
aI9
aI58
aI126
aI27
aI31
aI53
aI144
aI0
asS'SeekBehavior'
p19
(lp20
I15
aI34
aI7
aI2
aI70
aI86
aI29
aI46
aI38
aI134
aI0
asss.