(dp0
S'learn_scores'
p1
(lp2
F-170.0
aF-274.0
aF-155.0
aF-65.0
aF-188.0
aF23.0
aF-177.0
aF-328.0
aF-153.0
aF-242.0
asS'test_scores'
p3
(lp4
F-251.0
asS'behavior_count'
p5
(dp6
I1
(dp7
S'FleeBehavior'
p8
(lp9
I20
aI53
aI25
aI77
aI9
aI45
aI20
aI95
aI98
aI14
aI5
asS'PursueBehavior'
p10
(lp11
I8
aI57
aI10
aI44
aI6
aI56
aI22
aI70
aI71
aI15
aI23
asS'SeekBehavior'
p12
(lp13
I12
aI75
aI31
aI45
aI23
aI167
aI5
aI84
aI55
aI3
aI3
assI2
(dp14
S'FleeBehavior'
p15
(lp16
I8
aI47
aI16
aI43
aI19
aI81
aI16
aI77
aI65
aI15
aI0
asS'PursueBehavior'
p17
(lp18
I23
aI94
aI34
aI25
aI4
aI71
aI24
aI83
aI83
aI7
aI0
asS'SeekBehavior'
p19
(lp20
I9
aI44
aI15
aI97
aI15
aI115
aI7
aI88
aI76
aI10
aI31
assI3
(dp21
S'FleeBehavior'
p22
(lp23
I30
aI85
aI20
aI72
aI27
aI95
aI18
aI115
aI105
aI17
aI13
asS'PursueBehavior'
p24
(lp25
I10
aI76
aI23
aI33
aI4
aI41
aI15
aI52
aI70
aI10
aI18
asS'SeekBehavior'
p26
(lp27
I0
aI24
aI22
aI60
aI7
aI131
aI14
aI81
aI49
aI5
aI0
asss.