(dp0
S'learn_scores'
p1
(lp2
F30.0
aF-126.0
aF-240.0
aF-15.0
aF-269.0
aF-240.0
aF-161.0
aF-251.0
aF-224.0
aF118.0
asS'test_scores'
p3
(lp4
F-244.0
asS'behavior_count'
p5
(dp6
I1
(dp7
S'FleeBehavior'
p8
(lp9
I67
aI18
aI12
aI15
aI8
aI16
aI8
aI10
aI9
aI58
aI0
asS'PursueBehavior'
p10
(lp11
I116
aI14
aI26
aI65
aI11
aI10
aI10
aI6
aI1
aI28
aI0
asS'SeekBehavior'
p12
(lp13
I68
aI15
aI13
aI36
aI11
aI95
aI23
aI46
aI24
aI56
aI55
assI2
(dp14
S'FleeBehavior'
p15
(lp16
I94
aI16
aI24
aI39
aI13
aI30
aI20
aI22
aI23
aI84
aI55
asS'PursueBehavior'
p17
(lp18
I100
aI15
aI9
aI22
aI9
aI79
aI10
aI0
aI1
aI26
aI0
asS'SeekBehavior'
p19
(lp20
I56
aI15
aI18
aI54
aI8
aI11
aI11
aI39
aI10
aI32
aI0
asss.