(dp0
S'learn_scores'
p1
(lp2
F-269.0
aF-970.0
aF-258.0
aF64.0
aF-135.0
aF-230.0
aF-731.0
aF-160.0
aF-215.0
aF-232.0
asS'test_scores'
p3
(lp4
F-223.0
asS'behavior_count'
p5
(dp6
I1
(dp7
S'FleeBehavior'
p8
(lp9
I17
aI494
aI20
aI59
aI25
aI40
aI326
aI46
aI9
aI23
aI39
asS'PursueBehavior'
p10
(lp11
I7
aI166
aI9
aI39
aI3
aI43
aI212
aI9
aI11
aI14
aI0
asS'SeekBehavior'
p12
(lp13
I6
aI221
aI10
aI18
aI18
aI58
aI144
aI26
aI16
aI6
aI95
assI2
(dp14
S'FleeBehavior'
p15
(lp16
I19
aI454
aI14
aI26
aI10
aI51
aI275
aI63
aI26
aI29
aI101
asS'PursueBehavior'
p17
(lp18
I2
aI225
aI24
aI75
aI15
aI51
aI199
aI0
aI0
aI11
aI0
asS'SeekBehavior'
p19
(lp20
I9
aI202
aI0
aI15
aI20
aI39
aI207
aI17
aI10
aI3
aI32
asss.