(dp0
S'learn_scores'
p1
(lp2
F-172.0
aF-254.0
aF-323.0
aF-161.0
aF-190.0
aF-157.0
aF195.0
aF-154.0
aF-176.0
aF-126.0
asS'test_scores'
p3
(lp4
F-169.0
asS'behavior_count'
p5
(dp6
I1
(dp7
S'FleeBehavior'
p8
(lp9
I43
aI18
aI0
aI0
aI26
aI28
aI21
aI11
aI24
aI9
aI2
asS'PursueBehavior'
p10
(lp11
I24
aI6
aI2
aI12
aI50
aI19
aI14
aI29
aI15
aI30
aI60
asS'SeekBehavior'
p12
(lp13
I26
aI11
aI21
aI29
aI35
aI21
aI41
aI35
aI18
aI8
aI18
assI2
(dp14
S'FleeBehavior'
p15
(lp16
I12
aI31
aI12
aI5
aI21
aI13
aI20
aI52
aI17
aI0
aI0
asS'PursueBehavior'
p17
(lp18
I45
aI1
aI0
aI28
aI61
aI10
aI9
aI20
aI26
aI38
aI4
asS'SeekBehavior'
p19
(lp20
I36
aI2
aI11
aI8
aI29
aI45
aI47
aI2
aI14
aI9
aI75
assI3
(dp21
S'FleeBehavior'
p22
(lp23
I46
aI9
aI7
aI7
aI51
aI24
aI18
aI18
aI44
aI17
aI56
asS'PursueBehavior'
p24
(lp25
I26
aI25
aI12
aI34
aI38
aI21
aI41
aI48
aI11
aI28
aI23
asS'SeekBehavior'
p26
(lp27
I20
aI0
aI4
aI0
aI21
aI22
aI16
aI8
aI1
aI1
aI0
asss.