(dp0
S'learn_scores'
p1
(lp2
F360.0
aF1484.0
aF1191.0
aF900.0
aF2659.0
aF-329.0
aF2640.0
aF243.0
aF1628.0
aF876.0
asS'test_scores'
p3
(lp4
F-273.0
asS'behavior_count'
p5
(dp6
I1
(dp7
S'FleeBehavior'
p8
(lp9
I17
aI44
aI148
aI16
aI49
aI0
aI50
aI3
aI28
aI19
aI0
asS'PursueBehavior'
p10
(lp11
I24
aI63
aI49
aI59
aI85
aI0
aI64
aI1
aI52
aI35
aI0
asS'SeekBehavior'
p12
(lp13
I50
aI190
aI53
aI135
aI197
aI20
aI236
aI64
aI173
aI81
aI34
assI2
(dp14
S'FleeBehavior'
p15
(lp16
I46
aI189
aI120
aI135
aI251
aI15
aI252
aI34
aI172
aI87
aI17
asS'PursueBehavior'
p17
(lp18
I26
aI68
aI50
aI53
aI28
aI3
aI70
aI24
aI44
aI35
aI17
asS'SeekBehavior'
p19
(lp20
I18
aI40
aI79
aI22
aI52
aI1
aI28
aI9
aI36
aI13
aI0
assI3
(dp21
S'FleeBehavior'
p22
(lp23
I50
aI62
aI103
aI38
aI61
aI6
aI53
aI43
aI61
aI38
aI0
asS'PursueBehavior'
p24
(lp25
I21
aI200
aI125
aI125
aI220
aI13
aI227
aI12
aI131
aI61
aI34
asS'SeekBehavior'
p26
(lp27
I19
aI35
aI21
aI47
aI50
aI0
aI70
aI12
aI60
aI35
aI0
assI4
(dp28
S'FleeBehavior'
p29
(lp30
I71
aI185
aI153
aI144
aI71
aI16
aI151
aI52
aI95
aI125
aI33
asS'PursueBehavior'
p31
(lp32
I8
aI64
aI82
aI24
aI165
aI2
aI104
aI1
aI62
aI1
aI0
asS'SeekBehavior'
p33
(lp34
I11
aI47
aI14
aI42
aI95
aI1
aI95
aI14
aI95
aI8
aI0
asss.