(dp0
S'learn_scores'
p1
(lp2
F1023.0
aF1282.0
aF2623.0
aF2633.0
aF871.0
aF729.0
aF-45.0
aF1623.0
aF2853.0
aF2816.0
asS'test_scores'
p3
(lp4
F3048.0
asS'behavior_count'
p5
(dp6
I1
(dp7
S'FleeBehavior'
p8
(lp9
I31
aI53
aI53
aI38
aI11
aI14
aI1
aI31
aI36
aI47
aI36
asS'PursueBehavior'
p10
(lp11
I83
aI54
aI125
aI148
aI63
aI67
aI2
aI168
aI142
aI78
aI281
asS'SeekBehavior'
p12
(lp13
I134
aI172
aI189
aI171
aI76
aI101
aI53
aI99
aI159
aI249
aI25
assI2
(dp14
S'FleeBehavior'
p15
(lp16
I112
aI135
aI122
aI188
aI58
aI54
aI52
aI91
aI179
aI145
aI210
asS'PursueBehavior'
p17
(lp18
I71
aI64
aI49
aI70
aI45
aI66
aI2
aI99
aI71
aI25
aI97
asS'SeekBehavior'
p19
(lp20
I64
aI80
aI196
aI99
aI47
aI62
aI2
aI108
aI87
aI204
aI35
assI3
(dp21
S'FleeBehavior'
p22
(lp23
I35
aI20
aI78
aI42
aI6
aI28
aI0
aI77
aI43
aI47
aI24
asS'PursueBehavior'
p24
(lp25
I166
aI125
aI130
aI248
aI108
aI130
aI53
aI170
aI240
aI293
aI279
asS'SeekBehavior'
p26
(lp27
I46
aI133
aI159
aI67
aI36
aI23
aI3
aI51
aI54
aI34
aI39
assI4
(dp28
S'FleeBehavior'
p29
(lp30
I105
aI133
aI165
aI157
aI109
aI141
aI51
aI213
aI256
aI293
aI182
asS'PursueBehavior'
p31
(lp32
I113
aI113
aI94
aI150
aI13
aI31
aI2
aI49
aI43
aI40
aI121
asS'SeekBehavior'
p33
(lp34
I29
aI32
aI108
aI50
aI27
aI9
aI2
aI35
aI38
aI41
aI39
asss.