(dp0
S'learn_scores'
p1
(lp2
F-134.0
aF645.0
aF-125.0
aF-361.0
aF-193.0
aF-171.0
aF-170.0
aF-232.0
aF192.0
aF-131.0
asS'test_scores'
p3
(lp4
F-107.0
asS'behavior_count'
p5
(dp6
I1
(dp7
S'FleeBehavior'
p8
(lp9
I18
aI35
aI11
aI2
aI70
aI2
aI9
aI14
aI56
aI14
aI0
asS'PursueBehavior'
p10
(lp11
I12
aI62
aI26
aI17
aI21
aI26
aI25
aI129
aI44
aI55
aI58
asS'SeekBehavior'
p12
(lp13
I14
aI39
aI9
aI3
aI23
aI13
aI6
aI10
aI79
aI13
aI0
assI2
(dp14
S'FleeBehavior'
p15
(lp16
I11
aI44
aI9
aI7
aI9
aI8
aI13
aI15
aI93
aI33
aI2
asS'PursueBehavior'
p17
(lp18
I16
aI48
aI21
aI9
aI84
aI25
aI24
aI126
aI61
aI40
aI56
asS'SeekBehavior'
p19
(lp20
I17
aI44
aI16
aI6
aI21
aI8
aI3
aI12
aI25
aI8
aI0
assI3
(dp21
S'FleeBehavior'
p22
(lp23
I8
aI39
aI5
aI4
aI75
aI10
aI9
aI47
aI21
aI11
aI0
asS'PursueBehavior'
p24
(lp25
I18
aI47
aI24
aI15
aI27
aI22
aI22
aI74
aI82
aI55
aI57
asS'SeekBehavior'
p26
(lp27
I18
aI50
aI17
aI3
aI12
aI9
aI9
aI31
aI75
aI15
aI0
asss.