(dp0
S'learn_scores'
p1
(lp2
F-242.0
aF-135.0
aF-479.0
aF-286.0
aF-258.0
aF287.0
aF-187.0
aF-166.0
aF-275.0
aF-251.0
asS'test_scores'
p3
(lp4
F186.0
asS'behavior_count'
p5
(dp6
I1
(dp7
S'FleeBehavior'
p8
(lp9
I5
aI17
aI80
aI164
aI2
aI28
aI50
aI41
aI56
aI3
aI0
asS'PursueBehavior'
p10
(lp11
I16
aI19
aI186
aI26
aI15
aI39
aI33
aI23
aI73
aI24
aI115
asS'SeekBehavior'
p12
(lp13
I11
aI20
aI164
aI17
aI11
aI147
aI15
aI13
aI57
aI4
aI0
assI2
(dp14
S'FleeBehavior'
p15
(lp16
I16
aI13
aI114
aI75
aI7
aI28
aI8
aI12
aI66
aI2
aI1
asS'PursueBehavior'
p17
(lp18
I8
aI30
aI140
aI50
aI17
aI150
aI26
aI32
aI57
aI28
aI114
asS'SeekBehavior'
p19
(lp20
I8
aI13
aI176
aI82
aI4
aI36
aI63
aI33
aI63
aI1
aI0
assI3
(dp21
S'FleeBehavior'
p22
(lp23
I13
aI26
aI142
aI38
aI11
aI28
aI25
aI20
aI18
aI3
aI0
asS'PursueBehavior'
p24
(lp25
I13
aI18
aI148
aI124
aI17
aI48
aI41
aI39
aI49
aI27
aI114
asS'SeekBehavior'
p26
(lp27
I6
aI12
aI140
aI44
aI0
aI137
aI31
aI18
aI118
aI1
aI0
asss.