(dp0
S'learn_scores'
p1
(lp2
F-82.0
aF-151.0
aF-233.0
aF-279.0
aF-242.0
aF136.0
aF-189.0
aF-132.0
aF-260.0
aF-361.0
asS'test_scores'
p3
(lp4
F-252.0
asS'behavior_count'
p5
(dp6
I1
(dp7
S'FleeBehavior'
p8
(lp9
I76
aI24
aI1
aI62
aI2
aI13
aI2
aI4
aI3
aI2
aI0
asS'PursueBehavior'
p10
(lp11
I29
aI45
aI1
aI14
aI0
aI64
aI23
aI1
aI18
aI55
aI0
asS'SeekBehavior'
p12
(lp13
I68
aI3
aI31
aI14
aI30
aI78
aI75
aI48
aI60
aI115
aI63
assI2
(dp14
S'FleeBehavior'
p15
(lp16
I36
aI31
aI3
aI13
aI2
aI48
aI1
aI3
aI4
aI2
aI0
asS'PursueBehavior'
p17
(lp18
I91
aI13
aI8
aI12
aI5
aI52
aI10
aI6
aI2
aI12
aI0
asS'SeekBehavior'
p19
(lp20
I45
aI28
aI22
aI65
aI25
aI55
aI89
aI43
aI74
aI158
aI63
assI3
(dp21
S'FleeBehavior'
p22
(lp23
I29
aI37
aI11
aI31
aI30
aI107
aI37
aI51
aI61
aI156
aI63
asS'PursueBehavior'
p24
(lp25
I33
aI21
aI9
aI30
aI2
aI19
aI32
aI1
aI5
aI6
aI0
asS'SeekBehavior'
p26
(lp27
I110
aI14
aI13
aI28
aI0
aI29
aI30
aI0
aI14
aI9
aI0
asss.