(dp0
S'learn_scores'
p1
(lp2
F2478.0
aF3038.0
aF2876.0
aF2642.0
aF2584.0
aF3015.0
aF2675.0
aF2459.0
aF3016.0
aF3133.0
aF2837.0
aF3045.0
aF3060.0
aF2642.0
aF2445.0
aF2642.0
aF2446.0
aF2791.0
aF2667.0
aF-85.0
aF2644.0
aF2420.0
aF1350.0
aF3022.0
aF2622.0
aF-279.0
aF2850.0
aF2818.0
aF2631.0
aF2426.0
aF645.0
aF3260.0
aF634.0
aF2842.0
aF2630.0
aF2651.0
aF3061.0
aF2861.0
aF2782.0
aF2663.0
aF2870.0
aF2827.0
aF2836.0
aF2845.0
aF2823.0
aF2636.0
aF1040.0
aF2589.0
aF2858.0
aF2834.0
asS'test_scores'
p3
(lp4
F179.0
asS'behavior_count'
p5
(dp6
I1
(dp7
S'FleeBehavior'
p8
(lp9
I128
aI135
aI58
aI184
aI122
aI116
aI127
aI64
aI91
aI102
aI83
aI72
aI53
aI100
aI40
aI89
aI35
aI90
aI105
aI43
aI124
aI125
aI81
aI132
aI105
aI15
aI92
aI37
aI118
aI56
aI28
aI113
aI29
aI121
aI55
aI97
aI45
aI80
aI118
aI132
aI76
aI80
aI64
aI96
aI95
aI60
aI69
aI80
aI66
aI67
aI38
asS'PursueBehavior'
p10
(lp11
I102
aI86
aI208
aI49
aI85
aI113
aI135
aI98
aI248
aI68
aI202
aI114
aI170
aI76
aI38
aI238
aI259
aI72
aI134
aI1
aI48
aI204
aI195
aI124
aI60
aI7
aI224
aI319
aI53
aI291
aI36
aI200
aI105
aI90
aI264
aI40
aI96
aI69
aI96
aI143
aI153
aI64
aI181
aI156
aI208
aI232
aI97
aI288
aI216
aI220
aI24
asS'SeekBehavior'
p12
(lp13
I82
aI131
aI48
aI115
aI199
aI146
aI53
aI169
aI35
aI287
aI68
aI159
aI107
aI172
aI267
aI21
aI50
aI237
aI84
aI12
aI174
aI41
aI25
aI112
aI203
aI8
aI24
aI16
aI188
aI17
aI72
aI17
aI3
aI137
aI41
aI202
aI188
aI180
aI194
aI52
aI91
aI219
aI109
aI93
aI64
aI62
aI55
aI33
aI50
aI69
aI0
assI2
(dp14
S'FleeBehavior'
p15
(lp16
I65
aI127
aI145
aI91
aI119
aI78
aI123
aI110
aI57
aI206
aI158
aI119
aI145
aI37
aI159
aI126
aI120
aI178
aI138
aI8
aI158
aI131
aI191
aI96
aI102
aI6
aI58
aI81
aI254
aI168
aI75
aI215
aI18
aI161
aI77
aI165
aI44
aI44
aI179
aI43
aI85
aI239
aI117
aI123
aI207
aI95
aI122
aI48
aI99
aI99
aI2
asS'PursueBehavior'
p17
(lp18
I50
aI152
aI93
aI159
aI172
aI223
aI28
aI100
aI215
aI181
aI103
aI117
aI41
aI207
aI116
aI138
aI73
aI167
aI76
aI24
aI48
aI134
aI38
aI72
aI85
aI2
aI96
aI107
aI86
aI165
aI31
aI66
aI20
aI104
aI158
aI105
aI129
aI59
aI136
aI155
aI114
aI59
aI84
aI30
aI58
aI63
aI54
aI163
aI34
aI80
aI14
asS'SeekBehavior'
p19
(lp20
I197
aI73
aI76
aI98
aI115
aI74
aI164
aI121
aI102
aI70
aI92
aI109
aI144
aI104
aI70
aI84
aI151
aI54
aI109
aI23
aI140
aI105
aI72
aI200
aI181
aI21
aI186
aI184
aI19
aI31
aI30
aI49
aI99
aI83
aI125
aI69
aI156
aI226
aI93
aI129
aI121
aI65
aI153
aI192
aI102
aI196
aI44
aI190
aI199
aI177
aI45
assI3
(dp21
S'FleeBehavior'
p22
(lp23
I122
aI85
aI130
aI84
aI154
aI156
aI50
aI70
aI171
aI59
aI219
aI121
aI106
aI37
aI64
aI159
aI147
aI278
aI147
aI16
aI269
aI85
aI47
aI186
aI120
aI7
aI68
aI102
aI265
aI12
aI59
aI183
aI6
aI18
aI43
aI28
aI170
aI148
aI258
aI36
aI114
aI69
aI215
aI57
aI62
aI31
aI111
aI10
aI51
aI73
aI0
asS'PursueBehavior'
p24
(lp25
I72
aI126
aI83
aI98
aI140
aI74
aI155
aI148
aI91
aI279
aI34
aI63
aI72
aI185
aI138
aI48
aI43
aI17
aI111
aI12
aI21
aI222
aI184
aI68
aI56
aI2
aI118
aI50
aI30
aI17
aI16
aI17
aI89
aI75
aI152
aI22
aI88
aI41
aI55
aI122
aI56
aI235
aI66
aI68
aI205
aI217
aI9
aI19
aI149
aI210
aI21
asS'SeekBehavior'
p26
(lp27
I118
aI141
aI101
aI166
aI112
aI145
aI110
aI113
aI112
aI119
aI100
aI161
aI152
aI126
aI143
aI141
aI154
aI104
aI65
aI27
aI56
aI63
aI69
aI114
aI192
aI20
aI154
aI220
aI64
aI335
aI61
aI130
aI41
aI255
aI165
aI289
aI71
aI140
aI95
aI169
aI150
aI59
aI73
aI220
aI100
aI106
aI100
aI372
aI132
aI73
aI40
asss.