(dp0
S'learn_scores'
p1
(lp2
F1518.0
aF2592.0
aF2612.0
aF3016.0
aF123.0
aF2804.0
aF65.0
aF2804.0
aF66.0
aF2921.0
asS'test_scores'
p3
(lp4
F1091.0
asS'behavior_count'
p5
(dp6
I1
(dp7
S'FleeBehavior'
p8
(lp9
I111
aI142
aI108
aI115
aI58
aI97
aI24
aI108
aI32
aI188
aI0
asS'PursueBehavior'
p10
(lp11
I104
aI130
aI165
aI126
aI14
aI75
aI10
aI158
aI2
aI133
aI0
asS'SeekBehavior'
p12
(lp13
I138
aI126
aI105
aI133
aI26
aI214
aI42
aI120
aI51
aI148
aI170
assI2
(dp14
S'FleeBehavior'
p15
(lp16
I93
aI130
aI147
aI81
aI58
aI90
aI32
aI122
aI2
aI46
aI2
asS'PursueBehavior'
p17
(lp18
I128
aI121
aI86
aI77
aI23
aI131
aI32
aI183
aI64
aI255
aI167
asS'SeekBehavior'
p19
(lp20
I132
aI147
aI145
aI216
aI17
aI165
aI11
aI81
aI19
aI168
aI0
assI3
(dp21
S'FleeBehavior'
p22
(lp23
I133
aI122
aI101
aI143
aI29
aI129
aI43
aI190
aI46
aI222
aI167
asS'PursueBehavior'
p24
(lp25
I94
aI99
aI155
aI121
aI10
aI125
aI6
aI78
aI37
aI186
aI2
asS'SeekBehavior'
p26
(lp27
I126
aI177
aI122
aI110
aI59
aI132
aI26
aI118
aI1
aI61
aI0
assI4
(dp28
S'FleeBehavior'
p29
(lp30
I134
aI151
aI135
aI108
aI46
aI122
aI7
aI82
aI2
aI85
aI1
asS'PursueBehavior'
p31
(lp32
I87
aI145
aI120
aI163
aI30
aI147
aI25
aI180
aI58
aI99
aI136
asS'SeekBehavior'
p33
(lp34
I132
aI102
aI123
aI103
aI21
aI117
aI43
aI124
aI24
aI285
aI32
asss.