(dp0
S'learn_scores'
p1
(lp2
F2441.0
aF2456.0
aF2439.0
aF2836.0
aF2667.0
aF-18.0
aF2656.0
aF2464.0
aF2834.0
aF2605.0
asS'test_scores'
p3
(lp4
F2661.0
asS'behavior_count'
p5
(dp6
I1
(dp7
S'FleeBehavior'
p8
(lp9
I45
aI92
aI33
aI109
aI67
aI11
aI57
aI122
aI29
aI126
aI0
asS'PursueBehavior'
p10
(lp11
I187
aI133
aI210
aI128
aI158
aI17
aI186
aI124
aI274
aI157
aI121
asS'SeekBehavior'
p12
(lp13
I117
aI109
aI108
aI117
aI98
aI41
aI91
aI80
aI53
aI102
aI208
assI2
(dp14
S'FleeBehavior'
p15
(lp16
I164
aI158
aI137
aI115
aI216
aI39
aI158
aI189
aI253
aI201
aI244
asS'PursueBehavior'
p17
(lp18
I104
aI99
aI82
aI111
aI49
aI21
aI113
aI90
aI30
aI81
aI85
asS'SeekBehavior'
p19
(lp20
I81
aI77
aI132
aI128
aI58
aI9
aI63
aI47
aI73
aI103
aI0
asss.