(dp0
S'learn_scores'
p1
(lp2
F170.0
aF2440.0
aF2459.0
aF3071.0
aF-332.0
aF3241.0
aF3035.0
aF179.0
aF2609.0
aF116.0
asS'test_scores'
p3
(lp4
F1356.0
asS'behavior_count'
p5
(dp6
I1
(dp7
S'FleeBehavior'
p8
(lp9
I59
aI235
aI174
aI153
aI36
aI195
aI179
aI47
aI234
aI23
aI165
asS'PursueBehavior'
p10
(lp11
I26
aI67
aI88
aI85
aI4
aI90
aI131
aI22
aI126
aI28
aI120
asS'SeekBehavior'
p12
(lp13
I6
aI48
aI69
aI81
aI3
aI64
aI45
aI3
aI21
aI4
aI0
assI2
(dp14
S'FleeBehavior'
p15
(lp16
I12
aI72
aI57
aI50
aI21
aI54
aI56
aI38
aI30
aI8
aI33
asS'PursueBehavior'
p17
(lp18
I36
aI96
aI108
aI111
aI15
aI172
aI124
aI11
aI117
aI5
aI16
asS'SeekBehavior'
p19
(lp20
I43
aI182
aI166
aI158
aI6
aI123
aI175
aI23
aI234
aI42
aI236
assI3
(dp21
S'FleeBehavior'
p22
(lp23
I32
aI111
aI135
aI192
aI7
aI160
aI195
aI15
aI153
aI23
aI153
asS'PursueBehavior'
p24
(lp25
I37
aI187
aI150
aI81
aI35
aI148
aI109
aI35
aI137
aI23
aI105
asS'SeekBehavior'
p26
(lp27
I21
aI52
aI46
aI46
aI0
aI41
aI51
aI21
aI91
aI8
aI26
assI4
(dp28
S'FleeBehavior'
p29
(lp30
I16
aI77
aI55
aI84
aI2
aI69
aI57
aI4
aI19
aI1
aI48
asS'PursueBehavior'
p31
(lp32
I19
aI74
aI40
aI53
aI0
aI27
aI29
aI15
aI71
aI22
aI0
asS'SeekBehavior'
p33
(lp34
I55
aI199
aI236
aI182
aI40
aI253
aI269
aI52
aI291
aI31
aI236
asss.