(dp0
S'learn_scores'
p1
(lp2
F-310.0
aF54.0
aF-286.0
aF-223.0
aF-294.0
aF-127.0
aF-265.0
aF-150.0
aF-206.0
aF-179.0
asS'test_scores'
p3
(lp4
F-103.0
asS'behavior_count'
p5
(dp6
I1
(dp7
S'FleeBehavior'
p8
(lp9
I7
aI48
aI223
aI30
aI117
aI44
aI15
aI88
aI62
aI75
aI74
asS'PursueBehavior'
p10
(lp11
I14
aI44
aI9
aI4
aI74
aI2
aI155
aI69
aI6
aI9
aI0
asS'SeekBehavior'
p12
(lp13
I10
aI25
aI5
aI0
aI14
aI2
aI6
aI94
aI49
aI6
aI0
assI2
(dp14
S'FleeBehavior'
p15
(lp16
I11
aI80
aI153
aI28
aI54
aI46
aI64
aI82
aI61
aI70
aI73
asS'PursueBehavior'
p17
(lp18
I6
aI9
aI6
aI3
aI82
aI2
aI54
aI114
aI50
aI16
aI0
asS'SeekBehavior'
p19
(lp20
I13
aI27
aI78
aI2
aI69
aI0
aI57
aI54
aI6
aI3
aI0
asss.