(dp0
S'learn_scores'
p1
(lp2
F-186.0
aF-142.0
aF-66.0
aF-159.0
aF-203.0
aF14.0
aF-152.0
aF-275.0
aF-330.0
aF10.0
asS'test_scores'
p3
(lp4
F-375.0
asS'behavior_count'
p5
(dp6
I1
(dp7
S'FleeBehavior'
p8
(lp9
I25
aI24
aI31
aI10
aI92
aI14
aI7
aI23
aI11
aI12
aI0
asS'PursueBehavior'
p10
(lp11
I25
aI157
aI58
aI11
aI14
aI14
aI7
aI61
aI92
aI3
aI0
asS'SeekBehavior'
p12
(lp13
I87
aI32
aI58
aI59
aI48
aI59
aI49
aI62
aI138
aI66
aI476
assI2
(dp14
S'FleeBehavior'
p15
(lp16
I45
aI115
aI53
aI51
aI106
aI47
aI40
aI50
aI167
aI48
aI475
asS'PursueBehavior'
p17
(lp18
I30
aI16
aI59
aI21
aI16
aI15
aI12
aI82
aI26
aI22
aI0
asS'SeekBehavior'
p19
(lp20
I61
aI82
aI34
aI8
aI31
aI25
aI11
aI13
aI48
aI11
aI0
asss.