(dp0
S'learn_scores'
p1
(lp2
F2839.0
aF2826.0
aF-114.0
aF476.0
aF2846.0
aF2454.0
aF2638.0
aF475.0
aF2868.0
aF1925.0
asS'test_scores'
p3
(lp4
F3245.0
asS'behavior_count'
p5
(dp6
I1
(dp7
S'FleeBehavior'
p8
(lp9
I177
aI164
aI2
aI66
aI65
aI170
aI115
aI8
aI73
aI8
aI0
asS'PursueBehavior'
p10
(lp11
I59
aI121
aI5
aI15
aI158
aI29
aI8
aI6
aI173
aI129
aI0
asS'SeekBehavior'
p12
(lp13
I115
aI79
aI48
aI34
aI121
aI137
aI229
aI162
aI76
aI179
aI345
assI2
(dp14
S'FleeBehavior'
p15
(lp16
I214
aI184
aI1
aI59
aI47
aI78
aI21
aI7
aI18
aI85
aI0
asS'PursueBehavior'
p17
(lp18
I67
aI96
aI52
aI32
aI88
aI74
aI256
aI48
aI188
aI76
aI192
asS'SeekBehavior'
p19
(lp20
I70
aI84
aI2
aI24
aI209
aI184
aI75
aI121
aI116
aI154
aI153
assI3
(dp21
S'FleeBehavior'
p22
(lp23
I142
aI193
aI52
aI82
aI78
aI122
aI318
aI166
aI218
aI143
aI345
asS'PursueBehavior'
p24
(lp25
I127
aI70
aI0
aI19
aI185
aI151
aI20
aI7
aI49
aI120
aI0
asS'SeekBehavior'
p26
(lp27
I82
aI101
aI3
aI14
aI81
aI63
aI14
aI3
aI55
aI52
aI0
assI4
(dp28
S'FleeBehavior'
p29
(lp30
I102
aI55
aI6
aI60
aI41
aI56
aI30
aI7
aI8
aI71
aI0
asS'PursueBehavior'
p31
(lp32
I159
aI249
aI1
aI4
aI51
aI16
aI22
aI9
aI8
aI123
aI0
asS'SeekBehavior'
p33
(lp34
I90
aI60
aI48
aI50
aI252
aI264
aI300
aI160
aI306
aI121
aI345
asss.