(dp0
S'learn_scores'
p1
(lp2
F2757.0
aF1280.0
aF417.0
aF3026.0
aF2561.0
aF3010.0
aF1201.0
aF-329.0
aF2644.0
aF1418.0
asS'test_scores'
p3
(lp4
F2829.0
asS'behavior_count'
p5
(dp6
I1
(dp7
S'FleeBehavior'
p8
(lp9
I123
aI89
aI61
aI100
aI156
aI132
aI94
aI7
aI120
aI115
aI0
asS'PursueBehavior'
p10
(lp11
I164
aI73
aI27
aI127
aI119
aI159
aI88
aI0
aI149
aI71
aI0
asS'SeekBehavior'
p12
(lp13
I146
aI79
aI35
aI137
aI154
aI89
aI27
aI13
aI77
aI46
aI361
assI2
(dp14
S'FleeBehavior'
p15
(lp16
I102
aI55
aI17
aI95
aI135
aI143
aI28
aI0
aI138
aI78
aI18
asS'PursueBehavior'
p17
(lp18
I153
aI91
aI65
aI170
aI116
aI154
aI141
aI10
aI89
aI87
aI338
asS'SeekBehavior'
p19
(lp20
I178
aI95
aI41
aI99
aI178
aI83
aI40
aI10
aI119
aI67
aI5
assI3
(dp21
S'FleeBehavior'
p22
(lp23
I152
aI118
aI41
aI121
aI84
aI140
aI90
aI1
aI79
aI109
aI347
asS'PursueBehavior'
p24
(lp25
I116
aI71
aI52
aI111
aI246
aI160
aI67
aI0
aI97
aI73
aI14
asS'SeekBehavior'
p26
(lp27
I165
aI52
aI30
aI132
aI99
aI80
aI52
aI19
aI170
aI50
aI0
assI4
(dp28
S'FleeBehavior'
p29
(lp30
I187
aI86
aI46
aI83
aI165
aI166
aI117
aI0
aI92
aI73
aI3
asS'PursueBehavior'
p31
(lp32
I111
aI65
aI53
aI173
aI177
aI122
aI39
aI14
aI164
aI115
aI338
asS'SeekBehavior'
p33
(lp34
I135
aI90
aI24
aI108
aI87
aI92
aI53
aI5
aI90
aI44
aI20
asss.