(dp0
S'learn_scores'
p1
(lp2
F-221.0
aF-215.0
aF-19.0
aF-143.0
aF-210.0
aF-277.0
aF325.0
aF-26.0
aF-754.0
aF-142.0
asS'test_scores'
p3
(lp4
F-143.0
asS'behavior_count'
p5
(dp6
I1
(dp7
S'FleeBehavior'
p8
(lp9
I78
aI16
aI29
aI17
aI62
aI153
aI46
aI40
aI119
aI20
aI0
asS'PursueBehavior'
p10
(lp11
I120
aI3
aI43
aI10
aI181
aI25
aI95
aI8
aI438
aI4
aI0
asS'SeekBehavior'
p12
(lp13
I124
aI16
aI28
aI17
aI38
aI50
aI45
aI49
aI118
aI39
aI43
assI2
(dp14
S'FleeBehavior'
p15
(lp16
I94
aI8
aI40
aI19
aI150
aI93
aI38
aI42
aI261
aI34
aI43
asS'PursueBehavior'
p17
(lp18
I153
aI16
aI42
aI12
aI85
aI25
aI38
aI28
aI242
aI20
aI0
asS'SeekBehavior'
p19
(lp20
I75
aI11
aI18
aI13
aI45
aI109
aI110
aI26
aI171
aI8
aI0
asss.