(dp0
S'learn_scores'
p1
(lp2
F-133.0
aF56.0
aF-213.0
aF88.0
aF-313.0
aF-169.0
aF-221.0
aF-265.0
aF-206.0
aF-228.0
asS'test_scores'
p3
(lp4
F-105.0
asS'behavior_count'
p5
(dp6
I1
(dp7
S'FleeBehavior'
p8
(lp9
I15
aI33
aI27
aI29
aI31
aI44
aI16
aI6
aI26
aI28
aI0
asS'PursueBehavior'
p10
(lp11
I29
aI20
aI73
aI32
aI119
aI31
aI66
aI26
aI80
aI76
aI55
asS'SeekBehavior'
p12
(lp13
I10
aI162
aI24
aI132
aI114
aI15
aI50
aI4
aI11
aI35
aI0
assI2
(dp14
S'FleeBehavior'
p15
(lp16
I13
aI41
aI20
aI44
aI110
aI24
aI47
aI10
aI54
aI84
aI0
asS'PursueBehavior'
p17
(lp18
I18
aI151
aI44
aI80
aI74
aI17
aI27
aI0
aI10
aI1
aI0
asS'SeekBehavior'
p19
(lp20
I23
aI23
aI59
aI69
aI80
aI49
aI58
aI25
aI53
aI54
aI55
assI3
(dp21
S'FleeBehavior'
p22
(lp23
I34
aI105
aI61
aI58
aI150
aI45
aI65
aI29
aI71
aI68
aI55
asS'PursueBehavior'
p24
(lp25
I11
aI13
aI37
aI23
aI62
aI30
aI40
aI4
aI30
aI44
aI0
asS'SeekBehavior'
p26
(lp27
I9
aI96
aI25
aI111
aI51
aI15
aI26
aI2
aI16
aI27
aI0
asss.