(dp0
S'learn_scores'
p1
(lp2
F-179.0
aF-250.0
aF-232.0
aF-251.0
aF-306.0
aF-121.0
aF-174.0
aF-262.0
aF-138.0
aF97.0
asS'test_scores'
p3
(lp4
F-279.0
asS'behavior_count'
p5
(dp6
I1
(dp7
S'FleeBehavior'
p8
(lp9
I23
aI6
aI93
aI2
aI11
aI97
aI6
aI8
aI0
aI15
aI0
asS'PursueBehavior'
p10
(lp11
I12
aI32
aI10
aI4
aI98
aI32
aI2
aI39
aI1
aI15
aI0
asS'SeekBehavior'
p12
(lp13
I25
aI33
aI40
aI26
aI118
aI63
aI77
aI126
aI48
aI144
aI29
assI2
(dp14
S'FleeBehavior'
p15
(lp16
I16
aI20
aI70
aI0
aI50
aI68
aI3
aI7
aI2
aI13
aI0
asS'PursueBehavior'
p17
(lp18
I17
aI10
aI34
aI1
aI70
aI59
aI24
aI52
aI1
aI14
aI0
asS'SeekBehavior'
p19
(lp20
I27
aI41
aI39
aI31
aI106
aI65
aI58
aI114
aI46
aI147
aI29
assI3
(dp21
S'FleeBehavior'
p22
(lp23
I34
aI4
aI81
aI22
aI88
aI56
aI81
aI128
aI45
aI77
aI29
asS'PursueBehavior'
p24
(lp25
I14
aI15
aI17
aI3
aI71
aI62
aI2
aI22
aI2
aI17
aI0
asS'SeekBehavior'
p26
(lp27
I12
aI51
aI45
aI7
aI67
aI73
aI2
aI23
aI2
aI80
aI0
asss.