(dp0
S'learn_scores'
p1
(lp2
F-287.0
aF-61.0
aF-227.0
aF-278.0
aF15.0
aF-200.0
aF-370.0
aF-150.0
aF-195.0
aF-230.0
asS'test_scores'
p3
(lp4
F-179.0
asS'behavior_count'
p5
(dp6
I1
(dp7
S'FleeBehavior'
p8
(lp9
I8
aI19
aI17
aI1
aI16
aI2
aI10
aI3
aI1
aI3
aI0
asS'PursueBehavior'
p10
(lp11
I6
aI76
aI14
aI1
aI27
aI2
aI62
aI20
aI2
aI2
aI0
asS'SeekBehavior'
p12
(lp13
I14
aI57
aI6
aI27
aI43
aI67
aI219
aI48
aI43
aI46
aI40
assI2
(dp14
S'FleeBehavior'
p15
(lp16
I5
aI84
aI1
aI0
aI17
aI1
aI51
aI3
aI2
aI6
aI0
asS'PursueBehavior'
p17
(lp18
I5
aI24
aI6
aI1
aI21
aI17
aI109
aI0
aI4
aI1
aI0
asS'SeekBehavior'
p19
(lp20
I18
aI43
aI30
aI28
aI48
aI53
aI130
aI68
aI40
aI44
aI40
assI3
(dp21
S'FleeBehavior'
p22
(lp23
I18
aI47
aI34
aI20
aI30
aI62
aI127
aI60
aI43
aI47
aI40
asS'PursueBehavior'
p24
(lp25
I3
aI79
aI2
aI3
aI32
aI0
aI87
aI2
aI0
aI0
aI0
asS'SeekBehavior'
p26
(lp27
I7
aI25
aI1
aI6
aI23
aI9
aI76
aI8
aI2
aI3
aI0
asss.