(dp0
S'learn_scores'
p1
(lp2
F-156.0
aF-391.0
aF-432.0
aF-410.0
aF-134.0
aF-408.0
aF-268.0
aF-169.0
aF-300.0
aF128.0
asS'test_scores'
p3
(lp4
F-281.0
asS'behavior_count'
p5
(dp6
I1
(dp7
S'FleeBehavior'
p8
(lp9
I41
aI51
aI39
aI34
aI13
aI13
aI79
aI4
aI63
aI27
aI2
asS'PursueBehavior'
p10
(lp11
I17
aI28
aI39
aI32
aI10
aI149
aI41
aI29
aI57
aI49
aI0
asS'SeekBehavior'
p12
(lp13
I19
aI223
aI435
aI265
aI32
aI197
aI69
aI57
aI101
aI107
aI200
assI2
(dp14
S'FleeBehavior'
p15
(lp16
I22
aI72
aI47
aI133
aI33
aI168
aI147
aI65
aI175
aI106
aI198
asS'PursueBehavior'
p17
(lp18
I13
aI210
aI136
aI35
aI9
aI98
aI23
aI21
aI8
aI57
aI4
asS'SeekBehavior'
p19
(lp20
I41
aI19
aI329
aI162
aI12
aI93
aI18
aI4
aI37
aI20
aI0
asss.