(dp0
S'learn_scores'
p1
(lp2
F1664.0
aF2840.0
aF2857.0
aF2661.0
aF1647.0
aF2611.0
aF-273.0
aF-197.0
aF2585.0
aF2604.0
asS'test_scores'
p3
(lp4
F898.0
asS'behavior_count'
p5
(dp6
I1
(dp7
S'FleeBehavior'
p8
(lp9
I114
aI115
aI56
aI108
aI158
aI158
aI3
aI2
aI65
aI71
aI0
asS'PursueBehavior'
p10
(lp11
I175
aI91
aI43
aI71
aI67
aI57
aI0
aI1
aI44
aI86
aI13
asS'SeekBehavior'
p12
(lp13
I78
aI144
aI234
aI150
aI59
aI164
aI31
aI35
aI296
aI229
aI90
assI2
(dp14
S'FleeBehavior'
p15
(lp16
I54
aI70
aI73
aI114
aI82
aI288
aI26
aI28
aI306
aI262
aI66
asS'PursueBehavior'
p17
(lp18
I232
aI199
aI183
aI76
aI59
aI42
aI7
aI7
aI48
aI76
aI20
asS'SeekBehavior'
p19
(lp20
I81
aI81
aI77
aI139
aI143
aI49
aI0
aI3
aI51
aI48
aI17
assI3
(dp21
S'FleeBehavior'
p22
(lp23
I215
aI222
aI178
aI87
aI92
aI87
aI14
aI8
aI89
aI63
aI6
asS'PursueBehavior'
p24
(lp25
I62
aI41
aI62
aI209
aI161
aI251
aI18
aI28
aI270
aI184
aI25
asS'SeekBehavior'
p26
(lp27
I90
aI87
aI93
aI33
aI30
aI41
aI1
aI2
aI46
aI139
aI72
assI4
(dp28
S'FleeBehavior'
p29
(lp30
I111
aI34
aI37
aI84
aI144
aI255
aI15
aI8
aI122
aI170
aI75
asS'PursueBehavior'
p31
(lp32
I193
aI231
aI209
aI127
aI77
aI88
aI0
aI1
aI20
aI62
aI0
asS'SeekBehavior'
p33
(lp34
I62
aI85
aI87
aI118
aI62
aI36
aI18
aI28
aI263
aI154
aI27
asss.