(dp0
S'learn_scores'
p1
(lp2
F2852.0
aF2639.0
aF1722.0
aF2822.0
aF3058.0
aF2394.0
aF2849.0
aF1279.0
aF2602.0
aF2830.0
asS'test_scores'
p3
(lp4
F-275.0
asS'behavior_count'
p5
(dp6
I1
(dp7
S'FleeBehavior'
p8
(lp9
I147
aI41
aI24
aI48
aI60
aI72
aI60
aI17
aI37
aI49
aI0
asS'PursueBehavior'
p10
(lp11
I44
aI131
aI68
aI66
aI71
aI110
aI74
aI65
aI40
aI19
aI0
asS'SeekBehavior'
p12
(lp13
I147
aI179
aI267
aI254
aI201
aI214
aI207
aI149
aI311
aI292
aI26
assI2
(dp14
S'FleeBehavior'
p15
(lp16
I213
aI247
aI167
aI267
aI133
aI269
aI218
aI186
aI217
aI220
aI13
asS'PursueBehavior'
p17
(lp18
I83
aI55
aI71
aI60
aI126
aI65
aI104
aI37
aI106
aI103
aI13
asS'SeekBehavior'
p19
(lp20
I42
aI49
aI121
aI41
aI73
aI62
aI19
aI8
aI65
aI37
aI0
assI3
(dp21
S'FleeBehavior'
p22
(lp23
I114
aI67
aI47
aI70
aI45
aI48
aI133
aI38
aI140
aI156
aI3
asS'PursueBehavior'
p24
(lp25
I188
aI194
aI237
aI256
aI189
aI259
aI160
aI134
aI205
aI130
aI23
asS'SeekBehavior'
p26
(lp27
I36
aI90
aI75
aI42
aI98
aI89
aI48
aI59
aI43
aI74
aI0
assI4
(dp28
S'FleeBehavior'
p29
(lp30
I110
aI170
aI164
aI136
aI148
aI214
aI230
aI161
aI342
aI230
aI25
asS'PursueBehavior'
p31
(lp32
I174
aI137
aI134
aI108
aI70
aI48
aI30
aI9
aI7
aI50
aI0
asS'SeekBehavior'
p33
(lp34
I54
aI44
aI61
aI124
aI114
aI134
aI81
aI61
aI39
aI80
aI0
asss.