(dp0
S'learn_scores'
p1
(lp2
F2790.0
aF3200.0
aF2578.0
aF2588.0
aF665.0
aF403.0
aF142.0
aF-239.0
aF3025.0
aF2656.0
asS'test_scores'
p3
(lp4
F322.0
asS'behavior_count'
p5
(dp6
I1
(dp7
S'FleeBehavior'
p8
(lp9
I110
aI83
aI53
aI57
aI36
aI15
aI16
aI11
aI96
aI55
aI7
asS'PursueBehavior'
p10
(lp11
I185
aI238
aI293
aI249
aI77
aI65
aI63
aI18
aI220
aI187
aI81
asS'SeekBehavior'
p12
(lp13
I105
aI69
aI66
aI96
aI23
aI8
aI20
aI1
aI49
aI92
aI0
assI2
(dp14
S'FleeBehavior'
p15
(lp16
I131
aI117
aI88
aI73
aI51
aI48
aI32
aI7
aI99
aI96
aI74
asS'PursueBehavior'
p17
(lp18
I211
aI156
aI259
aI294
aI36
aI28
aI17
aI22
aI211
aI122
aI14
asS'SeekBehavior'
p19
(lp20
I58
aI117
aI65
aI35
aI49
aI11
aI50
aI1
aI55
aI116
aI0
assI3
(dp21
S'FleeBehavior'
p22
(lp23
I65
aI143
aI46
aI68
aI22
aI25
aI30
aI0
aI73
aI150
aI0
asS'PursueBehavior'
p24
(lp25
I68
aI51
aI70
aI48
aI3
aI2
aI10
aI2
aI71
aI33
aI0
asS'SeekBehavior'
p26
(lp27
I267
aI196
aI296
aI286
aI111
aI60
aI58
aI27
aI221
aI151
aI88
asss.