(dp0
S'learn_scores'
p1
(lp2
F2434.0
aF2657.0
aF2846.0
aF2832.0
aF2615.0
aF1183.0
aF2667.0
aF2660.0
aF2434.0
aF2855.0
asS'test_scores'
p3
(lp4
F2425.0
asS'behavior_count'
p5
(dp6
I1
(dp7
S'FleeBehavior'
p8
(lp9
I72
aI78
aI195
aI97
aI124
aI37
aI62
aI28
aI56
aI90
aI0
asS'PursueBehavior'
p10
(lp11
I118
aI117
aI56
aI118
aI109
aI101
aI156
aI202
aI196
aI66
aI70
asS'SeekBehavior'
p12
(lp13
I166
aI138
aI93
aI143
aI142
aI70
aI105
aI100
aI104
aI179
aI295
assI2
(dp14
S'FleeBehavior'
p15
(lp16
I151
aI198
aI155
aI187
aI188
aI121
aI187
aI152
aI181
aI228
aI288
asS'PursueBehavior'
p17
(lp18
I121
aI68
aI48
aI132
aI70
aI40
aI65
aI72
aI60
aI46
aI76
asS'SeekBehavior'
p19
(lp20
I84
aI67
aI141
aI39
aI117
aI46
aI71
aI106
aI115
aI61
aI1
asss.