(dp0
S'learn_scores'
p1
(lp2
F-420.0
aF-229.0
aF-137.0
aF-251.0
aF-170.0
aF-524.0
aF-216.0
aF-324.0
aF-352.0
aF-170.0
asS'test_scores'
p3
(lp4
F-600.0
asS'behavior_count'
p5
(dp6
I1
(dp7
S'FleeBehavior'
p8
(lp9
I108
aI1
aI39
aI6
aI12
aI54
aI32
aI21
aI63
aI49
aI551
asS'PursueBehavior'
p10
(lp11
I195
aI21
aI4
aI14
aI13
aI30
aI2
aI1
aI142
aI1
aI0
asS'SeekBehavior'
p12
(lp13
I38
aI28
aI5
aI11
aI15
aI351
aI3
aI3
aI58
aI1
aI0
assI2
(dp14
S'FleeBehavior'
p15
(lp16
I76
aI34
aI40
aI7
aI35
aI53
aI19
aI24
aI77
aI41
aI550
asS'PursueBehavior'
p17
(lp18
I200
aI1
aI5
aI14
aI2
aI363
aI9
aI0
aI26
aI6
aI0
asS'SeekBehavior'
p19
(lp20
I64
aI15
aI2
aI10
aI3
aI19
aI8
aI0
aI160
aI3
aI0
asss.