(dp0
S'learn_scores'
p1
(lp2
F2630.0
aF2629.0
aF2438.0
aF2639.0
aF2459.0
aF2649.0
aF2627.0
aF2431.0
aF2854.0
aF2464.0
asS'test_scores'
p3
(lp4
F2436.0
asS'behavior_count'
p5
(dp6
I1
(dp7
S'FleeBehavior'
p8
(lp9
I89
aI119
aI66
aI78
aI68
aI91
aI58
aI53
aI138
aI45
aI0
asS'PursueBehavior'
p10
(lp11
I136
aI160
aI156
aI180
aI145
aI163
aI85
aI216
aI73
aI154
aI113
asS'SeekBehavior'
p12
(lp13
I135
aI82
aI130
aI93
aI118
aI87
aI220
aI90
aI125
aI127
aI241
assI2
(dp14
S'FleeBehavior'
p15
(lp16
I172
aI255
aI218
aI262
aI193
aI153
aI211
aI158
aI184
aI184
aI206
asS'PursueBehavior'
p17
(lp18
I76
aI58
aI73
aI65
aI51
aI121
aI116
aI97
aI80
aI83
aI148
asS'SeekBehavior'
p19
(lp20
I112
aI48
aI61
aI24
aI87
aI67
aI36
aI104
aI72
aI59
aI0
asss.