(dp0
S'learn_scores'
p1
(lp2
F-161.0
aF-126.0
aF-233.0
aF-227.0
aF25.0
aF-335.0
aF-432.0
aF-252.0
aF-231.0
aF-161.0
asS'test_scores'
p3
(lp4
F-115.0
asS'behavior_count'
p5
(dp6
I1
(dp7
S'FleeBehavior'
p8
(lp9
I32
aI11
aI8
aI65
aI29
aI219
aI102
aI17
aI8
aI14
aI0
asS'PursueBehavior'
p10
(lp11
I15
aI20
aI14
aI24
aI27
aI25
aI109
aI27
aI22
aI27
aI186
asS'SeekBehavior'
p12
(lp13
I25
aI16
aI11
aI9
aI20
aI12
aI92
aI19
aI2
aI1
aI0
assI2
(dp14
S'FleeBehavior'
p15
(lp16
I14
aI17
aI4
aI18
aI27
aI77
aI40
aI13
aI8
aI17
aI5
asS'PursueBehavior'
p17
(lp18
I42
aI16
aI16
aI69
aI30
aI66
aI114
aI50
aI24
aI25
aI181
asS'SeekBehavior'
p19
(lp20
I16
aI13
aI13
aI11
aI19
aI113
aI149
aI0
aI0
aI0
aI0
assI3
(dp21
S'FleeBehavior'
p22
(lp23
I16
aI13
aI9
aI56
aI16
aI44
aI84
aI20
aI3
aI2
aI0
asS'PursueBehavior'
p24
(lp25
I30
aI17
aI18
aI28
aI34
aI101
aI109
aI38
aI28
aI34
aI185
asS'SeekBehavior'
p26
(lp27
I25
aI16
aI6
aI13
aI25
aI111
aI110
aI5
aI1
aI6
aI0
asss.