(dp0
S'learn_scores'
p1
(lp2
F2839.0
aF1467.0
aF2818.0
aF3052.0
aF419.0
aF572.0
aF1102.0
aF1035.0
aF2603.0
aF379.0
asS'test_scores'
p3
(lp4
F821.0
asS'behavior_count'
p5
(dp6
I1
(dp7
S'FleeBehavior'
p8
(lp9
I41
aI42
aI36
aI58
aI6
aI7
aI12
aI10
aI7
aI3
aI0
asS'PursueBehavior'
p10
(lp11
I180
aI263
aI275
aI126
aI91
aI77
aI183
aI89
aI85
aI64
aI220
asS'SeekBehavior'
p12
(lp13
I130
aI119
aI61
aI154
aI35
aI34
aI44
aI107
aI295
aI55
aI0
assI2
(dp14
S'FleeBehavior'
p15
(lp16
I139
aI197
aI216
aI108
aI53
aI53
aI149
aI57
aI149
aI50
aI141
asS'PursueBehavior'
p17
(lp18
I119
aI35
aI59
aI79
aI29
aI26
aI78
aI49
aI112
aI36
aI78
asS'SeekBehavior'
p19
(lp20
I93
aI191
aI97
aI151
aI50
aI39
aI12
aI99
aI126
aI35
aI0
assI3
(dp21
S'FleeBehavior'
p22
(lp23
I46
aI43
aI40
aI73
aI21
aI19
aI24
aI15
aI91
aI12
aI0
asS'PursueBehavior'
p24
(lp25
I154
aI300
aI256
aI226
aI88
aI86
aI207
aI179
aI278
aI105
aI217
asS'SeekBehavior'
p26
(lp27
I151
aI80
aI76
aI39
aI23
aI13
aI8
aI11
aI18
aI4
aI2
assI4
(dp28
S'FleeBehavior'
p29
(lp30
I82
aI241
aI43
aI204
aI95
aI66
aI183
aI107
aI250
aI90
aI139
asS'PursueBehavior'
p31
(lp32
I192
aI28
aI143
aI101
aI32
aI29
aI32
aI91
aI83
aI29
aI78
asS'SeekBehavior'
p33
(lp34
I77
aI154
aI186
aI33
aI4
aI23
aI23
aI7
aI54
aI2
aI2
asss.