(dp0
S'learn_scores'
p1
(lp2
F-167.0
aF-443.0
aF-32.0
aF-254.0
aF-161.0
aF-139.0
aF-258.0
aF-150.0
aF-143.0
aF-222.0
asS'test_scores'
p3
(lp4
F70.0
asS'behavior_count'
p5
(dp6
I1
(dp7
S'FleeBehavior'
p8
(lp9
I26
aI26
aI66
aI23
aI35
aI50
aI41
aI44
aI50
aI40
aI211
asS'PursueBehavior'
p10
(lp11
I12
aI330
aI24
aI19
aI16
aI0
aI83
aI10
aI1
aI2
aI0
asS'SeekBehavior'
p12
(lp13
I10
aI38
aI33
aI133
aI21
aI0
aI15
aI7
aI3
aI1
aI0
assI2
(dp14
S'FleeBehavior'
p15
(lp16
I30
aI12
aI52
aI19
aI37
aI35
aI47
aI46
aI38
aI38
aI210
asS'PursueBehavior'
p17
(lp18
I10
aI28
aI50
aI23
aI16
aI6
aI15
aI11
aI8
aI2
aI0
asS'SeekBehavior'
p19
(lp20
I8
aI354
aI20
aI132
aI18
aI8
aI76
aI4
aI7
aI2
aI0
asss.