(dp0
S'learn_scores'
p1
(lp2
F-162.0
aF-235.0
aF-147.0
aF196.0
aF-128.0
aF-226.0
aF-196.0
aF157.0
aF-412.0
aF-251.0
asS'test_scores'
p3
(lp4
F11.0
asS'behavior_count'
p5
(dp6
I1
(dp7
S'FleeBehavior'
p8
(lp9
I13
aI45
aI21
aI36
aI16
aI32
aI34
aI60
aI73
aI0
aI0
asS'PursueBehavior'
p10
(lp11
I22
aI50
aI18
aI46
aI11
aI13
aI50
aI86
aI80
aI14
aI50
asS'SeekBehavior'
p12
(lp13
I38
aI61
aI19
aI93
aI22
aI2
aI23
aI98
aI80
aI17
aI40
assI2
(dp14
S'FleeBehavior'
p15
(lp16
I20
aI19
aI3
aI41
aI11
aI11
aI35
aI67
aI55
aI17
aI8
asS'PursueBehavior'
p17
(lp18
I28
aI85
aI34
aI42
aI36
aI14
aI42
aI40
aI103
aI1
aI0
asS'SeekBehavior'
p19
(lp20
I25
aI52
aI21
aI92
aI1
aI21
aI30
aI137
aI74
aI13
aI82
assI3
(dp21
S'FleeBehavior'
p22
(lp23
I38
aI56
aI15
aI38
aI29
aI23
aI18
aI97
aI124
aI9
aI20
asS'PursueBehavior'
p24
(lp25
I29
aI87
aI16
aI79
aI10
aI23
aI56
aI70
aI49
aI17
aI70
asS'SeekBehavior'
p26
(lp27
I6
aI13
aI26
aI57
aI9
aI0
aI33
aI77
aI59
aI5
aI0
asss.