(dp0
S'learn_scores'
p1
(lp2
F-631.0
aF-175.0
aF-670.0
aF-143.0
aF-549.0
aF-143.0
aF-279.0
aF-249.0
aF-265.0
aF-276.0
asS'test_scores'
p3
(lp4
F-288.0
asS'behavior_count'
p5
(dp6
I1
(dp7
S'FleeBehavior'
p8
(lp9
I124
aI4
aI144
aI21
aI117
aI41
aI28
aI38
aI85
aI42
aI199
asS'PursueBehavior'
p10
(lp11
I365
aI24
aI30
aI23
aI17
aI17
aI0
aI12
aI27
aI27
aI0
asS'SeekBehavior'
p12
(lp13
I233
aI68
aI417
aI20
aI236
aI6
aI2
aI20
aI24
aI18
aI0
assI2
(dp14
S'FleeBehavior'
p15
(lp16
I172
aI5
aI143
aI24
aI39
aI32
aI16
aI66
aI61
aI43
aI199
asS'PursueBehavior'
p17
(lp18
I372
aI63
aI415
aI18
aI309
aI17
aI7
aI1
aI63
aI26
aI0
asS'SeekBehavior'
p19
(lp20
I177
aI28
aI32
aI22
aI22
aI15
aI6
aI3
aI11
aI18
aI0
asss.