(dp0
S'learn_scores'
p1
(lp2
F-319.0
aF-119.0
aF-133.0
aF-196.0
aF-170.0
aF-159.0
aF-326.0
aF159.0
aF-186.0
aF-329.0
asS'test_scores'
p3
(lp4
F-423.0
asS'behavior_count'
p5
(dp6
I1
(dp7
S'FleeBehavior'
p8
(lp9
I169
aI24
aI28
aI112
aI8
aI33
aI15
aI32
aI36
aI110
aI47
asS'PursueBehavior'
p10
(lp11
I51
aI28
aI19
aI130
aI18
aI26
aI0
aI40
aI13
aI24
aI0
asS'SeekBehavior'
p12
(lp13
I70
aI18
aI7
aI55
aI15
aI21
aI12
aI69
aI18
aI106
aI287
assI2
(dp14
S'FleeBehavior'
p15
(lp16
I52
aI15
aI28
aI130
aI1
aI20
aI0
aI87
aI40
aI101
aI240
asS'PursueBehavior'
p17
(lp18
I62
aI16
aI15
aI83
aI14
aI42
aI21
aI34
aI23
aI72
aI0
asS'SeekBehavior'
p19
(lp20
I176
aI39
aI11
aI84
aI26
aI18
aI5
aI20
aI3
aI66
aI93
asss.