(dp0
S'learn_scores'
p1
(lp2
F-204.0
aF-178.0
aF-129.0
aF6.0
aF-136.0
aF-186.0
aF-233.0
aF-531.0
aF160.0
aF-211.0
asS'test_scores'
p3
(lp4
F-205.0
asS'behavior_count'
p5
(dp6
I1
(dp7
S'FleeBehavior'
p8
(lp9
I28
aI5
aI40
aI55
aI31
aI61
aI71
aI129
aI67
aI85
aI126
asS'PursueBehavior'
p10
(lp11
I9
aI64
aI5
aI21
aI8
aI13
aI10
aI272
aI39
aI31
aI0
asS'SeekBehavior'
p12
(lp13
I7
aI20
aI5
aI19
aI8
aI23
aI63
aI41
aI105
aI16
aI0
assI2
(dp14
S'FleeBehavior'
p15
(lp16
I21
aI3
aI10
aI39
aI18
aI41
aI40
aI141
aI64
aI107
aI126
asS'PursueBehavior'
p17
(lp18
I11
aI25
aI17
aI31
aI12
aI18
aI19
aI277
aI87
aI19
aI0
asS'SeekBehavior'
p19
(lp20
I12
aI61
aI23
aI25
aI17
aI38
aI84
aI23
aI60
aI6
aI0
asss.