(dp0
S'learn_scores'
p1
(lp2
F-269.0
aF-290.0
aF-142.0
aF-151.0
aF-166.0
aF81.0
aF-157.0
aF-84.0
aF-250.0
aF-160.0
asS'test_scores'
p3
(lp4
F-136.0
asS'behavior_count'
p5
(dp6
I1
(dp7
S'FleeBehavior'
p8
(lp9
I13
aI54
aI18
aI12
aI18
aI41
aI30
aI46
aI118
aI19
aI0
asS'PursueBehavior'
p10
(lp11
I7
aI62
aI28
aI17
aI7
aI15
aI18
aI263
aI375
aI12
aI0
asS'SeekBehavior'
p12
(lp13
I10
aI95
aI17
aI43
aI62
aI34
aI30
aI86
aI58
aI50
aI57
assI2
(dp14
S'FleeBehavior'
p15
(lp16
I7
aI63
aI35
aI43
aI63
aI52
aI54
aI226
aI201
aI47
aI56
asS'PursueBehavior'
p17
(lp18
I9
aI76
aI11
aI10
aI12
aI19
aI6
aI76
aI113
aI33
aI0
asS'SeekBehavior'
p19
(lp20
I14
aI71
aI16
aI19
aI11
aI19
aI18
aI92
aI237
aI0
aI0
asss.