(dp0
S'learn_scores'
p1
(lp2
F-282.0
aF-246.0
aF113.0
aF-122.0
aF-163.0
aF-564.0
aF-152.0
aF-181.0
aF-145.0
aF-179.0
asS'test_scores'
p3
(lp4
F55.0
asS'behavior_count'
p5
(dp6
I1
(dp7
S'FleeBehavior'
p8
(lp9
I16
aI19
aI45
aI12
aI42
aI205
aI33
aI14
aI11
aI8
aI0
asS'PursueBehavior'
p10
(lp11
I45
aI13
aI49
aI53
aI28
aI93
aI51
aI70
aI38
aI26
aI126
asS'SeekBehavior'
p12
(lp13
I132
aI25
aI64
aI8
aI14
aI187
aI19
aI8
aI7
aI5
aI0
assI2
(dp14
S'FleeBehavior'
p15
(lp16
I14
aI32
aI93
aI39
aI41
aI202
aI36
aI24
aI27
aI1
aI0
asS'PursueBehavior'
p17
(lp18
I138
aI18
aI15
aI22
aI21
aI191
aI16
aI3
aI1
aI1
aI0
asS'SeekBehavior'
p19
(lp20
I41
aI7
aI50
aI12
aI22
aI91
aI51
aI65
aI27
aI37
aI125
assI3
(dp21
S'FleeBehavior'
p22
(lp23
I58
aI2
aI50
aI32
aI42
aI74
aI76
aI58
aI52
aI36
aI125
asS'PursueBehavior'
p24
(lp25
I15
aI40
aI95
aI21
aI17
aI194
aI14
aI12
aI3
aI2
aI0
asS'SeekBehavior'
p26
(lp27
I120
aI15
aI12
aI19
aI25
aI216
aI13
aI21
aI0
aI1
aI0
asss.