(dp0
S'learn_scores'
p1
(lp2
F-265.0
aF374.0
aF-233.0
aF-133.0
aF-136.0
aF-278.0
aF-307.0
aF-143.0
aF-226.0
aF-490.0
asS'test_scores'
p3
(lp4
F-67.0
asS'behavior_count'
p5
(dp6
I1
(dp7
S'FleeBehavior'
p8
(lp9
I32
aI16
aI31
aI15
aI53
aI14
aI42
aI50
aI54
aI121
aI88
asS'PursueBehavior'
p10
(lp11
I15
aI27
aI1
aI24
aI1
aI6
aI130
aI1
aI13
aI163
aI0
asS'SeekBehavior'
p12
(lp13
I99
aI74
aI1
aI15
aI3
aI8
aI16
aI3
aI70
aI157
aI0
assI2
(dp14
S'FleeBehavior'
p15
(lp16
I38
aI11
aI29
aI21
aI24
aI15
aI34
aI34
aI101
aI63
aI87
asS'PursueBehavior'
p17
(lp18
I14
aI40
aI2
aI23
aI15
aI7
aI17
aI10
aI32
aI352
aI0
asS'SeekBehavior'
p19
(lp20
I94
aI65
aI2
aI10
aI17
aI6
aI137
aI9
aI4
aI25
aI0
asss.