(dp0
S'learn_scores'
p1
(lp2
F-217.0
aF-7.0
aF68.0
aF-355.0
aF-141.0
aF-197.0
aF-250.0
aF-170.0
aF-279.0
aF-254.0
asS'test_scores'
p3
(lp4
F-143.0
asS'behavior_count'
p5
(dp6
I1
(dp7
S'FleeBehavior'
p8
(lp9
I10
aI30
aI17
aI88
aI21
aI3
aI27
aI14
aI2
aI10
aI0
asS'PursueBehavior'
p10
(lp11
I12
aI23
aI25
aI110
aI5
aI4
aI54
aI1
aI2
aI1
aI0
asS'SeekBehavior'
p12
(lp13
I16
aI25
aI60
aI78
aI26
aI30
aI90
aI36
aI25
aI24
aI64
assI2
(dp14
S'FleeBehavior'
p15
(lp16
I12
aI49
aI43
aI41
aI41
aI34
aI97
aI34
aI26
aI29
aI60
asS'PursueBehavior'
p17
(lp18
I19
aI2
aI38
aI25
aI2
aI1
aI9
aI14
aI3
aI1
aI4
asS'SeekBehavior'
p19
(lp20
I7
aI26
aI21
aI210
aI8
aI2
aI64
aI2
aI0
aI4
aI0
asss.