(dp0
S'learn_scores'
p1
(lp2
F-186.0
aF-300.0
aF-188.0
aF-155.0
aF286.0
aF-138.0
aF-202.0
aF-164.0
aF-134.0
aF-253.0
asS'test_scores'
p3
(lp4
F-159.0
asS'behavior_count'
p5
(dp6
I1
(dp7
S'FleeBehavior'
p8
(lp9
I9
aI23
aI18
aI21
aI34
aI11
aI5
aI23
aI10
aI58
aI0
asS'PursueBehavior'
p10
(lp11
I26
aI23
aI6
aI28
aI30
aI30
aI33
aI32
aI37
aI86
aI70
asS'SeekBehavior'
p12
(lp13
I11
aI175
aI15
aI17
aI41
aI8
aI5
aI20
aI8
aI20
aI0
assI2
(dp14
S'FleeBehavior'
p15
(lp16
I12
aI183
aI19
aI25
aI54
aI2
aI15
aI30
aI21
aI79
aI0
asS'PursueBehavior'
p17
(lp18
I10
aI23
aI14
aI15
aI19
aI2
aI1
aI12
aI1
aI17
aI0
asS'SeekBehavior'
p19
(lp20
I24
aI14
aI6
aI25
aI32
aI45
aI26
aI33
aI33
aI68
aI70
assI3
(dp21
S'FleeBehavior'
p22
(lp23
I25
aI59
aI36
aI9
aI52
aI37
aI26
aI61
aI27
aI89
aI69
asS'PursueBehavior'
p24
(lp25
I10
aI95
aI1
aI28
aI35
aI5
aI10
aI9
aI15
aI36
aI0
asS'SeekBehavior'
p26
(lp27
I11
aI66
aI2
aI28
aI17
aI7
aI6
aI5
aI12
aI38
aI0
asss.