(dp0
S'learn_scores'
p1
(lp2
F3018.0
aF2877.0
aF2820.0
aF-76.0
aF2847.0
aF3026.0
aF2627.0
aF301.0
aF2984.0
aF2668.0
asS'test_scores'
p3
(lp4
F701.0
asS'behavior_count'
p5
(dp6
I1
(dp7
S'FleeBehavior'
p8
(lp9
I153
aI97
aI46
aI34
aI53
aI20
aI12
aI4
aI20
aI13
aI0
asS'PursueBehavior'
p10
(lp11
I84
aI73
aI111
aI3
aI43
aI125
aI19
aI2
aI23
aI17
aI0
asS'SeekBehavior'
p12
(lp13
I135
aI143
aI213
aI30
aI247
aI219
aI332
aI104
aI363
aI292
aI180
assI2
(dp14
S'FleeBehavior'
p15
(lp16
I125
aI62
aI109
aI56
aI56
aI103
aI12
aI2
aI18
aI9
aI0
asS'PursueBehavior'
p17
(lp18
I108
aI94
aI131
aI10
aI234
aI137
aI46
aI37
aI28
aI53
aI20
asS'SeekBehavior'
p19
(lp20
I139
aI157
aI130
aI1
aI53
aI124
aI305
aI71
aI360
aI260
aI159
assI3
(dp21
S'FleeBehavior'
p22
(lp23
I164
aI158
aI262
aI61
aI111
aI324
aI249
aI13
aI65
aI192
aI179
asS'PursueBehavior'
p24
(lp25
I125
aI67
aI52
aI3
aI143
aI22
aI12
aI92
aI204
aI87
aI0
asS'SeekBehavior'
p26
(lp27
I83
aI88
aI56
aI3
aI89
aI18
aI102
aI5
aI137
aI43
aI0
assI4
(dp28
S'FleeBehavior'
p29
(lp30
I125
aI48
aI125
aI2
aI20
aI16
aI232
aI3
aI133
aI12
aI0
asS'PursueBehavior'
p31
(lp32
I96
aI137
aI70
aI35
aI77
aI20
aI13
aI0
aI42
aI14
aI0
asS'SeekBehavior'
p33
(lp34
I151
aI128
aI175
aI29
aI246
aI328
aI118
aI106
aI231
aI296
aI179
asss.