(dp0
S'learn_scores'
p1
(lp2
F-231.0
aF-210.0
aF-91.0
aF-36.0
aF60.0
aF-242.0
aF-272.0
aF-315.0
aF-2.0
aF-370.0
asS'test_scores'
p3
(lp4
F-233.0
asS'behavior_count'
p5
(dp6
I1
(dp7
S'FleeBehavior'
p8
(lp9
I34
aI0
aI89
aI45
aI134
aI2
aI99
aI83
aI17
aI2
aI7
asS'PursueBehavior'
p10
(lp11
I7
aI24
aI147
aI33
aI49
aI14
aI35
aI47
aI58
aI13
aI0
asS'SeekBehavior'
p12
(lp13
I1
aI17
aI126
aI59
aI28
aI16
aI49
aI56
aI28
aI6
aI26
assI2
(dp14
S'FleeBehavior'
p15
(lp16
I28
aI26
aI114
aI78
aI51
aI15
aI108
aI51
aI65
aI17
aI8
asS'PursueBehavior'
p17
(lp18
I10
aI4
aI136
aI37
aI71
aI11
aI23
aI53
aI36
aI0
aI0
asS'SeekBehavior'
p19
(lp20
I3
aI11
aI112
aI22
aI88
aI6
aI52
aI81
aI2
aI4
aI25
asss.