(dp0
S'learn_scores'
p1
(lp2
F268.0
aF451.0
aF3034.0
aF1436.0
aF1505.0
aF2667.0
aF2600.0
aF2807.0
aF3242.0
aF3061.0
aF1102.0
aF983.0
aF2676.0
aF2638.0
aF2647.0
aF-221.0
aF1354.0
aF715.0
aF-84.0
aF2853.0
aF2621.0
aF1150.0
aF56.0
aF2665.0
aF2868.0
aF1284.0
aF649.0
aF2569.0
aF2841.0
aF3044.0
aF3046.0
aF3432.0
aF2447.0
aF2623.0
aF426.0
aF1443.0
aF2814.0
aF2675.0
aF2415.0
aF2830.0
aF2627.0
aF1228.0
aF767.0
aF1363.0
aF2393.0
aF2827.0
aF930.0
aF2620.0
aF2820.0
aF1174.0
aF2827.0
aF2674.0
aF-115.0
aF2442.0
aF995.0
aF1774.0
aF1591.0
aF3195.0
aF2454.0
aF2820.0
aF2452.0
aF2426.0
aF2849.0
aF2610.0
aF2814.0
aF2448.0
aF2453.0
aF2653.0
aF2472.0
aF2631.0
aF2601.0
aF2834.0
aF2442.0
aF1663.0
aF1307.0
aF2397.0
aF541.0
aF2607.0
aF2431.0
aF2446.0
aF2648.0
aF2632.0
aF2443.0
aF2608.0
aF3051.0
aF2651.0
aF2837.0
aF2426.0
aF673.0
aF2847.0
aF2656.0
aF1303.0
aF2426.0
aF2854.0
aF2610.0
aF684.0
aF895.0
aF2861.0
aF2456.0
aF2778.0
asS'test_scores'
p3
(lp4
F3056.0
asS'behavior_count'
p5
(dp6
I1
(dp7
S'FleeBehavior'
p8
(lp9
I25
aI45
aI77
aI150
aI125
aI44
aI129
aI156
aI242
aI9
aI8
aI8
aI43
aI47
aI228
aI1
aI16
aI54
aI5
aI52
aI234
aI109
aI2
aI128
aI147
aI67
aI32
aI260
aI109
aI55
aI57
aI86
aI12
aI37
aI2
aI16
aI22
aI57
aI249
aI48
aI59
aI90
aI89
aI189
aI168
aI49
aI3
aI108
aI39
aI5
aI42
aI213
aI1
aI15
aI8
aI64
aI25
aI59
aI146
aI128
aI159
aI158
aI40
aI20
aI43
aI8
aI38
aI19
aI72
aI141
aI218
aI80
aI59
aI129
aI265
aI294
aI96
aI160
aI30
aI184
aI213
aI226
aI301
aI139
aI259
aI259
aI182
aI78
aI97
aI240
aI251
aI305
aI294
aI221
aI289
aI90
aI68
aI157
aI15
aI10
aI0
asS'PursueBehavior'
p10
(lp11
I24
aI67
aI63
aI90
aI50
aI215
aI176
aI91
aI75
aI201
aI220
aI164
aI168
aI213
aI39
aI13
aI24
aI21
aI38
aI129
aI45
aI74
aI5
aI86
aI84
aI109
aI61
aI41
aI138
aI157
aI206
aI88
aI236
aI226
aI80
aI189
aI61
aI92
aI15
aI247
aI186
aI92
aI7
aI11
aI16
aI62
aI73
aI215
aI174
aI83
aI253
aI11
aI18
aI135
aI171
aI134
aI118
aI206
aI102
aI143
aI87
aI96
aI212
aI244
aI254
aI284
aI260
aI241
aI197
aI146
aI42
aI108
aI35
aI14
aI6
aI18
aI2
aI36
aI136
aI11
aI23
aI43
aI15
aI100
aI12
aI9
aI109
aI239
aI45
aI13
aI19
aI16
aI10
aI26
aI23
aI4
aI47
aI146
aI155
aI198
aI227
asS'SeekBehavior'
p12
(lp13
I64
aI38
aI216
aI65
aI121
aI64
aI85
aI136
aI31
aI119
aI21
aI86
aI103
aI92
aI76
aI18
aI187
aI111
aI32
aI156
aI90
aI98
aI58
aI111
aI91
aI61
aI9
aI120
aI102
aI134
aI81
aI184
aI95
aI104
aI33
aI123
aI293
aI166
aI111
aI65
aI118
aI51
aI138
aI168
aI213
aI252
aI115
aI47
aI157
aI69
aI68
aI92
aI27
aI198
aI47
aI158
aI47
aI130
aI88
aI99
aI92
aI110
aI89
aI116
aI79
aI50
aI39
aI77
aI49
aI72
aI129
aI168
aI254
aI185
aI93
aI81
aI52
aI187
aI193
aI149
aI106
aI89
aI31
aI143
aI68
aI71
aI62
aI47
aI46
aI90
aI64
aI107
aI60
aI89
aI68
aI43
aI81
aI26
aI164
aI204
aI107
assI2
(dp14
S'FleeBehavior'
p15
(lp16
I23
aI92
aI201
aI95
aI161
aI73
aI196
aI127
aI238
aI192
aI36
aI8
aI56
aI90
aI236
aI4
aI20
aI20
aI9
aI22
aI138
aI139
aI2
aI45
aI46
aI140
aI32
aI50
aI148
aI201
aI273
aI137
aI208
aI243
aI10
aI229
aI167
aI90
aI101
aI264
aI128
aI25
aI4
aI15
aI51
aI151
aI59
aI28
aI269
aI89
aI40
aI191
aI26
aI55
aI173
aI180
aI115
aI76
aI9
aI36
aI113
aI68
aI90
aI214
aI305
aI25
aI32
aI111
aI122
aI56
aI160
aI123
aI289
aI263
aI175
aI274
aI22
aI97
aI147
aI115
aI63
aI12
aI51
aI212
aI143
aI146
aI87
aI15
aI60
aI187
aI190
aI185
aI238
aI84
aI81
aI35
aI149
aI246
aI242
aI118
aI250
asS'PursueBehavior'
p17
(lp18
I53
aI22
aI111
aI133
aI90
aI163
aI81
aI25
aI30
aI91
aI153
aI181
aI225
aI140
aI62
aI27
aI149
aI111
aI64
aI232
aI57
aI109
aI2
aI47
aI82
aI87
aI50
aI190
aI63
aI79
aI59
aI70
aI12
aI94
aI20
aI82
aI100
aI93
aI92
aI83
aI96
aI61
aI101
aI253
aI128
aI141
aI65
aI174
aI90
aI38
aI115
aI71
aI13
aI277
aI47
aI113
aI47
aI160
aI93
aI121
aI61
aI121
aI153
aI145
aI64
aI106
aI59
aI144
aI102
aI140
aI185
aI96
aI55
aI56
aI148
aI107
aI66
aI156
aI97
aI89
aI95
aI67
aI97
aI85
aI154
aI80
aI112
aI164
aI114
aI88
aI133
aI197
aI107
aI76
aI116
aI45
aI40
aI63
aI80
aI273
aI84
asS'SeekBehavior'
p19
(lp20
I36
aI36
aI44
aI76
aI45
aI87
aI113
aI231
aI80
aI46
aI59
aI68
aI33
aI122
aI45
aI1
aI58
aI55
aI2
aI83
aI174
aI32
aI60
aI233
aI194
aI9
aI20
aI181
aI138
aI66
aI12
aI151
aI123
aI30
aI84
aI17
aI109
aI132
aI182
aI13
aI139
aI146
aI129
aI99
aI218
aI71
aI67
aI168
aI11
aI29
aI208
aI54
aI7
aI16
aI5
aI63
aI28
aI159
aI234
aI213
aI164
aI175
aI98
aI21
aI7
aI211
aI246
aI82
aI94
aI163
aI44
aI137
aI4
aI9
aI41
aI12
aI62
aI130
aI115
aI140
aI184
aI279
aI199
aI85
aI42
aI113
aI154
aI185
aI14
aI68
aI11
aI45
aI19
aI176
aI183
aI56
aI7
aI20
aI12
aI21
aI0
assI3
(dp21
S'FleeBehavior'
p22
(lp23
I39
aI32
aI38
aI125
aI135
aI213
aI193
aI189
aI152
aI81
aI123
aI167
aI154
aI196
aI136
aI26
aI57
aI46
aI2
aI52
aI239
aI128
aI7
aI52
aI54
aI30
aI28
aI126
aI257
aI151
aI292
aI107
aI179
aI238
aI10
aI218
aI64
aI44
aI98
aI253
aI176
aI61
aI13
aI24
aI46
aI131
aI131
aI161
aI284
aI53
aI153
aI36
aI44
aI281
aI66
aI172
aI58
aI154
aI112
aI204
aI274
aI190
aI73
aI304
aI172
aI10
aI9
aI152
aI188
aI118
aI45
aI12
aI113
aI23
aI161
aI197
aI111
aI109
aI107
aI72
aI20
aI79
aI56
aI120
aI84
aI95
aI187
aI77
aI35
aI123
aI79
aI57
aI108
aI113
aI202
aI120
aI38
aI78
aI37
aI169
aI184
asS'PursueBehavior'
p24
(lp25
I15
aI29
aI149
aI60
aI76
aI21
aI147
aI70
aI136
aI122
aI19
aI54
aI108
aI114
aI91
aI3
aI110
aI36
aI68
aI181
aI123
aI83
aI53
aI208
aI129
aI52
aI47
aI258
aI39
aI129
aI20
aI159
aI37
aI22
aI46
aI68
aI215
aI189
aI57
aI47
aI87
aI107
aI212
aI308
aI258
aI138
aI1
aI13
aI32
aI44
aI196
aI88
aI0
aI11
aI83
aI48
aI36
aI21
aI205
aI83
aI47
aI106
aI109
aI63
aI196
aI244
aI229
aI90
aI76
aI224
aI192
aI123
aI21
aI103
aI119
aI183
aI5
aI24
aI24
aI38
aI76
aI22
aI42
aI30
aI105
aI142
aI21
aI14
aI141
aI163
aI243
aI357
aI242
aI109
aI33
aI7
aI46
aI159
aI84
aI153
aI150
asS'SeekBehavior'
p26
(lp27
I58
aI89
aI169
aI119
aI85
aI89
aI50
aI124
aI60
aI126
aI106
aI36
aI52
aI42
aI116
aI2
aI59
aI103
aI4
aI104
aI7
aI69
aI4
aI65
aI139
aI154
aI27
aI37
aI53
aI66
aI32
aI92
aI127
aI107
aI58
aI41
aI97
aI82
aI220
aI60
aI100
aI64
aI8
aI35
aI93
aI94
aI58
aI196
aI54
aI59
aI14
aI192
aI1
aI56
aI76
aI136
aI95
aI220
aI19
aI83
aI17
aI68
aI159
aI13
aI8
aI88
aI99
aI95
aI54
aI17
aI152
aI221
aI214
aI202
aI84
aI13
aI33
aI250
aI228
aI234
aI246
aI257
aI249
aI232
aI150
aI102
aI145
aI273
aI11
aI57
aI12
aI13
aI14
aI114
aI145
aI9
aI112
aI92
aI213
aI90
aI0
asss.