(dp0
S'learn_scores'
p1
(lp2
F1431.0
aF1125.0
aF2654.0
aF2824.0
aF513.0
aF1306.0
aF-337.0
aF1206.0
aF438.0
aF2625.0
asS'test_scores'
p3
(lp4
F-137.0
asS'behavior_count'
p5
(dp6
I1
(dp7
S'FleeBehavior'
p8
(lp9
I132
aI122
aI144
aI219
aI85
aI164
aI24
aI124
aI74
aI212
aI58
asS'PursueBehavior'
p10
(lp11
I117
aI28
aI131
aI75
aI28
aI40
aI2
aI84
aI24
aI88
aI0
asS'SeekBehavior'
p12
(lp13
I31
aI36
aI61
aI72
aI25
aI60
aI2
aI17
aI5
aI65
aI0
assI2
(dp14
S'FleeBehavior'
p15
(lp16
I29
aI30
aI38
aI31
aI23
aI48
aI1
aI31
aI46
aI59
aI0
asS'PursueBehavior'
p17
(lp18
I92
aI65
aI188
aI190
aI20
aI131
aI4
aI87
aI21
aI104
aI0
asS'SeekBehavior'
p19
(lp20
I159
aI90
aI110
aI145
aI95
aI85
aI23
aI107
aI36
aI202
aI58
assI3
(dp21
S'FleeBehavior'
p22
(lp23
I116
aI66
aI129
aI201
aI62
aI139
aI14
aI51
aI29
aI114
aI58
asS'PursueBehavior'
p24
(lp25
I94
aI76
aI178
aI132
aI30
aI95
aI13
aI110
aI55
aI184
aI0
asS'SeekBehavior'
p26
(lp27
I70
aI43
aI29
aI33
aI46
aI30
aI1
aI63
aI18
aI67
aI0
assI4
(dp28
S'FleeBehavior'
p29
(lp30
I50
aI46
aI104
aI42
aI28
aI46
aI5
aI18
aI5
aI37
aI0
asS'PursueBehavior'
p31
(lp32
I79
aI51
aI24
aI60
aI32
aI50
aI0
aI49
aI12
aI48
aI0
asS'SeekBehavior'
p33
(lp34
I150
aI88
aI208
aI264
aI78
aI168
aI23
aI157
aI85
aI280
aI57
asss.