(dp0
S'learn_scores'
p1
(lp2
F-722.0
aF50.0
aF-220.0
aF-156.0
aF-183.0
aF-218.0
aF-257.0
aF-264.0
aF-170.0
aF45.0
asS'test_scores'
p3
(lp4
F-98.0
asS'behavior_count'
p5
(dp6
I1
(dp7
S'FleeBehavior'
p8
(lp9
I295
aI34
aI69
aI25
aI26
aI0
aI48
aI20
aI34
aI65
aI0
asS'PursueBehavior'
p10
(lp11
I121
aI37
aI41
aI20
aI12
aI9
aI50
aI15
aI17
aI109
aI149
asS'SeekBehavior'
p12
(lp13
I257
aI30
aI21
aI32
aI16
aI30
aI70
aI50
aI0
aI62
aI40
assI2
(dp14
S'FleeBehavior'
p15
(lp16
I135
aI32
aI20
aI6
aI13
aI8
aI31
aI35
aI16
aI98
aI75
asS'PursueBehavior'
p17
(lp18
I245
aI27
aI61
aI51
aI24
aI16
aI58
aI21
aI24
aI94
aI0
asS'SeekBehavior'
p19
(lp20
I293
aI41
aI50
aI20
aI16
aI15
aI79
aI28
aI11
aI44
aI114
assI3
(dp21
S'FleeBehavior'
p22
(lp23
I162
aI27
aI46
aI44
aI25
aI10
aI67
aI14
aI14
aI100
aI29
asS'PursueBehavior'
p24
(lp25
I386
aI38
aI60
aI29
aI17
aI28
aI65
aI39
aI28
aI44
aI160
asS'SeekBehavior'
p26
(lp27
I124
aI35
aI25
aI3
aI11
aI0
aI35
aI31
aI8
aI91
aI0
asss.