(dp0
S'learn_scores'
p1
(lp2
F-223.0
aF-251.0
aF-699.0
aF-187.0
aF-253.0
aF-195.0
aF-208.0
aF-143.0
aF-171.0
aF-65.0
asS'test_scores'
p3
(lp4
F-686.0
asS'behavior_count'
p5
(dp6
I1
(dp7
S'FleeBehavior'
p8
(lp9
I88
aI9
aI299
aI72
aI73
aI66
aI15
aI20
aI24
aI56
aI54
asS'PursueBehavior'
p10
(lp11
I19
aI14
aI104
aI17
aI19
aI35
aI13
aI15
aI32
aI33
aI0
asS'SeekBehavior'
p12
(lp13
I27
aI9
aI117
aI49
aI32
aI15
aI11
aI8
aI36
aI47
aI453
assI2
(dp14
S'FleeBehavior'
p15
(lp16
I72
aI24
aI131
aI39
aI43
aI56
aI6
aI32
aI44
aI50
aI348
asS'PursueBehavior'
p17
(lp18
I35
aI1
aI249
aI52
aI46
aI37
aI23
aI3
aI17
aI41
aI0
asS'SeekBehavior'
p19
(lp20
I26
aI7
aI140
aI47
aI34
aI23
aI10
aI8
aI31
aI44
aI158
asss.