(dp0
S'learn_scores'
p1
(lp2
F283.0
aF-164.0
aF148.0
aF-407.0
aF-179.0
aF-159.0
aF-214.0
aF-267.0
aF-67.0
aF-159.0
asS'test_scores'
p3
(lp4
F-74.0
asS'behavior_count'
p5
(dp6
I1
(dp7
S'FleeBehavior'
p8
(lp9
I87
aI25
aI32
aI124
aI11
aI31
aI19
aI67
aI11
aI4
aI0
asS'PursueBehavior'
p10
(lp11
I103
aI30
aI30
aI56
aI6
aI8
aI14
aI58
aI14
aI1
aI0
asS'SeekBehavior'
p12
(lp13
I38
aI60
aI30
aI48
aI23
aI31
aI92
aI53
aI32
aI45
aI165
assI2
(dp14
S'FleeBehavior'
p15
(lp16
I117
aI30
aI30
aI55
aI23
aI46
aI26
aI27
aI29
aI27
aI165
asS'PursueBehavior'
p17
(lp18
I39
aI64
aI29
aI110
aI6
aI11
aI69
aI129
aI13
aI4
aI0
asS'SeekBehavior'
p19
(lp20
I72
aI21
aI33
aI63
aI11
aI12
aI30
aI21
aI15
aI18
aI0
asss.