(dp0
S'learn_scores'
p1
(lp2
F-94.0
aF248.0
aF-146.0
aF-350.0
aF-175.0
aF-135.0
aF110.0
aF130.0
aF-326.0
aF-125.0
asS'test_scores'
p3
(lp4
F-240.0
asS'behavior_count'
p5
(dp6
I1
(dp7
S'FleeBehavior'
p8
(lp9
I48
aI119
aI13
aI1
aI10
aI8
aI27
aI48
aI197
aI9
aI0
asS'PursueBehavior'
p10
(lp11
I87
aI134
aI18
aI17
aI28
aI27
aI36
aI78
aI33
aI26
aI61
asS'SeekBehavior'
p12
(lp13
I30
aI70
aI26
aI2
aI8
aI11
aI118
aI25
aI17
aI10
aI0
assI2
(dp14
S'FleeBehavior'
p15
(lp16
I31
aI70
aI10
aI2
aI12
aI20
aI126
aI40
aI48
aI9
aI0
asS'PursueBehavior'
p17
(lp18
I89
aI134
aI31
aI16
aI22
aI22
aI38
aI49
aI117
aI27
aI60
asS'SeekBehavior'
p19
(lp20
I45
aI118
aI16
aI2
aI11
aI4
aI17
aI61
aI82
aI9
aI0
assI3
(dp21
S'FleeBehavior'
p22
(lp23
I69
aI203
aI15
aI7
aI14
aI8
aI17
aI20
aI98
aI11
aI0
asS'PursueBehavior'
p24
(lp25
I43
aI55
aI21
aI8
aI17
aI23
aI44
aI60
aI103
aI33
aI60
asS'SeekBehavior'
p26
(lp27
I53
aI64
aI21
aI5
aI14
aI14
aI120
aI70
aI45
aI1
aI0
asss.