(dp0
S'learn_scores'
p1
(lp2
F2865.0
aF2459.0
aF3429.0
aF3043.0
aF-248.0
aF3225.0
aF2836.0
aF2667.0
aF2845.0
aF2831.0
asS'test_scores'
p3
(lp4
F1425.0
asS'behavior_count'
p5
(dp6
I1
(dp7
S'FleeBehavior'
p8
(lp9
I90
aI33
aI77
aI45
aI4
aI78
aI79
aI32
aI18
aI81
aI0
asS'PursueBehavior'
p10
(lp11
I36
aI122
aI75
aI45
aI0
aI56
aI52
aI93
aI51
aI21
aI0
asS'SeekBehavior'
p12
(lp13
I199
aI176
aI209
aI257
aI25
aI231
aI223
aI198
aI276
aI257
aI305
assI2
(dp14
S'FleeBehavior'
p15
(lp16
I177
aI220
aI181
aI201
aI21
aI228
aI225
aI195
aI264
aI215
aI260
asS'PursueBehavior'
p17
(lp18
I80
aI55
aI71
aI115
aI5
aI62
aI73
aI84
aI71
aI88
aI45
asS'SeekBehavior'
p19
(lp20
I68
aI56
aI109
aI31
aI2
aI75
aI56
aI44
aI10
aI56
aI0
assI3
(dp21
S'FleeBehavior'
p22
(lp23
I107
aI57
aI85
aI169
aI13
aI32
aI97
aI126
aI80
aI123
aI65
asS'PursueBehavior'
p24
(lp25
I89
aI179
aI192
aI120
aI15
aI200
aI201
aI153
aI219
aI188
aI202
asS'SeekBehavior'
p26
(lp27
I129
aI95
aI84
aI58
aI0
aI133
aI56
aI44
aI46
aI48
aI38
assI4
(dp28
S'FleeBehavior'
p29
(lp30
I129
aI211
aI243
aI163
aI26
aI185
aI174
aI261
aI271
aI152
aI305
asS'PursueBehavior'
p31
(lp32
I137
aI65
aI56
aI145
aI0
aI34
aI62
aI24
aI12
aI179
aI0
asS'SeekBehavior'
p33
(lp34
I59
aI55
aI62
aI39
aI2
aI146
aI118
aI38
aI62
aI28
aI0
asss.