(dp0
S'learn_scores'
p1
(lp2
F-135.0
aF-276.0
aF-132.0
aF88.0
aF-194.0
aF-80.0
aF-190.0
aF-126.0
aF-485.0
aF14.0
asS'test_scores'
p3
(lp4
F163.0
asS'behavior_count'
p5
(dp6
I1
(dp7
S'FleeBehavior'
p8
(lp9
I18
aI6
aI46
aI14
aI2
aI43
aI32
aI1
aI96
aI24
aI4
asS'PursueBehavior'
p10
(lp11
I14
aI23
aI130
aI39
aI24
aI67
aI23
aI18
aI131
aI10
aI0
asS'SeekBehavior'
p12
(lp13
I14
aI158
aI37
aI30
aI39
aI41
aI56
aI58
aI169
aI42
aI184
assI2
(dp14
S'FleeBehavior'
p15
(lp16
I19
aI132
aI171
aI56
aI42
aI109
aI84
aI55
aI269
aI49
aI183
asS'PursueBehavior'
p17
(lp18
I11
aI34
aI17
aI11
aI20
aI18
aI2
aI21
aI24
aI18
aI5
asS'SeekBehavior'
p19
(lp20
I15
aI21
aI24
aI15
aI3
aI24
aI24
aI1
aI102
aI9
aI0
asss.