(dp0
S'learn_scores'
p1
(lp2
F-522.0
aF-260.0
aF-128.0
aF-142.0
aF55.0
aF-140.0
aF-583.0
aF24.0
aF-78.0
aF-150.0
asS'test_scores'
p3
(lp4
F-287.0
asS'behavior_count'
p5
(dp6
I1
(dp7
S'FleeBehavior'
p8
(lp9
I120
aI4
aI24
aI15
aI244
aI14
aI425
aI32
aI44
aI16
aI0
asS'PursueBehavior'
p10
(lp11
I198
aI9
aI12
aI15
aI39
aI14
aI247
aI182
aI15
aI8
aI0
asS'SeekBehavior'
p12
(lp13
I155
aI17
aI13
aI33
aI103
aI23
aI212
aI63
aI120
aI37
aI238
assI2
(dp14
S'FleeBehavior'
p15
(lp16
I109
aI13
aI22
aI24
aI63
aI25
aI213
aI59
aI42
aI46
aI238
asS'PursueBehavior'
p17
(lp18
I200
aI7
aI12
aI26
aI77
aI14
aI474
aI192
aI118
aI7
aI0
asS'SeekBehavior'
p19
(lp20
I164
aI10
aI14
aI12
aI246
aI12
aI196
aI25
aI19
aI8
aI0
asss.