(dp0
S'learn_scores'
p1
(lp2
F-170.0
aF-223.0
aF-147.0
aF-164.0
aF-152.0
aF-233.0
aF-177.0
aF-370.0
aF-378.0
aF12.0
asS'test_scores'
p3
(lp4
F-272.0
asS'behavior_count'
p5
(dp6
I1
(dp7
S'FleeBehavior'
p8
(lp9
I10
aI1
aI17
aI15
aI4
aI5
aI59
aI125
aI55
aI62
aI0
asS'PursueBehavior'
p10
(lp11
I15
aI31
aI46
aI6
aI5
aI17
aI68
aI146
aI336
aI163
aI33
asS'SeekBehavior'
p12
(lp13
I15
aI2
aI5
aI23
aI33
aI12
aI1
aI10
aI58
aI34
aI0
assI2
(dp14
S'FleeBehavior'
p15
(lp16
I13
aI1
aI2
aI25
aI12
aI3
aI49
aI51
aI106
aI29
aI29
asS'PursueBehavior'
p17
(lp18
I16
aI32
aI53
aI19
aI28
aI30
aI62
aI220
aI290
aI152
aI3
asS'SeekBehavior'
p19
(lp20
I11
aI0
aI13
aI0
aI2
aI1
aI16
aI10
aI52
aI78
aI0
assI3
(dp21
S'FleeBehavior'
p22
(lp23
I10
aI1
aI8
aI4
aI7
aI9
aI23
aI80
aI252
aI27
aI0
asS'PursueBehavior'
p24
(lp25
I10
aI8
aI3
aI0
aI1
aI1
aI10
aI58
aI84
aI25
aI0
asS'SeekBehavior'
p26
(lp27
I20
aI24
aI57
aI40
aI34
aI24
aI94
aI143
aI112
aI207
aI32
asss.