(dp0
S'learn_scores'
p1
(lp2
F972.0
aF2594.0
aF-120.0
aF2652.0
aF3224.0
aF2445.0
aF3053.0
aF1448.0
aF3450.0
aF3191.0
asS'test_scores'
p3
(lp4
F2447.0
asS'behavior_count'
p5
(dp6
I1
(dp7
S'FleeBehavior'
p8
(lp9
I39
aI115
aI18
aI67
aI166
aI142
aI91
aI54
aI99
aI76
aI0
asS'PursueBehavior'
p10
(lp11
I35
aI181
aI31
aI139
aI124
aI92
aI115
aI64
aI77
aI225
aI0
asS'SeekBehavior'
p12
(lp13
I95
aI100
aI12
aI132
aI76
aI111
aI131
aI185
aI164
aI98
aI343
assI2
(dp14
S'FleeBehavior'
p15
(lp16
I36
aI139
aI17
aI146
aI86
aI120
aI57
aI38
aI33
aI68
aI0
asS'PursueBehavior'
p17
(lp18
I66
aI92
aI14
aI100
aI208
aI63
aI133
aI92
aI169
aI279
aI343
asS'SeekBehavior'
p19
(lp20
I67
aI165
aI30
aI92
aI72
aI162
aI147
aI172
aI138
aI52
aI0
assI3
(dp21
S'FleeBehavior'
p22
(lp23
I43
aI156
aI17
aI90
aI127
aI47
aI139
aI104
aI217
aI181
aI343
asS'PursueBehavior'
p24
(lp25
I57
aI109
aI21
aI137
aI90
aI145
aI80
aI53
aI41
aI71
aI0
asS'SeekBehavior'
p26
(lp27
I69
aI131
aI22
aI111
aI149
aI153
aI118
aI145
aI82
aI147
aI0
assI4
(dp28
S'FleeBehavior'
p29
(lp30
I62
aI132
aI19
aI65
aI85
aI73
aI130
aI99
aI81
aI114
aI3
asS'PursueBehavior'
p31
(lp32
I30
aI114
aI28
aI147
aI183
aI151
aI83
aI116
aI124
aI101
aI340
asS'SeekBehavior'
p33
(lp34
I76
aI150
aI13
aI126
aI98
aI121
aI124
aI87
aI135
aI184
aI0
asss.