(dp0
S'learn_scores'
p1
(lp2
F403.0
aF1005.0
aF671.0
aF1112.0
aF2622.0
aF2798.0
aF1201.0
aF433.0
aF2022.0
aF412.0
asS'test_scores'
p3
(lp4
F-193.0
asS'behavior_count'
p5
(dp6
I1
(dp7
S'FleeBehavior'
p8
(lp9
I15
aI42
aI16
aI110
aI37
aI75
aI42
aI20
aI30
aI11
aI0
asS'PursueBehavior'
p10
(lp11
I3
aI20
aI22
aI26
aI145
aI30
aI49
aI3
aI109
aI2
aI0
asS'SeekBehavior'
p12
(lp13
I79
aI194
aI81
aI53
aI186
aI287
aI169
aI115
aI180
aI106
aI44
assI2
(dp14
S'FleeBehavior'
p15
(lp16
I40
aI146
aI58
aI131
aI253
aI160
aI149
aI85
aI236
aI79
aI38
asS'PursueBehavior'
p17
(lp18
I34
aI72
aI31
aI43
aI57
aI177
aI89
aI43
aI65
aI32
aI6
asS'SeekBehavior'
p19
(lp20
I23
aI37
aI30
aI15
aI58
aI55
aI22
aI10
aI18
aI7
aI0
assI3
(dp21
S'FleeBehavior'
p22
(lp23
I13
aI47
aI52
aI56
aI110
aI40
aI115
aI50
aI71
aI58
aI5
asS'PursueBehavior'
p24
(lp25
I56
aI187
aI44
aI101
aI227
aI279
aI104
aI53
aI190
aI42
aI39
asS'SeekBehavior'
p26
(lp27
I28
aI21
aI23
aI31
aI31
aI73
aI41
aI35
aI58
aI18
aI0
assI4
(dp28
S'FleeBehavior'
p29
(lp30
I69
aI181
aI72
aI114
aI313
aI238
aI177
aI107
aI268
aI90
aI43
asS'PursueBehavior'
p31
(lp32
I24
aI30
aI11
aI44
aI26
aI47
aI30
aI5
aI13
aI2
aI0
asS'SeekBehavior'
p33
(lp34
I4
aI44
aI36
aI30
aI29
aI107
aI53
aI25
aI37
aI26
aI0
asss.