(dp0
S'learn_scores'
p1
(lp2
F-205.0
aF-357.0
aF-323.0
aF-593.0
aF-215.0
aF-306.0
aF143.0
aF-170.0
aF-267.0
aF-226.0
asS'test_scores'
p3
(lp4
F-137.0
asS'behavior_count'
p5
(dp6
I1
(dp7
S'FleeBehavior'
p8
(lp9
I56
aI69
aI13
aI314
aI79
aI0
aI47
aI55
aI14
aI0
aI4
asS'PursueBehavior'
p10
(lp11
I43
aI81
aI7
aI218
aI37
aI19
aI44
aI8
aI44
aI23
aI0
asS'SeekBehavior'
p12
(lp13
I17
aI88
aI3
aI162
aI10
aI7
aI37
aI28
aI20
aI14
aI43
assI2
(dp14
S'FleeBehavior'
p15
(lp16
I81
aI136
aI11
aI359
aI38
aI20
aI68
aI10
aI48
aI26
aI47
asS'PursueBehavior'
p17
(lp18
I14
aI43
aI8
aI132
aI37
aI5
aI53
aI44
aI26
aI11
aI0
asS'SeekBehavior'
p19
(lp20
I20
aI59
aI4
aI203
aI50
aI1
aI7
aI36
aI3
aI0
aI0
asss.