(dp0
S'learn_scores'
p1
(lp2
F-287.0
aF-233.0
aF16.0
aF-233.0
aF-136.0
aF-256.0
aF-655.0
aF-188.0
aF-81.0
aF-160.0
asS'test_scores'
p3
(lp4
F-164.0
asS'behavior_count'
p5
(dp6
I1
(dp7
S'FleeBehavior'
p8
(lp9
I101
aI49
aI27
aI11
aI31
aI32
aI211
aI6
aI37
aI18
aI0
asS'PursueBehavior'
p10
(lp11
I27
aI25
aI25
aI7
aI9
aI19
aI159
aI14
aI69
aI31
aI85
asS'SeekBehavior'
p12
(lp13
I70
aI70
aI33
aI15
aI7
aI26
aI166
aI18
aI66
aI22
aI0
assI2
(dp14
S'FleeBehavior'
p15
(lp16
I45
aI53
aI19
aI21
aI14
aI18
aI130
aI8
aI54
aI16
aI20
asS'PursueBehavior'
p17
(lp18
I83
aI53
aI41
aI7
aI19
aI37
aI230
aI16
aI84
aI27
aI7
asS'SeekBehavior'
p19
(lp20
I69
aI37
aI25
aI5
aI14
aI21
aI176
aI14
aI34
aI28
aI58
assI3
(dp21
S'FleeBehavior'
p22
(lp23
I47
aI92
aI32
aI13
aI13
aI32
aI199
aI0
aI89
aI55
aI30
asS'PursueBehavior'
p24
(lp25
I101
aI32
aI38
aI12
aI34
aI29
aI207
aI33
aI65
aI16
aI54
asS'SeekBehavior'
p26
(lp27
I49
aI19
aI15
aI8
aI0
aI15
aI130
aI5
aI18
aI0
aI0
asss.