(dp0
S'learn_scores'
p1
(lp2
F-151.0
aF-174.0
aF-164.0
aF-149.0
aF256.0
aF-269.0
aF-235.0
aF-269.0
aF-47.0
aF167.0
asS'test_scores'
p3
(lp4
F-22.0
asS'behavior_count'
p5
(dp6
I1
(dp7
S'FleeBehavior'
p8
(lp9
I37
aI20
aI18
aI11
aI44
aI0
aI7
aI0
aI27
aI44
aI0
asS'PursueBehavior'
p10
(lp11
I15
aI25
aI57
aI21
aI30
aI20
aI20
aI18
aI96
aI40
aI123
asS'SeekBehavior'
p12
(lp13
I10
aI10
aI10
aI28
aI51
aI10
aI19
aI12
aI25
aI20
aI0
assI2
(dp14
S'FleeBehavior'
p15
(lp16
I14
aI23
aI23
aI15
aI23
aI5
aI14
aI2
aI31
aI18
aI1
asS'PursueBehavior'
p17
(lp18
I36
aI10
aI20
aI21
aI82
aI19
aI19
aI23
aI45
aI67
aI122
asS'SeekBehavior'
p19
(lp20
I12
aI22
aI42
aI24
aI19
aI6
aI13
aI5
aI72
aI18
aI0
assI3
(dp21
S'FleeBehavior'
p22
(lp23
I24
aI16
aI15
aI9
aI15
aI0
aI16
aI0
aI23
aI10
aI0
asS'PursueBehavior'
p24
(lp25
I16
aI14
aI17
aI22
aI43
aI20
aI17
aI25
aI54
aI51
aI122
asS'SeekBehavior'
p26
(lp27
I21
aI24
aI52
aI28
aI66
aI10
aI12
aI5
aI71
aI42
aI0
asss.