(dp0
S'learn_scores'
p1
(lp2
F-142.0
aF-150.0
aF-173.0
aF-251.0
aF-204.0
aF-241.0
aF-151.0
aF354.0
aF-170.0
aF-278.0
asS'test_scores'
p3
(lp4
F-231.0
asS'behavior_count'
p5
(dp6
I1
(dp7
S'FleeBehavior'
p8
(lp9
I22
aI30
aI23
aI12
aI8
aI67
aI19
aI32
aI2
aI22
aI5
asS'PursueBehavior'
p10
(lp11
I18
aI14
aI25
aI2
aI6
aI26
aI7
aI34
aI4
aI2
aI0
asS'SeekBehavior'
p12
(lp13
I13
aI17
aI46
aI18
aI30
aI69
aI46
aI80
aI35
aI75
aI137
assI2
(dp14
S'FleeBehavior'
p15
(lp16
I24
aI27
aI35
aI29
aI40
aI97
aI60
aI117
aI33
aI92
aI140
asS'PursueBehavior'
p17
(lp18
I20
aI10
aI9
aI3
aI4
aI21
aI11
aI19
aI6
aI3
aI1
asS'SeekBehavior'
p19
(lp20
I9
aI24
aI50
aI0
aI0
aI44
aI1
aI10
aI2
aI3
aI0
asss.