(dp0
S'learn_scores'
p1
(lp2
F20.0
aF-117.0
aF-194.0
aF-207.0
aF-173.0
aF-228.0
aF-235.0
aF-216.0
aF-161.0
aF-161.0
asS'test_scores'
p3
(lp4
F168.0
asS'behavior_count'
p5
(dp6
I1
(dp7
S'FleeBehavior'
p8
(lp9
I100
aI56
aI80
aI12
aI14
aI13
aI11
aI14
aI6
aI17
aI0
asS'PursueBehavior'
p10
(lp11
I107
aI71
aI118
aI14
aI20
aI122
aI153
aI27
aI21
aI38
aI83
asS'SeekBehavior'
p12
(lp13
I124
aI61
aI67
aI11
aI10
aI14
aI22
aI86
aI15
aI17
aI0
assI2
(dp14
S'FleeBehavior'
p15
(lp16
I49
aI75
aI87
aI12
aI12
aI66
aI33
aI41
aI19
aI22
aI2
asS'PursueBehavior'
p17
(lp18
I142
aI56
aI99
aI14
aI18
aI61
aI25
aI50
aI22
aI32
aI81
asS'SeekBehavior'
p19
(lp20
I139
aI57
aI78
aI11
aI13
aI21
aI127
aI36
aI1
aI18
aI0
assI3
(dp21
S'FleeBehavior'
p22
(lp23
I86
aI62
aI114
aI6
aI9
aI45
aI74
aI26
aI6
aI33
aI0
asS'PursueBehavior'
p24
(lp25
I132
aI91
aI70
aI27
aI22
aI45
aI95
aI67
aI31
aI29
aI82
asS'SeekBehavior'
p26
(lp27
I112
aI35
aI80
aI4
aI12
aI58
aI16
aI34
aI5
aI9
aI0
asss.