(dp0
S'learn_scores'
p1
(lp2
F3041.0
aF1479.0
aF1736.0
aF1778.0
aF91.0
aF1534.0
aF2794.0
aF3029.0
aF2991.0
aF-9.0
asS'test_scores'
p3
(lp4
F1706.0
asS'behavior_count'
p5
(dp6
I1
(dp7
S'FleeBehavior'
p8
(lp9
I160
aI16
aI47
aI55
aI0
aI67
aI87
aI81
aI64
aI3
aI0
asS'PursueBehavior'
p10
(lp11
I69
aI63
aI67
aI115
aI4
aI107
aI42
aI98
aI70
aI3
aI0
asS'SeekBehavior'
p12
(lp13
I120
aI243
aI131
aI202
aI65
aI172
aI267
aI182
aI265
aI64
aI314
assI2
(dp14
S'FleeBehavior'
p15
(lp16
I142
aI212
aI145
aI301
aI46
aI207
aI235
aI202
aI308
aI55
aI248
asS'PursueBehavior'
p17
(lp18
I75
aI88
aI57
aI30
aI22
aI114
aI84
aI90
aI37
aI12
aI66
asS'SeekBehavior'
p19
(lp20
I132
aI22
aI42
aI41
aI1
aI25
aI77
aI69
aI54
aI2
aI0
assI3
(dp21
S'FleeBehavior'
p22
(lp23
I194
aI102
aI41
aI260
aI20
aI132
aI160
aI113
aI132
aI24
aI20
asS'PursueBehavior'
p24
(lp25
I99
aI173
aI144
aI61
aI47
aI165
aI176
aI159
aI198
aI43
aI183
asS'SeekBehavior'
p26
(lp27
I56
aI47
aI59
aI51
aI2
aI49
aI60
aI89
aI69
aI2
aI111
assI4
(dp28
S'FleeBehavior'
p29
(lp30
I63
aI188
aI98
aI271
aI63
aI242
aI165
aI239
aI299
aI66
aI314
asS'PursueBehavior'
p31
(lp32
I86
aI72
aI105
aI37
aI3
aI14
aI163
aI25
aI36
aI1
aI0
asS'SeekBehavior'
p33
(lp34
I200
aI61
aI41
aI64
aI3
aI90
aI68
aI97
aI64
aI2
aI0
asss.