(dp0
S'learn_scores'
p1
(lp2
F-182.0
aF-235.0
aF-287.0
aF-302.0
aF-211.0
aF23.0
aF-202.0
aF-192.0
aF-143.0
aF237.0
asS'test_scores'
p3
(lp4
F-107.0
asS'behavior_count'
p5
(dp6
I1
(dp7
S'FleeBehavior'
p8
(lp9
I12
aI15
aI2
aI5
aI36
aI15
aI33
aI7
aI1
aI27
aI0
asS'PursueBehavior'
p10
(lp11
I57
aI29
aI1
aI150
aI13
aI11
aI8
aI4
aI1
aI33
aI0
asS'SeekBehavior'
p12
(lp13
I34
aI2
aI25
aI58
aI113
aI52
aI42
aI102
aI41
aI84
aI178
assI2
(dp14
S'FleeBehavior'
p15
(lp16
I11
aI6
aI2
aI64
aI35
aI15
aI1
aI19
aI1
aI19
aI0
asS'PursueBehavior'
p17
(lp18
I65
aI5
aI4
aI79
aI28
aI21
aI6
aI47
aI0
aI31
aI0
asS'SeekBehavior'
p19
(lp20
I26
aI35
aI22
aI70
aI99
aI41
aI76
aI46
aI42
aI94
aI178
assI3
(dp21
S'FleeBehavior'
p22
(lp23
I37
aI27
aI22
aI85
aI80
aI45
aI67
aI81
aI39
aI97
aI177
asS'PursueBehavior'
p24
(lp25
I11
aI5
aI4
aI74
aI29
aI13
aI3
aI4
aI4
aI30
aI0
asS'SeekBehavior'
p26
(lp27
I54
aI13
aI2
aI54
aI52
aI19
aI12
aI27
aI0
aI16
aI0
asss.