(dp0
S'learn_scores'
p1
(lp2
F176.0
aF-248.0
aF174.0
aF-224.0
aF-159.0
aF-134.0
aF-215.0
aF-322.0
aF-339.0
aF-518.0
asS'test_scores'
p3
(lp4
F-265.0
asS'behavior_count'
p5
(dp6
I1
(dp7
S'FleeBehavior'
p8
(lp9
I59
aI18
aI34
aI55
aI16
aI9
aI12
aI8
aI94
aI131
aI0
asS'PursueBehavior'
p10
(lp11
I47
aI1
aI53
aI43
aI30
aI27
aI11
aI11
aI82
aI136
aI36
asS'SeekBehavior'
p12
(lp13
I19
aI50
aI39
aI37
aI34
aI8
aI12
aI4
aI84
aI132
aI0
assI2
(dp14
S'FleeBehavior'
p15
(lp16
I62
aI20
aI58
aI60
aI33
aI15
aI19
aI9
aI104
aI152
aI0
asS'PursueBehavior'
p17
(lp18
I24
aI34
aI44
aI41
aI23
aI5
aI5
aI2
aI75
aI138
aI0
asS'SeekBehavior'
p19
(lp20
I38
aI14
aI24
aI34
aI24
aI24
aI11
aI12
aI81
aI108
aI35
assI3
(dp21
S'FleeBehavior'
p22
(lp23
I42
aI43
aI41
aI27
aI22
aI20
aI33
aI19
aI181
aI105
aI35
asS'PursueBehavior'
p24
(lp25
I17
aI9
aI36
aI70
aI33
aI15
aI0
aI2
aI29
aI163
aI0
asS'SeekBehavior'
p26
(lp27
I65
aI16
aI49
aI38
aI25
aI9
aI2
aI1
aI50
aI130
aI0
asss.