(dp0
S'learn_scores'
p1
(lp2
F204.0
aF3225.0
aF507.0
aF2658.0
aF2641.0
aF2837.0
aF2421.0
aF2815.0
aF668.0
aF-329.0
asS'test_scores'
p3
(lp4
F368.0
asS'behavior_count'
p5
(dp6
I1
(dp7
S'FleeBehavior'
p8
(lp9
I29
aI49
aI11
aI39
aI22
aI11
aI46
aI37
aI7
aI0
aI0
asS'PursueBehavior'
p10
(lp11
I12
aI123
aI24
aI58
aI96
aI144
aI55
aI93
aI42
aI0
aI0
asS'SeekBehavior'
p12
(lp13
I56
aI193
aI58
aI235
aI231
aI198
aI268
aI245
aI124
aI20
aI82
assI2
(dp14
S'FleeBehavior'
p15
(lp16
I63
aI230
aI75
aI171
aI266
aI234
aI274
aI239
aI125
aI13
aI41
asS'PursueBehavior'
p17
(lp18
I15
aI75
aI13
aI121
aI37
aI65
aI81
aI116
aI27
aI6
aI41
asS'SeekBehavior'
p19
(lp20
I18
aI60
aI5
aI40
aI46
aI54
aI14
aI20
aI21
aI0
aI0
assI3
(dp21
S'FleeBehavior'
p22
(lp23
I19
aI89
aI28
aI174
aI100
aI91
aI62
aI142
aI36
aI2
aI35
asS'PursueBehavior'
p24
(lp25
I58
aI199
aI35
aI83
aI176
aI188
aI235
aI160
aI79
aI15
aI25
asS'SeekBehavior'
p26
(lp27
I19
aI77
aI30
aI75
aI73
aI74
aI72
aI73
aI57
aI2
aI22
assI4
(dp28
S'FleeBehavior'
p29
(lp30
I55
aI260
aI71
aI202
aI233
aI263
aI253
aI226
aI118
aI15
aI53
asS'PursueBehavior'
p31
(lp32
I18
aI25
aI5
aI102
aI40
aI12
aI45
aI37
aI9
aI0
aI0
asS'SeekBehavior'
p33
(lp34
I23
aI80
aI17
aI28
aI76
aI78
aI71
aI112
aI45
aI4
aI29
asss.