(dp0
S'learn_scores'
p1
(lp2
F2639.0
aF2815.0
aF2625.0
aF2599.0
aF-37.0
aF3257.0
aF2427.0
aF2652.0
aF295.0
aF3006.0
asS'test_scores'
p3
(lp4
F2651.0
asS'behavior_count'
p5
(dp6
I1
(dp7
S'FleeBehavior'
p8
(lp9
I49
aI73
aI33
aI37
aI0
aI43
aI45
aI37
aI4
aI27
aI10
asS'PursueBehavior'
p10
(lp11
I223
aI90
aI222
aI203
aI35
aI63
aI213
aI166
aI87
aI120
aI328
asS'SeekBehavior'
p12
(lp13
I79
aI212
aI110
aI151
aI23
aI227
aI105
aI135
aI55
aI237
aI1
assI2
(dp14
S'FleeBehavior'
p15
(lp16
I178
aI124
aI220
aI193
aI34
aI116
aI173
aI106
aI96
aI127
aI183
asS'PursueBehavior'
p17
(lp18
I50
aI161
aI63
aI29
aI2
aI74
aI73
aI69
aI34
aI137
aI146
asS'SeekBehavior'
p19
(lp20
I123
aI90
aI82
aI169
aI21
aI143
aI117
aI163
aI15
aI120
aI10
assI3
(dp21
S'FleeBehavior'
p22
(lp23
I51
aI65
aI16
aI62
aI2
aI46
aI82
aI40
aI12
aI20
aI0
asS'PursueBehavior'
p24
(lp25
I263
aI208
aI252
aI298
aI51
aI264
aI263
aI216
aI126
aI325
aI325
asS'SeekBehavior'
p26
(lp27
I37
aI102
aI97
aI31
aI4
aI23
aI18
aI82
aI7
aI39
aI14
assI4
(dp28
S'FleeBehavior'
p29
(lp30
I143
aI127
aI180
aI294
aI52
aI85
aI279
aI265
aI120
aI259
aI179
asS'PursueBehavior'
p31
(lp32
I91
aI203
aI126
aI57
aI3
aI105
aI40
aI52
aI19
aI85
aI146
asS'SeekBehavior'
p33
(lp34
I117
aI45
aI59
aI40
aI2
aI143
aI44
aI21
aI6
aI40
aI14
asss.