(dp0
S'learn_scores'
p1
(lp2
F2643.0
aF2839.0
aF-331.0
aF1086.0
aF2624.0
aF2817.0
aF2466.0
aF1561.0
aF2667.0
aF2638.0
asS'test_scores'
p3
(lp4
F224.0
asS'behavior_count'
p5
(dp6
I1
(dp7
S'FleeBehavior'
p8
(lp9
I254
aI159
aI20
aI150
aI195
aI260
aI219
aI127
aI171
aI212
aI97
asS'PursueBehavior'
p10
(lp11
I62
aI145
aI1
aI108
aI111
aI50
aI59
aI68
aI138
aI113
aI0
asS'SeekBehavior'
p12
(lp13
I31
aI47
aI1
aI7
aI60
aI63
aI46
aI45
aI14
aI27
aI0
assI2
(dp14
S'FleeBehavior'
p15
(lp16
I36
aI53
aI0
aI43
aI43
aI50
aI49
aI42
aI15
aI93
aI0
asS'PursueBehavior'
p17
(lp18
I224
aI186
aI12
aI62
aI119
aI172
aI106
aI99
aI133
aI79
aI4
asS'SeekBehavior'
p19
(lp20
I87
aI112
aI10
aI160
aI204
aI151
aI169
aI98
aI175
aI180
aI93
assI3
(dp21
S'FleeBehavior'
p22
(lp23
I149
aI184
aI11
aI47
aI96
aI184
aI170
aI97
aI99
aI132
aI68
asS'PursueBehavior'
p24
(lp25
I167
aI113
aI10
aI170
aI191
aI123
aI62
aI61
aI123
aI158
aI29
asS'SeekBehavior'
p26
(lp27
I31
aI54
aI1
aI47
aI79
aI66
aI92
aI81
aI101
aI62
aI0
assI4
(dp28
S'FleeBehavior'
p29
(lp30
I66
aI62
aI1
aI40
aI81
aI92
aI60
aI47
aI20
aI35
aI2
asS'PursueBehavior'
p31
(lp32
I39
aI32
aI0
aI28
aI52
aI58
aI53
aI10
aI29
aI39
aI0
asS'SeekBehavior'
p33
(lp34
I242
aI257
aI20
aI196
aI233
aI223
aI211
aI182
aI274
aI278
aI94
asss.