(dp0
S'learn_scores'
p1
(lp2
F2861.0
aF972.0
aF746.0
aF2587.0
aF1485.0
aF2859.0
aF2656.0
aF2844.0
aF1343.0
aF2848.0
asS'test_scores'
p3
(lp4
F1336.0
asS'behavior_count'
p5
(dp6
I1
(dp7
S'FleeBehavior'
p8
(lp9
I67
aI42
aI11
aI139
aI98
aI110
aI77
aI23
aI20
aI17
aI0
asS'PursueBehavior'
p10
(lp11
I129
aI25
aI39
aI66
aI81
aI43
aI187
aI50
aI110
aI75
aI0
asS'SeekBehavior'
p12
(lp13
I133
aI102
aI125
aI198
aI117
aI178
aI70
aI273
aI178
aI250
aI244
assI2
(dp14
S'FleeBehavior'
p15
(lp16
I148
aI25
aI13
aI52
aI120
aI128
aI217
aI15
aI84
aI15
aI0
asS'PursueBehavior'
p17
(lp18
I99
aI54
aI143
aI261
aI79
aI156
aI92
aI55
aI53
aI116
aI49
asS'SeekBehavior'
p19
(lp20
I82
aI90
aI19
aI90
aI97
aI47
aI25
aI276
aI171
aI211
aI195
assI3
(dp21
S'FleeBehavior'
p22
(lp23
I134
aI98
aI79
aI137
aI85
aI158
aI215
aI308
aI182
aI309
aI244
asS'PursueBehavior'
p24
(lp25
I109
aI26
aI60
aI83
aI90
aI74
aI48
aI19
aI110
aI18
aI0
asS'SeekBehavior'
p26
(lp27
I86
aI44
aI36
aI183
aI120
aI99
aI71
aI19
aI16
aI15
aI0
assI4
(dp28
S'FleeBehavior'
p29
(lp30
I112
aI30
aI25
aI265
aI134
aI175
aI42
aI18
aI16
aI27
aI0
asS'PursueBehavior'
p31
(lp32
I96
aI41
aI28
aI59
aI33
aI23
aI19
aI25
aI106
aI114
aI0
asS'SeekBehavior'
p33
(lp34
I121
aI97
aI121
aI79
aI128
aI133
aI273
aI303
aI186
aI201
aI244
asss.