(dp0
S'learn_scores'
p1
(lp2
F2409.0
aF1171.0
aF-119.0
aF2847.0
aF3015.0
aF66.0
aF2571.0
aF2814.0
aF2817.0
aF3045.0
asS'test_scores'
p3
(lp4
F2608.0
asS'behavior_count'
p5
(dp6
I1
(dp7
S'FleeBehavior'
p8
(lp9
I194
aI72
aI34
aI202
aI189
aI41
aI343
aI267
aI103
aI222
aI185
asS'PursueBehavior'
p10
(lp11
I91
aI87
aI16
aI72
aI142
aI38
aI48
aI66
aI180
aI104
aI197
asS'SeekBehavior'
p12
(lp13
I96
aI30
aI0
aI69
aI44
aI6
aI28
aI43
aI90
aI19
aI0
assI2
(dp14
S'FleeBehavior'
p15
(lp16
I30
aI40
aI2
aI59
aI55
aI2
aI74
aI72
aI39
aI38
aI0
asS'PursueBehavior'
p17
(lp18
I126
aI85
aI29
aI120
aI187
aI10
aI136
aI74
aI101
aI66
aI20
asS'SeekBehavior'
p19
(lp20
I225
aI64
aI19
aI164
aI133
aI72
aI209
aI230
aI233
aI241
aI362
assI3
(dp21
S'FleeBehavior'
p22
(lp23
I218
aI86
aI43
aI108
aI167
aI42
aI96
aI160
aI98
aI162
aI165
asS'PursueBehavior'
p24
(lp25
I101
aI57
aI5
aI152
aI162
aI35
aI226
aI129
aI155
aI118
aI113
asS'SeekBehavior'
p26
(lp27
I62
aI46
aI2
aI83
aI46
aI7
aI97
aI87
aI120
aI65
aI104
assI4
(dp28
S'FleeBehavior'
p29
(lp30
I86
aI23
aI1
aI22
aI81
aI0
aI30
aI104
aI24
aI28
aI3
asS'PursueBehavior'
p31
(lp32
I128
aI32
aI0
aI77
aI22
aI3
aI51
aI42
aI121
aI43
aI0
asS'SeekBehavior'
p33
(lp34
I167
aI134
aI48
aI244
aI272
aI81
aI338
aI230
aI228
aI274
aI379
asss.