(dp0
S'learn_scores'
p1
(lp2
F-251.0
aF0.0
aF-161.0
aF-278.0
aF-160.0
aF-258.0
aF-176.0
aF-193.0
aF-98.0
aF-152.0
asS'test_scores'
p3
(lp4
F-128.0
asS'behavior_count'
p5
(dp6
I1
(dp7
S'FleeBehavior'
p8
(lp9
I9
aI44
aI13
aI14
aI7
aI5
aI22
aI50
aI36
aI8
aI0
asS'PursueBehavior'
p10
(lp11
I19
aI10
aI14
aI6
aI84
aI29
aI34
aI53
aI115
aI46
aI79
asS'SeekBehavior'
p12
(lp13
I4
aI37
aI14
aI9
aI20
aI5
aI41
aI11
aI48
aI9
aI0
assI2
(dp14
S'FleeBehavior'
p15
(lp16
I9
aI19
aI21
aI4
aI21
aI15
aI33
aI62
aI89
aI19
aI0
asS'PursueBehavior'
p17
(lp18
I7
aI32
aI11
aI1
aI11
aI1
aI29
aI3
aI19
aI1
aI0
asS'SeekBehavior'
p19
(lp20
I16
aI40
aI9
aI24
aI79
aI22
aI34
aI49
aI91
aI43
aI79
assI3
(dp21
S'FleeBehavior'
p22
(lp23
I22
aI23
aI20
aI14
aI37
aI32
aI50
aI71
aI92
aI47
aI79
asS'PursueBehavior'
p24
(lp25
I5
aI32
aI10
aI8
aI29
aI2
aI22
aI30
aI46
aI9
aI0
asS'SeekBehavior'
p26
(lp27
I5
aI35
aI11
aI7
aI44
aI4
aI24
aI13
aI61
aI7
aI0
asss.