(dp0
S'learn_scores'
p1
(lp2
F-183.0
aF-192.0
aF-117.0
aF-277.0
aF-134.0
aF-184.0
aF209.0
aF-565.0
aF-233.0
aF-343.0
asS'test_scores'
p3
(lp4
F-161.0
asS'behavior_count'
p5
(dp6
I1
(dp7
S'FleeBehavior'
p8
(lp9
I89
aI77
aI8
aI105
aI1
aI46
aI55
aI108
aI9
aI121
aI12
asS'PursueBehavior'
p10
(lp11
I23
aI16
aI74
aI56
aI30
aI24
aI61
aI135
aI13
aI70
aI0
asS'SeekBehavior'
p12
(lp13
I22
aI20
aI116
aI27
aI13
aI35
aI56
aI133
aI12
aI63
aI29
assI2
(dp14
S'FleeBehavior'
p15
(lp16
I79
aI17
aI113
aI74
aI39
aI33
aI64
aI152
aI22
aI77
aI30
asS'PursueBehavior'
p17
(lp18
I42
aI52
aI38
aI60
aI5
aI45
aI72
aI113
aI10
aI112
aI0
asS'SeekBehavior'
p19
(lp20
I13
aI43
aI47
aI53
aI0
aI26
aI35
aI110
aI2
aI64
aI11
asss.