(dp0
S'learn_scores'
p1
(lp2
F-193.0
aF-140.0
aF-227.0
aF-163.0
aF-164.0
aF-152.0
aF1.0
aF-378.0
aF-35.0
aF-637.0
asS'test_scores'
p3
(lp4
F-327.0
asS'behavior_count'
p5
(dp6
I1
(dp7
S'FleeBehavior'
p8
(lp9
I24
aI23
aI32
aI2
aI33
aI27
aI61
aI145
aI39
aI231
aI0
asS'PursueBehavior'
p10
(lp11
I27
aI12
aI3
aI48
aI23
aI28
aI155
aI53
aI25
aI158
aI0
asS'SeekBehavior'
p12
(lp13
I23
aI16
aI3
aI64
aI29
aI8
aI74
aI101
aI42
aI169
aI278
assI2
(dp14
S'FleeBehavior'
p15
(lp16
I34
aI6
aI2
aI57
aI36
aI33
aI158
aI120
aI50
aI265
aI138
asS'PursueBehavior'
p17
(lp18
I14
aI30
aI27
aI22
aI26
aI17
aI56
aI70
aI44
aI127
aI0
asS'SeekBehavior'
p19
(lp20
I26
aI15
aI8
aI34
aI22
aI13
aI76
aI108
aI12
aI166
aI140
asss.