(dp0
S'learn_scores'
p1
(lp2
F-152.0
aF-170.0
aF-179.0
aF-280.0
aF-170.0
aF51.0
aF-182.0
aF-132.0
aF-204.0
aF-215.0
asS'test_scores'
p3
(lp4
F-119.0
asS'behavior_count'
p5
(dp6
I1
(dp7
S'FleeBehavior'
p8
(lp9
I14
aI11
aI30
aI8
aI2
aI100
aI10
aI12
aI6
aI19
aI4
asS'PursueBehavior'
p10
(lp11
I14
aI12
aI36
aI12
aI9
aI54
aI29
aI3
aI37
aI3
aI0
asS'SeekBehavior'
p12
(lp13
I24
aI18
aI24
aI141
aI30
aI86
aI54
aI38
aI72
aI64
aI46
assI2
(dp14
S'FleeBehavior'
p15
(lp16
I18
aI26
aI71
aI124
aI28
aI63
aI70
aI49
aI90
aI80
aI49
asS'PursueBehavior'
p17
(lp18
I23
aI6
aI3
aI22
aI12
aI15
aI17
aI1
aI22
aI1
aI0
asS'SeekBehavior'
p19
(lp20
I11
aI9
aI15
aI14
aI1
aI161
aI6
aI2
aI3
aI4
aI0
asss.