(dp0
S'learn_scores'
p1
(lp2
F-106.0
aF-347.0
aF-359.0
aF-134.0
aF-308.0
aF-234.0
aF197.0
aF-137.0
aF-242.0
aF-292.0
asS'test_scores'
p3
(lp4
F-159.0
asS'behavior_count'
p5
(dp6
I1
(dp7
S'FleeBehavior'
p8
(lp9
I21
aI81
aI13
aI25
aI21
aI58
aI15
aI10
aI20
aI58
aI0
asS'PursueBehavior'
p10
(lp11
I13
aI53
aI0
aI4
aI2
aI58
aI18
aI9
aI13
aI27
aI49
asS'SeekBehavior'
p12
(lp13
I22
aI124
aI6
aI15
aI6
aI29
aI51
aI39
aI0
aI28
aI0
assI2
(dp14
S'FleeBehavior'
p15
(lp16
I8
aI83
aI5
aI22
aI2
aI33
aI18
aI10
aI12
aI37
aI17
asS'PursueBehavior'
p17
(lp18
I32
aI83
aI2
aI9
aI20
aI44
aI26
aI36
aI8
aI51
aI0
asS'SeekBehavior'
p19
(lp20
I16
aI91
aI12
aI13
aI6
aI68
aI40
aI12
aI13
aI24
aI32
assI3
(dp21
S'FleeBehavior'
p22
(lp23
I12
aI71
aI12
aI15
aI11
aI32
aI10
aI49
aI6
aI19
aI23
asS'PursueBehavior'
p24
(lp25
I23
aI95
aI2
aI15
aI16
aI84
aI48
aI6
aI27
aI69
aI26
asS'SeekBehavior'
p26
(lp27
I21
aI91
aI5
aI14
aI1
aI29
aI26
aI3
aI0
aI24
aI0
asss.