(dp0
S'learn_scores'
p1
(lp2
F-162.0
aF-262.0
aF-187.0
aF-269.0
aF-206.0
aF-231.0
aF-154.0
aF-374.0
aF-195.0
aF179.0
asS'test_scores'
p3
(lp4
F-265.0
asS'behavior_count'
p5
(dp6
I1
(dp7
S'FleeBehavior'
p8
(lp9
I53
aI19
aI39
aI3
aI24
aI19
aI30
aI75
aI30
aI35
aI6
asS'PursueBehavior'
p10
(lp11
I8
aI31
aI13
aI4
aI12
aI8
aI18
aI77
aI41
aI67
aI62
asS'SeekBehavior'
p12
(lp13
I22
aI33
aI46
aI22
aI0
aI15
aI27
aI103
aI35
aI80
aI8
assI2
(dp14
S'FleeBehavior'
p15
(lp16
I12
aI23
aI23
aI10
aI6
aI2
aI48
aI108
aI15
aI12
aI34
asS'PursueBehavior'
p17
(lp18
I59
aI29
aI38
aI7
aI19
aI30
aI16
aI57
aI60
aI109
aI0
asS'SeekBehavior'
p19
(lp20
I12
aI30
aI37
aI12
aI11
aI10
aI10
aI89
aI31
aI61
aI41
assI3
(dp21
S'FleeBehavior'
p22
(lp23
I12
aI43
aI50
aI7
aI23
aI18
aI27
aI98
aI48
aI95
aI10
asS'PursueBehavior'
p24
(lp25
I51
aI0
aI29
aI8
aI9
aI14
aI46
aI100
aI23
aI45
aI65
asS'SeekBehavior'
p26
(lp27
I19
aI39
aI18
aI14
aI4
aI9
aI1
aI56
aI34
aI42
aI0
asss.