(dp0
S'learn_scores'
p1
(lp2
F-396.0
aF-198.0
aF-210.0
aF11.0
aF-251.0
aF-597.0
aF-286.0
aF-305.0
aF-146.0
aF-61.0
asS'test_scores'
p3
(lp4
F-163.0
asS'behavior_count'
p5
(dp6
I1
(dp7
S'FleeBehavior'
p8
(lp9
I161
aI14
aI61
aI43
aI9
aI111
aI38
aI4
aI12
aI62
aI0
asS'PursueBehavior'
p10
(lp11
I98
aI17
aI41
aI14
aI8
aI279
aI113
aI0
aI6
aI14
aI0
asS'SeekBehavior'
p12
(lp13
I88
aI78
aI59
aI33
aI15
aI128
aI86
aI21
aI39
aI56
aI114
assI2
(dp14
S'FleeBehavior'
p15
(lp16
I74
aI21
aI57
aI27
aI14
aI126
aI173
aI25
aI30
aI49
aI113
asS'PursueBehavior'
p17
(lp18
I136
aI57
aI43
aI21
aI11
aI255
aI21
aI0
aI7
aI13
aI0
asS'SeekBehavior'
p19
(lp20
I137
aI31
aI61
aI41
aI7
aI137
aI43
aI0
aI20
aI70
aI0
asss.