(dp0
S'learn_scores'
p1
(lp2
F-141.0
aF204.0
aF300.0
aF-167.0
aF-242.0
aF-510.0
aF-364.0
aF-242.0
aF-131.0
aF-46.0
asS'test_scores'
p3
(lp4
F-242.0
asS'behavior_count'
p5
(dp6
I1
(dp7
S'FleeBehavior'
p8
(lp9
I152
aI31
aI49
aI22
aI0
aI110
aI86
aI7
aI12
aI18
aI0
asS'PursueBehavior'
p10
(lp11
I35
aI52
aI54
aI23
aI30
aI132
aI117
aI18
aI32
aI48
aI32
asS'SeekBehavior'
p12
(lp13
I25
aI54
aI178
aI43
aI2
aI179
aI112
aI7
aI8
aI11
aI0
assI2
(dp14
S'FleeBehavior'
p15
(lp16
I52
aI70
aI194
aI46
aI12
aI139
aI110
aI12
aI12
aI23
aI0
asS'PursueBehavior'
p17
(lp18
I112
aI44
aI48
aI22
aI2
aI216
aI107
aI2
aI2
aI17
aI0
asS'SeekBehavior'
p19
(lp20
I47
aI23
aI39
aI20
aI18
aI66
aI97
aI18
aI38
aI37
aI32
assI3
(dp21
S'FleeBehavior'
p22
(lp23
I44
aI47
aI35
aI16
aI8
aI111
aI93
aI30
aI45
aI50
aI32
asS'PursueBehavior'
p24
(lp25
I16
aI73
aI181
aI49
aI13
aI158
aI137
aI1
aI2
aI14
aI0
asS'SeekBehavior'
p26
(lp27
I151
aI17
aI65
aI23
aI11
aI152
aI84
aI1
aI5
aI13
aI0
asss.