(dp0
S'learn_scores'
p1
(lp2
F509.0
aF669.0
aF1183.0
aF2648.0
aF1051.0
aF2455.0
aF2856.0
aF2410.0
aF2456.0
aF3055.0
asS'test_scores'
p3
(lp4
F3055.0
asS'behavior_count'
p5
(dp6
I1
(dp7
S'FleeBehavior'
p8
(lp9
I12
aI22
aI61
aI101
aI57
aI68
aI54
aI41
aI57
aI108
aI0
asS'PursueBehavior'
p10
(lp11
I58
aI68
aI85
aI189
aI116
aI93
aI138
aI152
aI125
aI99
aI93
asS'SeekBehavior'
p12
(lp13
I32
aI52
aI112
aI52
aI57
aI174
aI142
aI187
aI152
aI128
aI242
assI2
(dp14
S'FleeBehavior'
p15
(lp16
I40
aI96
aI117
aI176
aI133
aI217
aI145
aI278
aI178
aI179
aI240
asS'PursueBehavior'
p17
(lp18
I24
aI14
aI82
aI108
aI29
aI39
aI96
aI64
aI117
aI50
aI95
asS'SeekBehavior'
p19
(lp20
I38
aI31
aI58
aI58
aI67
aI79
aI93
aI38
aI39
aI106
aI0
asss.