(dp0
S'learn_scores'
p1
(lp2
F-155.0
aF-431.0
aF-3.0
aF20.0
aF-144.0
aF-231.0
aF-274.0
aF-426.0
aF-223.0
aF-262.0
asS'test_scores'
p3
(lp4
F-221.0
asS'behavior_count'
p5
(dp6
I1
(dp7
S'FleeBehavior'
p8
(lp9
I13
aI48
aI19
aI56
aI3
aI49
aI28
aI9
aI2
aI95
aI6
asS'PursueBehavior'
p10
(lp11
I13
aI184
aI19
aI23
aI15
aI37
aI9
aI75
aI0
aI111
aI0
asS'SeekBehavior'
p12
(lp13
I50
aI20
aI56
aI52
aI37
aI66
aI58
aI153
aI42
aI197
aI286
assI2
(dp14
S'FleeBehavior'
p15
(lp16
I19
aI34
aI44
aI81
aI35
aI86
aI89
aI181
aI34
aI290
aI291
asS'PursueBehavior'
p17
(lp18
I18
aI27
aI17
aI28
aI17
aI22
aI4
aI36
aI5
aI30
aI0
asS'SeekBehavior'
p19
(lp20
I39
aI191
aI33
aI21
aI3
aI44
aI1
aI20
aI5
aI83
aI0
asss.