(dp0
S'learn_scores'
p1
(lp2
F-165.0
aF1.0
aF-371.0
aF-396.0
aF-131.0
aF-44.0
aF-160.0
aF-280.0
aF-265.0
aF-242.0
asS'test_scores'
p3
(lp4
F-110.0
asS'behavior_count'
p5
(dp6
I1
(dp7
S'FleeBehavior'
p8
(lp9
I34
aI30
aI176
aI244
aI7
aI16
aI1
aI4
aI4
aI0
aI0
asS'PursueBehavior'
p10
(lp11
I19
aI12
aI39
aI19
aI13
aI51
aI19
aI6
aI0
aI1
aI0
asS'SeekBehavior'
p12
(lp13
I63
aI38
aI77
aI44
aI32
aI48
aI51
aI81
aI32
aI32
aI51
assI2
(dp14
S'FleeBehavior'
p15
(lp16
I62
aI15
aI138
aI58
aI37
aI59
aI54
aI79
aI26
aI30
aI50
asS'PursueBehavior'
p17
(lp18
I18
aI11
aI21
aI224
aI6
aI36
aI11
aI5
aI5
aI0
aI0
asS'SeekBehavior'
p19
(lp20
I36
aI54
aI133
aI25
aI9
aI19
aI6
aI7
aI4
aI3
aI0
asss.