(dp0
S'learn_scores'
p1
(lp2
F-135.0
aF-394.0
aF-369.0
aF-176.0
aF-20.0
aF177.0
aF-177.0
aF-363.0
aF-220.0
aF-150.0
asS'test_scores'
p3
(lp4
F-323.0
asS'behavior_count'
p5
(dp6
I1
(dp7
S'FleeBehavior'
p8
(lp9
I63
aI34
aI58
aI37
aI62
aI28
aI71
aI83
aI35
aI52
aI24
asS'PursueBehavior'
p10
(lp11
I25
aI20
aI122
aI8
aI13
aI55
aI4
aI47
aI3
aI4
aI0
asS'SeekBehavior'
p12
(lp13
I128
aI151
aI10
aI52
aI26
aI31
aI23
aI54
aI2
aI5
aI0
assI2
(dp14
S'FleeBehavior'
p15
(lp16
I75
aI5
aI78
aI23
aI35
aI35
aI42
aI63
aI28
aI50
aI24
asS'PursueBehavior'
p17
(lp18
I25
aI19
aI9
aI56
aI47
aI51
aI40
aI27
aI8
aI7
aI0
asS'SeekBehavior'
p19
(lp20
I116
aI181
aI103
aI17
aI18
aI28
aI16
aI94
aI4
aI4
aI0
asss.