(dp0
S'learn_scores'
p1
(lp2
F220.0
aF-126.0
aF-175.0
aF-243.0
aF-294.0
aF-219.0
aF-226.0
aF-495.0
aF-203.0
aF-152.0
asS'test_scores'
p3
(lp4
F-174.0
asS'behavior_count'
p5
(dp6
I1
(dp7
S'FleeBehavior'
p8
(lp9
I156
aI12
aI69
aI85
aI76
aI20
aI14
aI122
aI57
aI22
aI13
asS'PursueBehavior'
p10
(lp11
I97
aI22
aI33
aI43
aI40
aI8
aI0
aI99
aI20
aI10
aI0
asS'SeekBehavior'
p12
(lp13
I128
aI13
aI24
aI36
aI89
aI12
aI23
aI95
aI47
aI10
aI32
assI2
(dp14
S'FleeBehavior'
p15
(lp16
I123
aI26
aI58
aI72
aI87
aI10
aI4
aI135
aI66
aI15
aI45
asS'PursueBehavior'
p17
(lp18
I104
aI4
aI34
aI62
aI38
aI21
aI30
aI101
aI43
aI16
aI0
asS'SeekBehavior'
p19
(lp20
I153
aI16
aI34
aI30
aI80
aI9
aI3
aI80
aI15
aI11
aI0
asss.