(dp0
S'learn_scores'
p1
(lp2
F-21.0
aF-392.0
aF-511.0
aF-143.0
aF-230.0
aF-517.0
aF-102.0
aF-108.0
aF-204.0
aF-306.0
asS'test_scores'
p3
(lp4
F191.0
asS'behavior_count'
p5
(dp6
I1
(dp7
S'FleeBehavior'
p8
(lp9
I29
aI40
aI79
aI12
aI20
aI54
aI33
aI22
aI13
aI40
aI0
asS'PursueBehavior'
p10
(lp11
I44
aI93
aI181
aI20
aI108
aI204
aI53
aI125
aI70
aI31
aI0
asS'SeekBehavior'
p12
(lp13
I49
aI70
aI162
aI22
aI13
aI170
aI87
aI62
aI42
aI46
aI110
assI2
(dp14
S'FleeBehavior'
p15
(lp16
I55
aI84
aI138
aI25
aI91
aI215
aI83
aI152
aI30
aI57
aI109
asS'PursueBehavior'
p17
(lp18
I45
aI105
aI152
aI10
aI16
aI110
aI27
aI16
aI7
aI1
aI0
asS'SeekBehavior'
p19
(lp20
I22
aI14
aI131
aI18
aI34
aI102
aI63
aI40
aI87
aI59
aI0
asss.