(dp0
S'learn_scores'
p1
(lp2
F2632.0
aF2651.0
aF2830.0
aF1038.0
aF2606.0
aF2658.0
aF2643.0
aF3248.0
aF1140.0
aF2875.0
asS'test_scores'
p3
(lp4
F2609.0
asS'behavior_count'
p5
(dp6
I1
(dp7
S'FleeBehavior'
p8
(lp9
I86
aI101
aI91
aI43
aI90
aI73
aI79
aI146
aI30
aI77
aI115
asS'PursueBehavior'
p10
(lp11
I183
aI146
aI142
aI109
aI258
aI169
aI212
aI152
aI167
aI208
aI266
asS'SeekBehavior'
p12
(lp13
I89
aI92
aI127
aI111
aI36
aI90
aI56
aI44
aI74
aI30
aI0
assI2
(dp14
S'FleeBehavior'
p15
(lp16
I91
aI49
aI97
aI56
aI66
aI110
aI90
aI85
aI115
aI128
aI248
asS'PursueBehavior'
p17
(lp18
I204
aI229
aI166
aI144
aI254
aI147
aI158
aI153
aI102
aI129
aI133
asS'SeekBehavior'
p19
(lp20
I63
aI61
aI97
aI63
aI64
aI75
aI99
aI104
aI53
aI58
aI0
assI3
(dp21
S'FleeBehavior'
p22
(lp23
I76
aI112
aI84
aI22
aI99
aI116
aI52
aI74
aI48
aI130
aI0
asS'PursueBehavior'
p24
(lp25
I114
aI65
aI60
aI52
aI62
aI27
aI24
aI97
aI7
aI18
aI0
asS'SeekBehavior'
p26
(lp27
I168
aI162
aI216
aI188
aI223
aI189
aI271
aI171
aI215
aI167
aI381
asss.