(dp0
S'learn_scores'
p1
(lp2
F1265.0
aF2584.0
aF2614.0
aF2453.0
aF2648.0
aF2541.0
aF-132.0
aF1269.0
aF2666.0
aF2640.0
asS'test_scores'
p3
(lp4
F2829.0
asS'behavior_count'
p5
(dp6
I1
(dp7
S'FleeBehavior'
p8
(lp9
I65
aI120
aI96
aI48
aI95
aI98
aI13
aI27
aI136
aI41
aI98
asS'PursueBehavior'
p10
(lp11
I138
aI214
aI223
aI231
aI172
aI290
aI30
aI144
aI156
aI285
aI263
asS'SeekBehavior'
p12
(lp13
I63
aI72
aI57
aI58
aI75
aI61
aI0
aI61
aI32
aI24
aI0
assI2
(dp14
S'FleeBehavior'
p15
(lp16
I52
aI58
aI74
aI67
aI67
aI76
aI10
aI69
aI89
aI87
aI210
asS'PursueBehavior'
p17
(lp18
I123
aI261
aI257
aI190
aI193
aI297
aI31
aI95
aI165
aI154
aI151
asS'SeekBehavior'
p19
(lp20
I91
aI87
aI45
aI80
aI82
aI76
aI1
aI68
aI70
aI109
aI0
assI3
(dp21
S'FleeBehavior'
p22
(lp23
I64
aI220
aI90
aI99
aI99
aI143
aI1
aI80
aI73
aI21
aI0
asS'PursueBehavior'
p24
(lp25
I35
aI116
aI64
aI49
aI62
aI34
aI2
aI64
aI6
aI10
aI0
asS'SeekBehavior'
p26
(lp27
I166
aI70
aI222
aI189
aI181
aI272
aI39
aI87
aI245
aI319
aI361
asss.