(dp0
S'learn_scores'
p1
(lp2
F-271.0
aF-462.0
aF-150.0
aF-361.0
aF-226.0
aF-249.0
aF-354.0
aF-193.0
aF-269.0
aF177.0
asS'test_scores'
p3
(lp4
F-923.0
asS'behavior_count'
p5
(dp6
I1
(dp7
S'FleeBehavior'
p8
(lp9
I7
aI84
aI12
aI6
aI27
aI130
aI37
aI11
aI0
aI31
aI0
asS'PursueBehavior'
p10
(lp11
I7
aI84
aI16
aI3
aI63
aI24
aI193
aI13
aI0
aI33
aI0
asS'SeekBehavior'
p12
(lp13
I18
aI105
aI23
aI13
aI57
aI46
aI215
aI50
aI29
aI60
aI994
assI2
(dp14
S'FleeBehavior'
p15
(lp16
I16
aI113
aI19
aI9
aI29
aI31
aI84
aI25
aI20
aI61
aI993
asS'PursueBehavior'
p17
(lp18
I8
aI71
aI16
aI6
aI75
aI46
aI269
aI20
aI1
aI27
aI0
asS'SeekBehavior'
p19
(lp20
I8
aI89
aI16
aI7
aI42
aI122
aI91
aI29
aI8
aI35
aI0
asss.