(dp0
S'learn_scores'
p1
(lp2
F1863.0
aF516.0
aF489.0
aF-20.0
aF2829.0
aF2475.0
aF3247.0
aF1162.0
aF431.0
aF2827.0
asS'test_scores'
p3
(lp4
F2641.0
asS'behavior_count'
p5
(dp6
I1
(dp7
S'FleeBehavior'
p8
(lp9
I98
aI26
aI48
aI26
aI83
aI120
aI115
aI56
aI39
aI96
aI0
asS'PursueBehavior'
p10
(lp11
I74
aI34
aI62
aI21
aI167
aI120
aI87
aI133
aI54
aI131
aI0
asS'SeekBehavior'
p12
(lp13
I136
aI45
aI32
aI24
aI111
aI75
aI141
aI110
aI57
aI136
aI349
assI2
(dp14
S'FleeBehavior'
p15
(lp16
I91
aI35
aI50
aI3
aI119
aI76
aI152
aI63
aI23
aI32
aI0
asS'PursueBehavior'
p17
(lp18
I145
aI33
aI37
aI32
aI145
aI66
aI109
aI57
aI77
aI213
aI347
asS'SeekBehavior'
p19
(lp20
I71
aI37
aI55
aI36
aI97
aI173
aI82
aI179
aI49
aI118
aI2
assI3
(dp21
S'FleeBehavior'
p22
(lp23
I113
aI45
aI98
aI35
aI103
aI91
aI95
aI91
aI73
aI90
aI349
asS'PursueBehavior'
p24
(lp25
I72
aI22
aI15
aI24
aI89
aI155
aI83
aI74
aI49
aI107
aI0
asS'SeekBehavior'
p26
(lp27
I122
aI38
aI29
aI11
aI169
aI69
aI165
aI134
aI27
aI166
aI0
assI4
(dp28
S'FleeBehavior'
p29
(lp30
I112
aI45
aI39
aI15
aI127
aI73
aI100
aI29
aI38
aI51
aI3
asS'PursueBehavior'
p31
(lp32
I50
aI30
aI57
aI39
aI123
aI158
aI135
aI100
aI48
aI234
aI327
asS'SeekBehavior'
p33
(lp34
I145
aI29
aI45
aI16
aI111
aI84
aI108
aI169
aI63
aI78
aI19
asss.