(dp0
S'learn_scores'
p1
(lp2
F-188.0
aF-157.0
aF-279.0
aF-251.0
aF-284.0
aF170.0
aF-252.0
aF-57.0
aF-199.0
aF-146.0
asS'test_scores'
p3
(lp4
F-116.0
asS'behavior_count'
p5
(dp6
I1
(dp7
S'FleeBehavior'
p8
(lp9
I7
aI22
aI152
aI12
aI31
aI55
aI85
aI30
aI15
aI2
aI0
asS'PursueBehavior'
p10
(lp11
I22
aI10
aI22
aI10
aI64
aI39
aI68
aI57
aI36
aI51
aI207
asS'SeekBehavior'
p12
(lp13
I10
aI36
aI26
aI9
aI10
aI27
aI20
aI41
aI19
aI4
aI0
assI2
(dp14
S'FleeBehavior'
p15
(lp16
I8
aI21
aI27
aI14
aI36
aI68
aI69
aI44
aI26
aI13
aI0
asS'PursueBehavior'
p17
(lp18
I8
aI36
aI101
aI6
aI40
aI28
aI46
aI34
aI6
aI6
aI0
asS'SeekBehavior'
p19
(lp20
I23
aI10
aI72
aI11
aI29
aI25
aI58
aI49
aI38
aI38
aI207
assI3
(dp21
S'FleeBehavior'
p22
(lp23
I23
aI27
aI106
aI8
aI61
aI54
aI119
aI63
aI56
aI55
aI207
asS'PursueBehavior'
p24
(lp25
I9
aI24
aI56
aI11
aI14
aI40
aI16
aI31
aI4
aI1
aI0
asS'SeekBehavior'
p26
(lp27
I7
aI16
aI38
aI12
aI29
aI26
aI37
aI33
aI9
aI1
aI0
asss.