(dp0
S'learn_scores'
p1
(lp2
F2646.0
aF2836.0
aF1092.0
aF594.0
aF-329.0
aF2989.0
aF2807.0
aF2663.0
aF2824.0
aF2835.0
aF2853.0
aF2993.0
aF1211.0
aF2446.0
aF2809.0
aF2652.0
aF3173.0
aF3044.0
aF2438.0
aF2824.0
aF1390.0
aF-95.0
aF3067.0
aF3256.0
aF2850.0
aF2880.0
aF906.0
aF2635.0
aF2657.0
aF1511.0
aF-161.0
aF-270.0
aF926.0
aF593.0
aF3006.0
aF1715.0
aF211.0
aF2641.0
aF2611.0
aF1445.0
aF2847.0
aF2830.0
aF2847.0
aF336.0
aF3031.0
aF3229.0
aF2779.0
aF2647.0
aF3008.0
aF573.0
asS'test_scores'
p3
(lp4
F2416.0
asS'behavior_count'
p5
(dp6
I1
(dp7
S'FleeBehavior'
p8
(lp9
I86
aI138
aI47
aI88
aI5
aI118
aI67
aI109
aI115
aI26
aI68
aI132
aI50
aI45
aI184
aI146
aI141
aI75
aI86
aI43
aI28
aI1
aI55
aI126
aI68
aI77
aI21
aI14
aI20
aI38
aI14
aI1
aI26
aI37
aI52
aI22
aI12
aI14
aI38
aI19
aI65
aI36
aI57
aI39
aI28
aI117
aI110
aI60
aI64
aI5
aI22
asS'PursueBehavior'
p10
(lp11
I149
aI70
aI77
aI28
aI3
aI128
aI76
aI177
aI78
aI115
aI140
aI163
aI193
aI155
aI93
aI98
aI145
aI190
aI77
aI25
aI182
aI21
aI210
aI88
aI151
aI154
aI77
aI137
aI94
aI176
aI2
aI18
aI84
aI43
aI126
aI140
aI22
aI152
aI117
aI104
aI122
aI143
aI140
aI20
aI161
aI143
aI76
aI179
aI138
aI51
aI121
asS'SeekBehavior'
p12
(lp13
I109
aI146
aI65
aI91
aI12
aI155
aI240
aI41
aI173
aI214
aI129
aI102
aI47
aI144
aI104
aI94
aI131
aI81
aI189
aI298
aI81
aI34
aI58
aI120
aI121
aI79
aI127
aI204
aI219
aI76
aI26
aI12
aI105
aI18
aI206
aI174
aI66
aI183
aI224
aI123
aI156
aI181
aI146
aI66
aI170
aI101
aI225
aI104
aI180
aI102
aI231
assI2
(dp14
S'FleeBehavior'
p15
(lp16
I140
aI92
aI90
aI90
aI11
aI214
aI50
aI137
aI151
aI133
aI89
aI122
aI105
aI111
aI56
aI90
aI175
aI73
aI138
aI158
aI106
aI28
aI68
aI159
aI144
aI65
aI50
aI110
aI147
aI73
aI29
aI24
aI78
aI36
aI190
aI128
aI29
aI145
aI132
aI135
aI102
aI142
aI162
aI41
aI108
aI123
aI143
aI116
aI247
aI43
aI128
asS'PursueBehavior'
p17
(lp18
I81
aI165
aI56
aI45
aI4
aI117
aI223
aI107
aI84
aI164
aI50
aI132
aI41
aI81
aI175
aI96
aI158
aI184
aI27
aI140
aI78
aI2
aI71
aI50
aI59
aI177
aI31
aI176
aI13
aI102
aI0
aI3
aI7
aI35
aI62
aI53
aI1
aI39
aI17
aI9
aI51
aI42
aI41
aI6
aI17
aI93
aI140
aI89
aI11
aI4
aI0
asS'SeekBehavior'
p19
(lp20
I123
aI97
aI43
aI71
aI5
aI70
aI110
aI83
aI131
aI58
aI198
aI143
aI144
aI152
aI150
aI152
aI84
aI89
aI187
aI68
aI107
aI26
aI184
aI125
aI137
aI68
aI143
aI69
aI173
aI115
aI13
aI4
aI129
aI26
aI132
aI155
aI70
aI165
aI230
aI102
aI190
aI176
aI140
aI77
aI234
aI145
aI128
aI138
aI124
aI111
aI246
assI3
(dp21
S'FleeBehavior'
p22
(lp23
I182
aI90
aI33
aI83
aI2
aI178
aI205
aI155
aI129
aI74
aI157
aI112
aI111
aI131
aI159
aI71
aI95
aI74
aI133
aI175
aI96
aI2
aI87
aI92
aI76
aI132
aI40
aI51
aI94
aI41
aI1
aI1
aI46
aI31
aI112
aI81
aI37
aI91
aI111
aI67
aI74
aI96
aI79
aI22
aI110
aI81
aI175
aI113
aI90
aI73
aI157
asS'PursueBehavior'
p24
(lp25
I127
aI199
aI102
aI96
aI17
aI111
aI153
aI115
aI151
aI208
aI128
aI169
aI135
aI145
aI107
aI198
aI244
aI212
aI160
aI105
aI132
aI41
aI161
aI216
aI182
aI104
aI127
aI212
aI139
aI187
aI38
aI30
aI114
aI48
aI192
aI189
aI57
aI209
aI179
aI141
aI227
aI189
aI173
aI84
aI201
aI192
aI134
aI152
aI229
aI60
aI168
asS'SeekBehavior'
p26
(lp27
I35
aI65
aI54
aI27
aI1
aI112
aI25
aI57
aI86
aI73
aI52
aI116
aI44
aI68
aI115
aI69
aI78
aI60
aI59
aI86
aI62
aI13
aI75
aI26
aI82
aI74
aI57
aI92
aI100
aI62
aI3
aI0
aI54
aI18
aI80
aI65
aI6
aI49
aI89
aI37
aI42
aI75
aI91
aI18
aI48
aI88
aI102
aI78
aI63
aI25
aI49
assI4
(dp28
S'FleeBehavior'
p29
(lp30
I222
aI65
aI36
aI90
aI1
aI74
aI88
aI48
aI57
aI69
aI66
aI86
aI69
aI97
aI98
aI107
aI78
aI146
aI93
aI114
aI90
aI19
aI161
aI90
aI107
aI74
aI59
aI142
aI55
aI110
aI6
aI7
aI73
aI32
aI91
aI82
aI45
aI155
aI92
aI95
aI110
aI132
aI113
aI31
aI169
aI90
aI65
aI120
aI101
aI51
aI231
asS'PursueBehavior'
p31
(lp32
I78
aI210
aI112
aI97
aI18
aI247
aI227
aI183
aI199
aI212
aI191
aI207
aI150
aI179
aI218
aI173
aI235
aI117
aI226
aI198
aI147
aI31
aI94
aI213
aI151
aI169
aI91
aI142
aI145
aI129
aI34
aI22
aI89
aI52
aI237
aI174
aI49
aI152
aI214
aI108
aI176
aI203
aI195
aI87
aI162
aI210
aI278
aI185
aI156
aI79
aI143
asS'SeekBehavior'
p33
(lp34
I44
aI79
aI41
aI19
aI0
aI80
aI68
aI96
aI110
aI74
aI80
aI104
aI71
aI68
aI65
aI58
aI104
aI83
aI33
aI54
aI53
aI5
aI68
aI31
aI82
aI67
aI74
aI71
aI133
aI51
aI1
aI1
aI52
aI13
aI56
aI79
aI5
aI42
aI73
aI42
aI57
aI25
aI35
aI6
aI28
aI61
aI68
aI38
aI125
aI28
aI0
asss.