(dp0
S'learn_scores'
p1
(lp2
F2842.0
aF3219.0
aF3241.0
aF43.0
aF925.0
aF-97.0
aF3000.0
aF939.0
aF2666.0
aF458.0
asS'test_scores'
p3
(lp4
F1422.0
asS'behavior_count'
p5
(dp6
I1
(dp7
S'FleeBehavior'
p8
(lp9
I98
aI158
aI75
aI1
aI10
aI2
aI40
aI17
aI59
aI6
aI0
asS'PursueBehavior'
p10
(lp11
I62
aI60
aI65
aI6
aI43
aI2
aI51
aI39
aI17
aI6
aI21
asS'SeekBehavior'
p12
(lp13
I188
aI153
aI209
aI60
aI103
aI44
aI299
aI136
aI248
aI101
aI468
assI2
(dp14
S'FleeBehavior'
p15
(lp16
I220
aI84
aI212
aI59
aI103
aI33
aI320
aI107
aI213
aI74
aI401
asS'PursueBehavior'
p17
(lp18
I75
aI64
aI95
aI6
aI32
aI13
aI47
aI50
aI55
aI34
aI68
asS'SeekBehavior'
p19
(lp20
I53
aI223
aI42
aI2
aI20
aI2
aI23
aI34
aI56
aI4
aI20
assI3
(dp21
S'FleeBehavior'
p22
(lp23
I57
aI80
aI214
aI6
aI42
aI7
aI136
aI98
aI152
aI33
aI111
asS'PursueBehavior'
p24
(lp25
I212
aI220
aI88
aI57
aI58
aI38
aI190
aI76
aI112
aI59
aI268
asS'SeekBehavior'
p26
(lp27
I79
aI71
aI47
aI4
aI55
aI3
aI64
aI17
aI60
aI20
aI110
assI4
(dp28
S'FleeBehavior'
p29
(lp30
I125
aI140
aI105
aI46
aI46
aI45
aI296
aI123
aI227
aI83
aI468
asS'PursueBehavior'
p31
(lp32
I134
aI160
aI227
aI13
aI66
aI0
aI34
aI20
aI10
aI2
aI0
asS'SeekBehavior'
p33
(lp34
I89
aI71
aI17
aI8
aI43
aI2
aI60
aI48
aI87
aI27
aI20
asss.