(dp0
S'learn_scores'
p1
(lp2
F2833.0
aF1477.0
aF2756.0
aF3007.0
aF3015.0
aF-275.0
aF2858.0
aF2370.0
aF737.0
aF3015.0
asS'test_scores'
p3
(lp4
F-97.0
asS'behavior_count'
p5
(dp6
I1
(dp7
S'FleeBehavior'
p8
(lp9
I53
aI36
aI66
aI55
aI30
aI0
aI21
aI18
aI28
aI38
aI0
asS'PursueBehavior'
p10
(lp11
I172
aI96
aI29
aI169
aI122
aI19
aI92
aI306
aI86
aI227
aI57
asS'SeekBehavior'
p12
(lp13
I132
aI102
aI339
aI159
aI223
aI7
aI219
aI96
aI59
aI110
aI0
assI2
(dp14
S'FleeBehavior'
p15
(lp16
I187
aI79
aI268
aI203
aI230
aI20
aI83
aI103
aI90
aI73
aI57
asS'PursueBehavior'
p17
(lp18
I78
aI57
aI51
aI118
aI47
aI0
aI104
aI37
aI28
aI48
aI0
asS'SeekBehavior'
p19
(lp20
I92
aI97
aI115
aI62
aI98
aI5
aI145
aI280
aI55
aI254
aI0
assI3
(dp21
S'FleeBehavior'
p22
(lp23
I54
aI53
aI61
aI56
aI69
aI0
aI41
aI28
aI6
aI56
aI0
asS'PursueBehavior'
p24
(lp25
I172
aI116
aI304
aI205
aI78
aI24
aI218
aI343
aI77
aI282
aI57
asS'SeekBehavior'
p26
(lp27
I131
aI64
aI69
aI122
aI228
aI1
aI73
aI49
aI90
aI37
aI0
assI4
(dp28
S'FleeBehavior'
p29
(lp30
I123
aI114
aI182
aI129
aI162
aI25
aI219
aI353
aI133
aI300
aI57
asS'PursueBehavior'
p31
(lp32
I107
aI58
aI173
aI134
aI140
aI0
aI91
aI50
aI13
aI51
aI0
asS'SeekBehavior'
p33
(lp34
I127
aI61
aI79
aI120
aI73
aI0
aI22
aI17
aI27
aI24
aI0
asss.