(dp0
S'learn_scores'
p1
(lp2
F-161.0
aF-170.0
aF-251.0
aF-217.0
aF-152.0
aF-177.0
aF-287.0
aF-227.0
aF15.0
aF-195.0
asS'test_scores'
p3
(lp4
F-126.0
asS'behavior_count'
p5
(dp6
I1
(dp7
S'FleeBehavior'
p8
(lp9
I19
aI15
aI14
aI10
aI11
aI9
aI1
aI1
aI22
aI100
aI0
asS'PursueBehavior'
p10
(lp11
I12
aI13
aI12
aI25
aI25
aI22
aI19
aI21
aI233
aI40
aI217
asS'SeekBehavior'
p12
(lp13
I11
aI12
aI5
aI93
aI37
aI17
aI8
aI16
aI31
aI6
aI0
assI2
(dp14
S'FleeBehavior'
p15
(lp16
I18
aI19
aI10
aI78
aI18
aI14
aI0
aI13
aI41
aI85
aI2
asS'PursueBehavior'
p17
(lp18
I14
aI13
aI15
aI21
aI47
aI21
aI26
aI23
aI126
aI43
aI215
asS'SeekBehavior'
p19
(lp20
I10
aI8
aI6
aI29
aI7
aI13
aI2
aI2
aI118
aI17
aI0
assI3
(dp21
S'FleeBehavior'
p22
(lp23
I11
aI11
aI4
aI14
aI10
aI5
aI2
aI5
aI204
aI30
aI0
asS'PursueBehavior'
p24
(lp25
I12
aI16
aI23
aI25
aI19
aI28
aI25
aI22
aI52
aI97
aI216
asS'SeekBehavior'
p26
(lp27
I19
aI13
aI4
aI88
aI43
aI14
aI1
aI10
aI29
aI18
aI0
asss.