(dp0
S'learn_scores'
p1
(lp2
F2862.0
aF2773.0
aF2437.0
aF2483.0
aF2475.0
aF2659.0
aF2667.0
aF2644.0
aF2421.0
aF2434.0
asS'test_scores'
p3
(lp4
F691.0
asS'behavior_count'
p5
(dp6
I1
(dp7
S'FleeBehavior'
p8
(lp9
I74
aI80
aI68
aI132
aI123
aI83
aI48
aI153
aI146
aI44
aI0
asS'PursueBehavior'
p10
(lp11
I139
aI231
aI148
aI130
aI123
aI202
aI165
aI139
aI166
aI219
aI43
asS'SeekBehavior'
p12
(lp13
I115
aI106
aI137
aI45
aI69
aI46
aI110
aI54
aI57
aI93
aI87
assI2
(dp14
S'FleeBehavior'
p15
(lp16
I86
aI238
aI208
aI150
aI217
aI195
aI174
aI189
aI166
aI208
aI105
asS'PursueBehavior'
p17
(lp18
I95
aI107
aI53
aI92
aI49
aI96
aI83
aI95
aI129
aI59
aI24
asS'SeekBehavior'
p19
(lp20
I147
aI72
aI92
aI65
aI49
aI40
aI66
aI62
aI74
aI89
aI0
asss.