(dp0
S'learn_scores'
p1
(lp2
F-313.0
aF-82.0
aF-161.0
aF-142.0
aF-260.0
aF-234.0
aF-322.0
aF-197.0
aF-65.0
aF-139.0
asS'test_scores'
p3
(lp4
F-351.0
asS'behavior_count'
p5
(dp6
I1
(dp7
S'FleeBehavior'
p8
(lp9
I99
aI109
aI4
aI14
aI1
aI6
aI3
aI2
aI14
aI4
aI0
asS'PursueBehavior'
p10
(lp11
I90
aI30
aI6
aI8
aI3
aI8
aI140
aI4
aI10
aI1
aI0
asS'SeekBehavior'
p12
(lp13
I75
aI14
aI32
aI31
aI26
aI21
aI100
aI31
aI142
aI45
aI22
assI2
(dp14
S'FleeBehavior'
p15
(lp16
I204
aI20
aI7
aI5
aI0
aI0
aI67
aI1
aI14
aI5
aI0
asS'PursueBehavior'
p17
(lp18
I18
aI90
aI8
aI9
aI0
aI2
aI84
aI0
aI79
aI0
aI0
asS'SeekBehavior'
p19
(lp20
I41
aI43
aI27
aI39
aI30
aI33
aI92
aI36
aI73
aI45
aI21
assI3
(dp21
S'FleeBehavior'
p22
(lp23
I220
aI112
aI22
aI35
aI18
aI32
aI108
aI34
aI132
aI46
aI21
asS'PursueBehavior'
p24
(lp25
I20
aI19
aI9
aI7
aI4
aI2
aI48
aI3
aI13
aI1
aI0
asS'SeekBehavior'
p26
(lp27
I23
aI22
aI11
aI11
aI8
aI0
aI86
aI0
aI21
aI2
aI0
asss.