(dp0
S'learn_scores'
p1
(lp2
F-371.0
aF247.0
aF69.0
aF-357.0
aF-185.0
aF-128.0
aF-284.0
aF-281.0
aF23.0
aF-137.0
asS'test_scores'
p3
(lp4
F8.0
asS'behavior_count'
p5
(dp6
I1
(dp7
S'FleeBehavior'
p8
(lp9
I11
aI31
aI31
aI6
aI20
aI8
aI34
aI23
aI22
aI10
aI13
asS'PursueBehavior'
p10
(lp11
I2
aI75
aI40
aI2
aI10
aI19
aI39
aI9
aI9
aI28
aI269
asS'SeekBehavior'
p12
(lp13
I9
aI28
aI41
aI10
aI26
aI22
aI22
aI0
aI47
aI10
aI71
assI2
(dp14
S'FleeBehavior'
p15
(lp16
I10
aI33
aI51
aI11
aI15
aI4
aI27
aI6
aI26
aI11
aI149
asS'PursueBehavior'
p17
(lp18
I8
aI49
aI21
aI7
aI17
aI36
aI31
aI17
aI28
aI25
aI0
asS'SeekBehavior'
p19
(lp20
I3
aI51
aI40
aI0
aI23
aI9
aI37
aI9
aI24
aI12
aI203
assI3
(dp21
S'FleeBehavior'
p22
(lp23
I8
aI50
aI25
aI5
aI29
aI32
aI39
aI27
aI44
aI33
aI71
asS'PursueBehavior'
p24
(lp25
I9
aI47
aI29
aI10
aI15
aI6
aI28
aI4
aI33
aI0
aI281
asS'SeekBehavior'
p26
(lp27
I4
aI36
aI57
aI3
aI11
aI10
aI28
aI0
aI1
aI14
aI0
asss.