(dp0
S'learn_scores'
p1
(lp2
F-576.0
aF-90.0
aF-239.0
aF-219.0
aF-172.0
aF155.0
aF-316.0
aF-108.0
aF-272.0
aF-242.0
asS'test_scores'
p3
(lp4
F-189.0
asS'behavior_count'
p5
(dp6
I1
(dp7
S'FleeBehavior'
p8
(lp9
I290
aI65
aI21
aI34
aI15
aI55
aI123
aI19
aI0
aI56
aI16
asS'PursueBehavior'
p10
(lp11
I69
aI120
aI13
aI62
aI7
aI39
aI53
aI18
aI17
aI36
aI0
asS'SeekBehavior'
p12
(lp13
I138
aI86
aI16
aI34
aI31
aI22
aI61
aI22
aI15
aI31
aI254
assI2
(dp14
S'FleeBehavior'
p15
(lp16
I235
aI123
aI14
aI44
aI26
aI72
aI119
aI13
aI30
aI51
aI238
asS'PursueBehavior'
p17
(lp18
I159
aI106
aI22
aI35
aI20
aI22
aI58
aI13
aI1
aI50
aI0
asS'SeekBehavior'
p19
(lp20
I102
aI42
aI13
aI50
aI6
aI22
aI59
aI32
aI1
aI21
aI32
asss.