(dp0
S'learn_scores'
p1
(lp2
F3142.0
aF1460.0
aF2449.0
aF1153.0
aF2824.0
aF2825.0
aF2847.0
aF2412.0
aF-238.0
aF2815.0
asS'test_scores'
p3
(lp4
F2845.0
asS'behavior_count'
p5
(dp6
I1
(dp7
S'FleeBehavior'
p8
(lp9
I216
aI58
aI114
aI102
aI61
aI111
aI13
aI136
aI1
aI22
aI0
asS'PursueBehavior'
p10
(lp11
I143
aI80
aI93
aI60
aI101
aI13
aI17
aI19
aI1
aI17
aI0
asS'SeekBehavior'
p12
(lp13
I89
aI123
aI134
aI96
aI204
aI241
aI313
aI223
aI37
aI336
aI345
assI2
(dp14
S'FleeBehavior'
p15
(lp16
I156
aI61
aI81
aI59
aI105
aI32
aI142
aI21
aI0
aI22
aI1
asS'PursueBehavior'
p17
(lp18
I175
aI156
aI175
aI112
aI186
aI212
aI175
aI62
aI37
aI149
aI224
asS'SeekBehavior'
p19
(lp20
I117
aI44
aI85
aI87
aI75
aI121
aI26
aI295
aI2
aI204
aI120
assI3
(dp21
S'FleeBehavior'
p22
(lp23
I137
aI117
aI69
aI81
aI225
aI176
aI276
aI344
aI36
aI249
aI345
asS'PursueBehavior'
p24
(lp25
I190
aI41
aI106
aI67
aI84
aI172
aI45
aI16
aI2
aI115
aI0
asS'SeekBehavior'
p26
(lp27
I121
aI103
aI166
aI110
aI57
aI17
aI22
aI18
aI1
aI11
aI0
assI4
(dp28
S'FleeBehavior'
p29
(lp30
I87
aI47
aI59
aI147
aI211
aI176
aI15
aI20
aI1
aI130
aI0
asS'PursueBehavior'
p31
(lp32
I126
aI91
aI46
aI40
aI72
aI98
aI21
aI34
aI0
aI16
aI0
asS'SeekBehavior'
p33
(lp34
I235
aI122
aI236
aI70
aI83
aI91
aI307
aI324
aI38
aI229
aI345
asss.