(dp0
S'learn_scores'
p1
(lp2
F-358.0
aF-251.0
aF-161.0
aF-188.0
aF-152.0
aF14.0
aF-155.0
aF-131.0
aF-443.0
aF16.0
asS'test_scores'
p3
(lp4
F-317.0
asS'behavior_count'
p5
(dp6
I1
(dp7
S'FleeBehavior'
p8
(lp9
I170
aI9
aI18
aI23
aI23
aI65
aI20
aI33
aI169
aI23
aI34
asS'PursueBehavior'
p10
(lp11
I78
aI15
aI13
aI7
aI14
aI66
aI16
aI13
aI34
aI23
aI0
asS'SeekBehavior'
p12
(lp13
I31
aI8
aI11
aI9
aI5
aI36
aI9
aI6
aI111
aI29
aI154
assI2
(dp14
S'FleeBehavior'
p15
(lp16
I203
aI19
aI17
aI1
aI5
aI87
aI20
aI25
aI133
aI60
aI99
asS'PursueBehavior'
p17
(lp18
I38
aI10
aI8
aI36
aI32
aI54
aI22
aI19
aI96
aI11
aI0
asS'SeekBehavior'
p19
(lp20
I37
aI3
aI17
aI2
aI5
aI26
aI3
aI8
aI84
aI4
aI88
asss.