(dp0
S'learn_scores'
p1
(lp2
F-291.0
aF-98.0
aF-173.0
aF-251.0
aF-179.0
aF-197.0
aF-25.0
aF-236.0
aF-41.0
aF-256.0
asS'test_scores'
p3
(lp4
F-312.0
asS'behavior_count'
p5
(dp6
I1
(dp7
S'FleeBehavior'
p8
(lp9
I9
aI117
aI24
aI0
aI2
aI5
aI38
aI3
aI6
aI1
aI0
asS'PursueBehavior'
p10
(lp11
I46
aI42
aI18
aI0
aI3
aI9
aI17
aI1
aI21
aI1
aI0
asS'SeekBehavior'
p12
(lp13
I47
aI10
aI2
aI31
aI34
aI23
aI41
aI43
aI85
aI35
aI263
assI2
(dp14
S'FleeBehavior'
p15
(lp16
I10
aI109
aI5
aI3
aI2
aI1
aI21
aI0
aI5
aI1
aI0
asS'PursueBehavior'
p17
(lp18
I74
aI25
aI1
aI6
aI11
aI1
aI11
aI2
aI8
aI3
aI0
asS'SeekBehavior'
p19
(lp20
I17
aI34
aI38
aI22
aI26
aI35
aI64
aI45
aI99
aI33
aI262
assI3
(dp21
S'FleeBehavior'
p22
(lp23
I20
aI73
aI31
aI28
aI20
aI30
aI69
aI42
aI74
aI35
aI262
asS'PursueBehavior'
p24
(lp25
I74
aI19
aI5
aI1
aI9
aI3
aI13
aI3
aI4
aI1
aI0
asS'SeekBehavior'
p26
(lp27
I7
aI76
aI7
aI2
aI10
aI4
aI13
aI2
aI33
aI0
aI0
asss.