(dp0
S'learn_scores'
p1
(lp2
F2854.0
aF2821.0
aF1137.0
aF2619.0
aF201.0
aF3190.0
aF-131.0
aF2792.0
aF2684.0
aF1223.0
asS'test_scores'
p3
(lp4
F120.0
asS'behavior_count'
p5
(dp6
I1
(dp7
S'FleeBehavior'
p8
(lp9
I135
aI55
aI40
aI105
aI2
aI48
aI1
aI9
aI51
aI15
aI0
asS'PursueBehavior'
p10
(lp11
I81
aI87
aI19
aI83
aI26
aI62
aI2
aI82
aI85
aI54
aI0
asS'SeekBehavior'
p12
(lp13
I120
aI227
aI135
aI183
aI72
aI290
aI38
aI307
aI170
aI159
aI91
assI2
(dp14
S'FleeBehavior'
p15
(lp16
I144
aI223
aI120
aI223
aI76
aI309
aI29
aI283
aI203
aI144
aI65
asS'PursueBehavior'
p17
(lp18
I99
aI40
aI48
aI80
aI23
aI75
aI10
aI64
aI90
aI34
aI25
asS'SeekBehavior'
p19
(lp20
I93
aI106
aI26
aI68
aI1
aI16
aI2
aI51
aI13
aI50
aI0
assI3
(dp21
S'FleeBehavior'
p22
(lp23
I94
aI171
aI69
aI76
aI8
aI193
aI14
aI73
aI87
aI39
aI10
asS'PursueBehavior'
p24
(lp25
I160
aI135
aI99
aI214
aI91
aI156
aI24
aI274
aI180
aI95
aI41
asS'SeekBehavior'
p26
(lp27
I82
aI63
aI26
aI81
aI1
aI51
aI3
aI51
aI39
aI93
aI39
assI4
(dp28
S'FleeBehavior'
p29
(lp30
I116
aI222
aI113
aI145
aI92
aI234
aI36
aI293
aI213
aI172
aI90
asS'PursueBehavior'
p31
(lp32
I126
aI52
aI39
aI176
aI1
aI89
aI3
aI32
aI35
aI11
aI0
asS'SeekBehavior'
p33
(lp34
I94
aI95
aI42
aI50
aI6
aI77
aI2
aI73
aI58
aI44
aI0
asss.