(dp0
S'learn_scores'
p1
(lp2
F173.0
aF-175.0
aF-168.0
aF-24.0
aF-182.0
aF-122.0
aF162.0
aF-361.0
aF-139.0
aF-425.0
asS'test_scores'
p3
(lp4
F-297.0
asS'behavior_count'
p5
(dp6
I1
(dp7
S'FleeBehavior'
p8
(lp9
I18
aI20
aI34
aI108
aI27
aI22
aI21
aI5
aI9
aI109
aI0
asS'PursueBehavior'
p10
(lp11
I42
aI15
aI35
aI39
aI27
aI24
aI58
aI16
aI37
aI115
aI208
asS'SeekBehavior'
p12
(lp13
I48
aI51
aI190
aI28
aI49
aI27
aI40
aI1
aI4
aI112
aI0
assI2
(dp14
S'FleeBehavior'
p15
(lp16
I18
aI32
aI186
aI43
aI52
aI25
aI50
aI10
aI18
aI155
aI0
asS'PursueBehavior'
p17
(lp18
I37
aI45
aI33
aI82
aI32
aI18
aI25
aI0
aI3
aI32
aI0
asS'SeekBehavior'
p19
(lp20
I53
aI8
aI40
aI50
aI18
aI30
aI44
aI12
aI28
aI148
aI208
assI3
(dp21
S'FleeBehavior'
p22
(lp23
I47
aI4
aI88
aI27
aI48
aI48
aI59
aI19
aI26
aI153
aI207
asS'PursueBehavior'
p24
(lp25
I40
aI26
aI91
aI51
aI29
aI13
aI21
aI3
aI10
aI103
aI0
asS'SeekBehavior'
p26
(lp27
I21
aI55
aI80
aI96
aI25
aI12
aI38
aI0
aI13
aI79
aI0
asss.