(dp0
S'learn_scores'
p1
(lp2
F2841.0
aF2853.0
aF1889.0
aF1849.0
aF1578.0
aF-4.0
aF2837.0
aF3453.0
aF560.0
aF2799.0
asS'test_scores'
p3
(lp4
F1333.0
asS'behavior_count'
p5
(dp6
I1
(dp7
S'FleeBehavior'
p8
(lp9
I36
aI39
aI54
aI37
aI4
aI14
aI35
aI49
aI5
aI36
aI8
asS'PursueBehavior'
p10
(lp11
I248
aI95
aI113
aI211
aI172
aI15
aI134
aI200
aI79
aI61
aI170
asS'SeekBehavior'
p12
(lp13
I65
aI203
aI95
aI104
aI117
aI55
aI184
aI88
aI67
aI294
aI0
assI2
(dp14
S'FleeBehavior'
p15
(lp16
I165
aI93
aI53
aI187
aI79
aI20
aI94
aI153
aI49
aI134
aI117
asS'PursueBehavior'
p17
(lp18
I115
aI117
aI135
aI93
aI16
aI27
aI74
aI58
aI63
aI62
aI53
asS'SeekBehavior'
p19
(lp20
I69
aI127
aI74
aI71
aI197
aI37
aI185
aI126
aI38
aI195
aI8
assI3
(dp21
S'FleeBehavior'
p22
(lp23
I73
aI43
aI66
aI83
aI34
aI9
aI33
aI72
aI4
aI46
aI16
asS'PursueBehavior'
p24
(lp25
I155
aI265
aI124
aI227
aI188
aI63
aI290
aI238
aI141
aI314
aI162
asS'SeekBehavior'
p26
(lp27
I121
aI29
aI72
aI41
aI70
aI12
aI30
aI27
aI5
aI31
aI0
assI4
(dp28
S'FleeBehavior'
p29
(lp30
I155
aI149
aI101
aI255
aI52
aI50
aI244
aI115
aI70
aI313
aI135
asS'PursueBehavior'
p31
(lp32
I110
aI113
aI64
aI50
aI192
aI19
aI44
aI56
aI49
aI39
aI42
asS'SeekBehavior'
p33
(lp34
I84
aI75
aI96
aI46
aI48
aI15
aI65
aI166
aI31
aI39
aI0
asss.