(dp0
S'learn_scores'
p1
(lp2
F-140.0
aF-132.0
aF-210.0
aF423.0
aF-279.0
aF-181.0
aF-154.0
aF-246.0
aF-269.0
aF-10.0
asS'test_scores'
p3
(lp4
F-186.0
asS'behavior_count'
p5
(dp6
I1
(dp7
S'FleeBehavior'
p8
(lp9
I10
aI19
aI24
aI66
aI18
aI31
aI36
aI20
aI13
aI49
aI11
asS'PursueBehavior'
p10
(lp11
I34
aI20
aI38
aI33
aI40
aI43
aI0
aI26
aI16
aI4
aI45
asS'SeekBehavior'
p12
(lp13
I17
aI13
aI59
aI129
aI92
aI28
aI39
aI21
aI1
aI28
aI1
assI2
(dp14
S'FleeBehavior'
p15
(lp16
I18
aI26
aI78
aI71
aI67
aI18
aI17
aI5
aI13
aI21
aI31
asS'PursueBehavior'
p17
(lp18
I24
aI12
aI24
aI61
aI45
aI38
aI6
aI5
aI15
aI41
aI0
asS'SeekBehavior'
p19
(lp20
I19
aI14
aI19
aI95
aI38
aI46
aI52
aI57
aI2
aI18
aI26
assI3
(dp21
S'FleeBehavior'
p22
(lp23
I27
aI24
aI25
aI81
aI49
aI21
aI42
aI33
aI23
aI34
aI31
asS'PursueBehavior'
p24
(lp25
I19
aI18
aI69
aI66
aI54
aI29
aI31
aI11
aI1
aI25
aI26
asS'SeekBehavior'
p26
(lp27
I14
aI10
aI27
aI80
aI46
aI52
aI1
aI22
aI6
aI21
aI0
asss.