(dp0
S'learn_scores'
p1
(lp2
F-175.0
aF383.0
aF-249.0
aF-120.0
aF-260.0
aF-156.0
aF19.0
aF-50.0
aF-242.0
aF-530.0
asS'test_scores'
p3
(lp4
F-187.0
asS'behavior_count'
p5
(dp6
I1
(dp7
S'FleeBehavior'
p8
(lp9
I20
aI46
aI289
aI26
aI66
aI0
aI10
aI33
aI4
aI75
aI0
asS'PursueBehavior'
p10
(lp11
I48
aI43
aI23
aI318
aI173
aI20
aI83
aI45
aI0
aI146
aI0
asS'SeekBehavior'
p12
(lp13
I18
aI99
aI38
aI77
aI102
aI47
aI179
aI73
aI28
aI230
aI108
assI2
(dp14
S'FleeBehavior'
p15
(lp16
I60
aI106
aI57
aI90
aI126
aI37
aI221
aI127
aI32
aI311
aI104
asS'PursueBehavior'
p17
(lp18
I14
aI30
aI17
aI298
aI31
aI17
aI35
aI9
aI0
aI18
aI4
asS'SeekBehavior'
p19
(lp20
I11
aI52
aI275
aI33
aI183
aI13
aI16
aI14
aI0
aI121
aI0
asss.