(dp0
S'learn_scores'
p1
(lp2
F89.0
aF2432.0
aF396.0
aF2643.0
aF2803.0
aF1523.0
aF3036.0
aF1523.0
aF2816.0
aF2625.0
asS'test_scores'
p3
(lp4
F2411.0
asS'behavior_count'
p5
(dp6
I1
(dp7
S'FleeBehavior'
p8
(lp9
I8
aI125
aI5
aI32
aI36
aI32
aI57
aI55
aI37
aI35
aI0
asS'PursueBehavior'
p10
(lp11
I3
aI54
aI21
aI58
aI112
aI44
aI81
aI68
aI109
aI47
aI0
asS'SeekBehavior'
p12
(lp13
I61
aI179
aI119
aI257
aI239
aI212
aI216
aI225
aI228
aI283
aI379
assI2
(dp14
S'FleeBehavior'
p15
(lp16
I62
aI243
aI123
aI231
aI252
aI229
aI242
aI246
aI296
aI260
aI311
asS'PursueBehavior'
p17
(lp18
I4
aI65
aI16
aI89
aI99
aI16
aI57
aI81
aI41
aI80
aI68
asS'SeekBehavior'
p19
(lp20
I5
aI50
aI5
aI27
aI36
aI43
aI55
aI20
aI37
aI25
aI0
assI3
(dp21
S'FleeBehavior'
p22
(lp23
I7
aI104
aI52
aI100
aI83
aI69
aI72
aI104
aI78
aI66
aI68
asS'PursueBehavior'
p24
(lp25
I59
aI183
aI86
aI197
aI257
aI202
aI220
aI166
aI210
aI200
aI194
asS'SeekBehavior'
p26
(lp27
I5
aI71
aI6
aI50
aI47
aI17
aI62
aI77
aI86
aI99
aI117
assI4
(dp28
S'FleeBehavior'
p29
(lp30
I37
aI203
aI127
aI117
aI271
aI198
aI195
aI171
aI120
aI246
aI379
asS'PursueBehavior'
p31
(lp32
I15
aI78
aI5
aI156
aI77
aI15
aI32
aI64
aI181
aI12
aI0
asS'SeekBehavior'
p33
(lp34
I19
aI77
aI12
aI74
aI39
aI75
aI127
aI112
aI73
aI107
aI0
asss.