(dp0
S'learn_scores'
p1
(lp2
F-45.0
aF-175.0
aF-374.0
aF-481.0
aF-209.0
aF-141.0
aF-216.0
aF-269.0
aF11.0
aF-26.0
asS'test_scores'
p3
(lp4
F-84.0
asS'behavior_count'
p5
(dp6
I1
(dp7
S'FleeBehavior'
p8
(lp9
I137
aI88
aI12
aI295
aI28
aI7
aI25
aI1
aI6
aI7
aI0
asS'PursueBehavior'
p10
(lp11
I51
aI14
aI17
aI51
aI69
aI15
aI27
aI0
aI16
aI2
aI0
asS'SeekBehavior'
p12
(lp13
I38
aI24
aI266
aI46
aI33
aI40
aI75
aI29
aI88
aI108
aI155
assI2
(dp14
S'FleeBehavior'
p15
(lp16
I96
aI70
aI31
aI151
aI78
aI32
aI65
aI24
aI41
aI63
aI155
asS'PursueBehavior'
p17
(lp18
I70
aI32
aI18
aI174
aI16
aI21
aI41
aI3
aI45
aI18
aI0
asS'SeekBehavior'
p19
(lp20
I59
aI24
aI245
aI66
aI36
aI9
aI21
aI3
aI23
aI35
aI0
asss.