(dp0
S'learn_scores'
p1
(lp2
F-356.0
aF2655.0
aF3240.0
aF2859.0
aF1253.0
aF2441.0
aF2625.0
aF3054.0
aF2432.0
aF1462.0
asS'test_scores'
p3
(lp4
F119.0
asS'behavior_count'
p5
(dp6
I1
(dp7
S'FleeBehavior'
p8
(lp9
I5
aI57
aI80
aI109
aI18
aI59
aI103
aI92
aI56
aI60
aI8
asS'PursueBehavior'
p10
(lp11
I12
aI178
aI226
aI111
aI197
aI217
aI231
aI185
aI250
aI107
aI74
asS'SeekBehavior'
p12
(lp13
I0
aI100
aI44
aI111
aI23
aI73
aI31
aI59
aI52
aI101
aI0
assI2
(dp14
S'FleeBehavior'
p15
(lp16
I0
aI75
aI81
aI103
aI91
aI128
aI66
aI50
aI138
aI119
aI52
asS'PursueBehavior'
p17
(lp18
I14
aI154
aI216
aI169
aI88
aI144
aI184
aI191
aI153
aI114
aI29
asS'SeekBehavior'
p19
(lp20
I3
aI106
aI53
aI59
aI59
aI77
aI115
aI95
aI67
aI35
aI0
assI3
(dp21
S'FleeBehavior'
p22
(lp23
I3
aI74
aI163
aI115
aI23
aI59
aI103
aI89
aI95
aI28
aI0
asS'PursueBehavior'
p24
(lp25
I1
aI62
aI14
aI13
aI26
aI41
aI4
aI115
aI13
aI45
aI0
asS'SeekBehavior'
p26
(lp27
I12
aI199
aI173
aI203
aI188
aI249
aI258
aI132
aI250
aI195
aI81
asss.