(dp0
S'learn_scores'
p1
(lp2
F-132.0
aF-153.0
aF-242.0
aF-27.0
aF138.0
aF-288.0
aF-261.0
aF-216.0
aF56.0
aF-37.0
asS'test_scores'
p3
(lp4
F154.0
asS'behavior_count'
p5
(dp6
I1
(dp7
S'FleeBehavior'
p8
(lp9
I12
aI18
aI1
aI38
aI171
aI7
aI2
aI184
aI19
aI18
aI0
asS'PursueBehavior'
p10
(lp11
I11
aI16
aI4
aI14
aI14
aI2
aI10
aI22
aI20
aI17
aI0
asS'SeekBehavior'
p12
(lp13
I30
aI70
aI27
aI56
aI48
aI100
aI60
aI91
aI196
aI103
aI127
assI2
(dp14
S'FleeBehavior'
p15
(lp16
I12
aI20
aI5
aI47
aI15
aI1
aI18
aI45
aI24
aI13
aI0
asS'PursueBehavior'
p17
(lp18
I12
aI57
aI9
aI16
aI22
aI30
aI1
aI63
aI110
aI48
aI0
asS'SeekBehavior'
p19
(lp20
I29
aI27
aI18
aI45
aI196
aI77
aI52
aI189
aI101
aI77
aI127
assI3
(dp21
S'FleeBehavior'
p22
(lp23
I21
aI74
aI28
aI61
aI40
aI64
aI63
aI182
aI193
aI109
aI126
asS'PursueBehavior'
p24
(lp25
I18
aI12
aI1
aI21
aI53
aI16
aI5
aI21
aI20
aI15
aI0
asS'SeekBehavior'
p26
(lp27
I13
aI17
aI3
aI26
aI140
aI28
aI3
aI93
aI21
aI13
aI0
asss.