(dp0
S'learn_scores'
p1
(lp2
F2783.0
aF2828.0
aF2817.0
aF1272.0
aF176.0
aF2630.0
aF3055.0
aF2455.0
aF3031.0
aF-61.0
asS'test_scores'
p3
(lp4
F3065.0
asS'behavior_count'
p5
(dp6
I1
(dp7
S'FleeBehavior'
p8
(lp9
I125
aI62
aI113
aI62
aI1
aI38
aI31
aI36
aI49
aI1
aI0
asS'PursueBehavior'
p10
(lp11
I63
aI77
aI51
aI50
aI27
aI115
aI38
aI71
aI46
aI0
aI0
asS'SeekBehavior'
p12
(lp13
I219
aI223
aI209
aI157
aI67
aI207
aI266
aI228
aI264
aI61
aI325
assI2
(dp14
S'FleeBehavior'
p15
(lp16
I224
aI220
aI256
aI183
aI84
aI261
aI223
aI236
aI245
aI40
aI264
asS'PursueBehavior'
p17
(lp18
I98
aI100
aI70
aI48
aI6
aI54
aI86
aI38
aI67
aI20
aI61
asS'SeekBehavior'
p19
(lp20
I85
aI42
aI47
aI37
aI5
aI45
aI26
aI61
aI47
aI1
aI0
assI3
(dp21
S'FleeBehavior'
p22
(lp23
I141
aI144
aI101
aI66
aI7
aI110
aI108
aI48
aI100
aI2
aI38
asS'PursueBehavior'
p24
(lp25
I194
aI180
aI164
aI129
aI87
aI195
aI168
aI250
aI215
aI58
aI174
asS'SeekBehavior'
p26
(lp27
I72
aI38
aI108
aI73
aI1
aI55
aI59
aI37
aI44
aI1
aI113
assI4
(dp28
S'FleeBehavior'
p29
(lp30
I303
aI239
aI180
aI93
aI70
aI288
aI186
aI143
aI176
aI56
aI319
asS'PursueBehavior'
p31
(lp32
I43
aI61
aI113
aI114
aI3
aI5
aI100
aI50
aI58
aI0
aI0
asS'SeekBehavior'
p33
(lp34
I61
aI62
aI80
aI61
aI21
aI67
aI49
aI142
aI125
aI5
aI6
asss.