(dp0
S'learn_scores'
p1
(lp2
F-251.0
aF192.0
aF-713.0
aF-233.0
aF-169.0
aF-261.0
aF-317.0
aF-186.0
aF-179.0
aF-319.0
asS'test_scores'
p3
(lp4
F-150.0
asS'behavior_count'
p5
(dp6
I1
(dp7
S'FleeBehavior'
p8
(lp9
I6
aI103
aI193
aI6
aI16
aI129
aI17
aI11
aI32
aI76
aI0
asS'PursueBehavior'
p10
(lp11
I14
aI20
aI138
aI19
aI53
aI26
aI49
aI35
aI50
aI91
aI71
asS'SeekBehavior'
p12
(lp13
I11
aI46
aI333
aI8
aI11
aI17
aI172
aI21
aI8
aI73
aI0
assI2
(dp14
S'FleeBehavior'
p15
(lp16
I14
aI48
aI277
aI9
aI6
aI93
aI14
aI3
aI41
aI8
aI0
asS'PursueBehavior'
p17
(lp18
I7
aI56
aI162
aI14
aI55
aI50
aI42
aI32
aI32
aI223
aI70
asS'SeekBehavior'
p19
(lp20
I10
aI64
aI225
aI10
aI18
aI29
aI182
aI31
aI17
aI9
aI0
assI3
(dp21
S'FleeBehavior'
p22
(lp23
I9
aI65
aI262
aI13
aI7
aI45
aI8
aI27
aI24
aI28
aI0
asS'PursueBehavior'
p24
(lp25
I18
aI58
aI262
aI14
aI25
aI69
aI66
aI32
aI62
aI118
aI70
asS'SeekBehavior'
p26
(lp27
I4
aI45
aI139
aI6
aI47
aI57
aI164
aI7
aI3
aI94
aI0
asss.