(dp0
S'learn_scores'
p1
(lp2
F-382.0
aF-289.0
aF-373.0
aF-150.0
aF-132.0
aF132.0
aF198.0
aF211.0
aF-321.0
aF-146.0
asS'test_scores'
p3
(lp4
F-146.0
asS'behavior_count'
p5
(dp6
I1
(dp7
S'FleeBehavior'
p8
(lp9
I192
aI90
aI122
aI16
aI29
aI51
aI74
aI20
aI111
aI15
aI8
asS'PursueBehavior'
p10
(lp11
I59
aI69
aI113
aI23
aI14
aI64
aI32
aI38
aI50
aI22
aI0
asS'SeekBehavior'
p12
(lp13
I42
aI51
aI89
aI22
aI10
aI64
aI67
aI22
aI71
aI30
aI89
assI2
(dp14
S'FleeBehavior'
p15
(lp16
I167
aI83
aI75
aI34
aI17
aI100
aI88
aI36
aI70
aI42
aI85
asS'PursueBehavior'
p17
(lp18
I88
aI71
aI152
aI21
aI9
aI46
aI42
aI28
aI82
aI10
aI0
asS'SeekBehavior'
p19
(lp20
I38
aI56
aI96
aI6
aI26
aI33
aI42
aI16
aI79
aI14
aI12
asss.