(dp0
S'learn_scores'
p1
(lp2
F-160.0
aF-135.0
aF60.0
aF-176.0
aF-186.0
aF-217.0
aF-172.0
aF-269.0
aF-214.0
aF-248.0
asS'test_scores'
p3
(lp4
F-169.0
asS'behavior_count'
p5
(dp6
I1
(dp7
S'FleeBehavior'
p8
(lp9
I13
aI12
aI38
aI67
aI62
aI9
aI42
aI7
aI97
aI50
aI0
asS'PursueBehavior'
p10
(lp11
I37
aI17
aI25
aI21
aI33
aI23
aI24
aI22
aI52
aI76
aI80
asS'SeekBehavior'
p12
(lp13
I31
aI17
aI58
aI9
aI42
aI56
aI17
aI0
aI16
aI43
aI0
assI2
(dp14
S'FleeBehavior'
p15
(lp16
I21
aI19
aI29
aI57
aI23
aI21
aI40
aI10
aI25
aI23
aI0
asS'PursueBehavior'
p17
(lp18
I14
aI18
aI77
aI21
aI24
aI23
aI34
aI18
aI132
aI40
aI79
asS'SeekBehavior'
p19
(lp20
I45
aI9
aI15
aI18
aI89
aI44
aI9
aI1
aI7
aI105
aI0
assI3
(dp21
S'FleeBehavior'
p22
(lp23
I17
aI8
aI29
aI62
aI81
aI8
aI6
aI7
aI59
aI40
aI0
asS'PursueBehavior'
p24
(lp25
I31
aI18
aI61
aI21
aI36
aI68
aI41
aI16
aI64
aI82
aI79
asS'SeekBehavior'
p26
(lp27
I32
aI19
aI31
aI13
aI19
aI11
aI36
aI6
aI41
aI46
aI0
asss.