(dp0
S'learn_scores'
p1
(lp2
F2430.0
aF933.0
aF61.0
aF484.0
aF3173.0
aF1672.0
aF2661.0
aF2607.0
aF1262.0
aF1719.0
asS'test_scores'
p3
(lp4
F-258.0
asS'behavior_count'
p5
(dp6
I1
(dp7
S'FleeBehavior'
p8
(lp9
I223
aI153
aI46
aI113
aI291
aI128
aI148
aI191
aI69
aI100
aI39
asS'PursueBehavior'
p10
(lp11
I86
aI24
aI21
aI29
aI95
aI120
aI64
aI125
aI56
aI171
aI0
asS'SeekBehavior'
p12
(lp13
I51
aI21
aI3
aI34
aI31
aI91
aI117
aI67
aI34
aI41
aI0
assI2
(dp14
S'FleeBehavior'
p15
(lp16
I64
aI20
aI0
aI35
aI82
aI46
aI39
aI35
aI43
aI41
aI0
asS'PursueBehavior'
p17
(lp18
I161
aI87
aI1
aI32
aI135
aI104
aI132
aI103
aI53
aI127
aI1
asS'SeekBehavior'
p19
(lp20
I135
aI90
aI68
aI109
aI200
aI189
aI158
aI245
aI63
aI144
aI38
assI3
(dp21
S'FleeBehavior'
p22
(lp23
I169
aI101
aI2
aI50
aI125
aI129
aI141
aI54
aI45
aI61
aI24
asS'PursueBehavior'
p24
(lp25
I115
aI67
aI67
aI106
aI257
aI146
aI117
aI222
aI64
aI191
aI15
asS'SeekBehavior'
p26
(lp27
I76
aI29
aI0
aI20
aI35
aI63
aI71
aI107
aI50
aI60
aI0
assI4
(dp28
S'FleeBehavior'
p29
(lp30
I134
aI29
aI3
aI34
aI61
aI27
aI132
aI65
aI23
aI60
aI6
asS'PursueBehavior'
p31
(lp32
I48
aI35
aI4
aI15
aI66
aI61
aI25
aI81
aI37
aI15
aI0
asS'SeekBehavior'
p33
(lp34
I178
aI133
aI62
aI127
aI290
aI250
aI172
aI237
aI98
aI236
aI33
asss.