(dp0
S'learn_scores'
p1
(lp2
F2641.0
aF2673.0
aF2589.0
aF2439.0
aF2847.0
aF2458.0
aF2663.0
aF2440.0
aF2677.0
aF2844.0
asS'test_scores'
p3
(lp4
F-122.0
asS'behavior_count'
p5
(dp6
I1
(dp7
S'FleeBehavior'
p8
(lp9
I134
aI95
aI86
aI125
aI34
aI84
aI78
aI44
aI119
aI123
aI0
asS'PursueBehavior'
p10
(lp11
I138
aI120
aI173
aI136
aI151
aI132
aI171
aI216
aI138
aI105
aI24
asS'SeekBehavior'
p12
(lp13
I77
aI102
aI142
aI90
aI158
aI116
aI78
aI90
aI56
aI118
aI19
assI2
(dp14
S'FleeBehavior'
p15
(lp16
I219
aI150
aI228
aI163
aI168
aI188
aI181
aI192
aI179
aI198
aI42
asS'PursueBehavior'
p17
(lp18
I57
aI81
aI98
aI125
aI72
aI86
aI77
aI96
aI38
aI67
aI0
asS'SeekBehavior'
p19
(lp20
I73
aI86
aI75
aI63
aI103
aI58
aI69
aI62
aI96
aI81
aI0
asss.