(dp0
S'learn_scores'
p1
(lp2
F-170.0
aF-178.0
aF44.0
aF-364.0
aF-22.0
aF-172.0
aF-287.0
aF-78.0
aF-343.0
aF-315.0
asS'test_scores'
p3
(lp4
F-438.0
asS'behavior_count'
p5
(dp6
I1
(dp7
S'FleeBehavior'
p8
(lp9
I25
aI42
aI49
aI22
aI37
aI28
aI46
aI39
aI96
aI82
aI10
asS'PursueBehavior'
p10
(lp11
I5
aI27
aI21
aI3
aI24
aI35
aI21
aI63
aI130
aI80
aI349
asS'SeekBehavior'
p12
(lp13
I10
aI30
aI17
aI0
aI32
aI20
aI31
aI47
aI38
aI64
aI0
assI2
(dp14
S'FleeBehavior'
p15
(lp16
I18
aI10
aI15
aI7
aI34
aI44
aI35
aI68
aI50
aI56
aI231
asS'PursueBehavior'
p17
(lp18
I12
aI59
aI36
aI10
aI11
aI13
aI37
aI41
aI103
aI77
aI7
asS'SeekBehavior'
p19
(lp20
I10
aI30
aI36
aI7
aI48
aI26
aI25
aI40
aI111
aI92
aI121
assI3
(dp21
S'FleeBehavior'
p22
(lp23
I23
aI23
aI41
aI0
aI23
aI27
aI12
aI62
aI59
aI91
aI65
asS'PursueBehavior'
p24
(lp25
I14
aI48
aI27
aI11
aI18
aI36
aI46
aI51
aI135
aI96
aI293
asS'SeekBehavior'
p26
(lp27
I3
aI27
aI19
aI13
aI51
aI20
aI39
aI36
aI70
aI38
aI0
asss.