(dp0
S'learn_scores'
p1
(lp2
F2854.0
aF725.0
aF416.0
aF2847.0
aF2830.0
aF1634.0
aF1063.0
aF2609.0
aF2830.0
aF2850.0
asS'test_scores'
p3
(lp4
F2620.0
asS'behavior_count'
p5
(dp6
I1
(dp7
S'FleeBehavior'
p8
(lp9
I96
aI27
aI17
aI73
aI183
aI57
aI88
aI23
aI77
aI152
aI57
asS'PursueBehavior'
p10
(lp11
I180
aI102
aI73
aI220
aI126
aI205
aI94
aI314
aI205
aI137
aI313
asS'SeekBehavior'
p12
(lp13
I60
aI17
aI25
aI50
aI51
aI65
aI46
aI44
aI78
aI51
aI0
assI2
(dp14
S'FleeBehavior'
p15
(lp16
I91
aI41
aI16
aI75
aI110
aI58
aI85
aI130
aI128
aI178
aI179
asS'PursueBehavior'
p17
(lp18
I189
aI67
aI73
aI164
aI200
aI210
aI91
aI176
aI173
aI108
aI191
asS'SeekBehavior'
p19
(lp20
I56
aI37
aI25
aI104
aI50
aI59
aI51
aI75
aI59
aI54
aI0
assI3
(dp21
S'FleeBehavior'
p22
(lp23
I95
aI28
aI17
aI69
aI86
aI38
aI45
aI170
aI82
aI103
aI0
asS'PursueBehavior'
p24
(lp25
I67
aI28
aI16
aI16
aI21
aI27
aI68
aI22
aI56
aI65
aI0
asS'SeekBehavior'
p26
(lp27
I174
aI89
aI81
aI258
aI253
aI262
aI114
aI189
aI222
aI172
aI370
asss.