(dp0
S'learn_scores'
p1
(lp2
F1254.0
aF2631.0
aF2843.0
aF3048.0
aF1546.0
aF2462.0
aF2664.0
aF2594.0
aF-170.0
aF2575.0
asS'test_scores'
p3
(lp4
F2848.0
asS'behavior_count'
p5
(dp6
I1
(dp7
S'FleeBehavior'
p8
(lp9
I126
aI168
aI165
aI223
aI232
aI166
aI238
aI203
aI35
aI140
aI202
asS'PursueBehavior'
p10
(lp11
I44
aI165
aI124
aI65
aI121
aI135
aI48
aI91
aI1
aI208
aI133
asS'SeekBehavior'
p12
(lp13
I57
aI26
aI58
aI54
aI62
aI27
aI40
aI102
aI4
aI67
aI7
assI2
(dp14
S'FleeBehavior'
p15
(lp16
I17
aI18
aI27
aI57
aI48
aI43
aI28
aI54
aI0
aI59
aI12
asS'PursueBehavior'
p17
(lp18
I121
aI77
aI121
aI172
aI113
aI128
aI181
aI128
aI6
aI134
aI79
asS'SeekBehavior'
p19
(lp20
I88
aI264
aI199
aI113
aI254
aI157
aI117
aI214
aI34
aI222
aI251
assI3
(dp21
S'FleeBehavior'
p22
(lp23
I78
aI180
aI107
aI87
aI174
aI122
aI161
aI122
aI27
aI131
aI116
asS'PursueBehavior'
p24
(lp25
I91
aI88
aI171
aI144
aI158
aI162
aI111
aI218
aI12
aI194
aI113
asS'SeekBehavior'
p26
(lp27
I57
aI91
aI69
aI111
aI83
aI44
aI54
aI56
aI1
aI90
aI113
assI4
(dp28
S'FleeBehavior'
p29
(lp30
I114
aI38
aI92
aI79
aI40
aI31
aI120
aI100
aI3
aI39
aI6
asS'PursueBehavior'
p31
(lp32
I18
aI131
aI53
aI66
aI48
aI77
aI14
aI29
aI2
aI68
aI0
asS'SeekBehavior'
p33
(lp34
I94
aI190
aI202
aI197
aI326
aI220
aI192
aI267
aI35
aI308
aI336
asss.