(dp0
S'learn_scores'
p1
(lp2
F1668.0
aF2855.0
aF2585.0
aF2800.0
aF602.0
aF-66.0
aF2455.0
aF2850.0
aF1738.0
aF2604.0
asS'test_scores'
p3
(lp4
F-184.0
asS'behavior_count'
p5
(dp6
I1
(dp7
S'FleeBehavior'
p8
(lp9
I90
aI76
aI52
aI34
aI40
aI58
aI250
aI194
aI307
aI263
aI65
asS'PursueBehavior'
p10
(lp11
I106
aI231
aI304
aI296
aI60
aI28
aI68
aI90
aI50
aI116
aI0
asS'SeekBehavior'
p12
(lp13
I47
aI28
aI49
aI60
aI29
aI1
aI17
aI56
aI26
aI7
aI0
assI2
(dp14
S'FleeBehavior'
p15
(lp16
I101
aI37
aI44
aI45
aI24
aI5
aI52
aI59
aI60
aI84
aI0
asS'PursueBehavior'
p17
(lp18
I43
aI75
aI103
aI68
aI53
aI5
aI67
aI56
aI124
aI79
aI2
asS'SeekBehavior'
p19
(lp20
I98
aI223
aI258
aI277
aI52
aI77
aI216
aI225
aI199
aI223
aI63
assI3
(dp21
S'FleeBehavior'
p22
(lp23
I60
aI49
aI49
aI36
aI20
aI41
aI238
aI192
aI159
aI107
aI65
asS'PursueBehavior'
p24
(lp25
I117
aI237
aI296
aI308
aI81
aI46
aI38
aI113
aI194
aI205
aI0
asS'SeekBehavior'
p26
(lp27
I65
aI49
aI60
aI46
aI28
aI0
aI59
aI35
aI29
aI74
aI0
assI4
(dp28
S'FleeBehavior'
p29
(lp30
I67
aI56
aI78
aI58
aI72
aI65
aI63
aI81
aI78
aI111
aI0
asS'PursueBehavior'
p31
(lp32
I71
aI63
aI60
aI66
aI27
aI2
aI35
aI67
aI22
aI46
aI0
asS'SeekBehavior'
p33
(lp34
I104
aI216
aI267
aI266
aI29
aI19
aI237
aI192
aI282
aI229
aI64
asss.