(dp0
S'learn_scores'
p1
(lp2
F-187.0
aF-271.0
aF-243.0
aF-247.0
aF-4.0
aF-258.0
aF-171.0
aF-173.0
aF13.0
aF-403.0
asS'test_scores'
p3
(lp4
F-459.0
asS'behavior_count'
p5
(dp6
I1
(dp7
S'FleeBehavior'
p8
(lp9
I18
aI20
aI14
aI42
aI12
aI7
aI10
aI17
aI32
aI37
aI6
asS'PursueBehavior'
p10
(lp11
I12
aI9
aI13
aI40
aI13
aI67
aI8
aI3
aI11
aI176
aI0
asS'SeekBehavior'
p12
(lp13
I28
aI63
aI37
aI76
aI40
aI95
aI34
aI34
aI35
aI281
aI364
assI2
(dp14
S'FleeBehavior'
p15
(lp16
I32
aI54
aI45
aI39
aI42
aI118
aI35
aI49
aI51
aI361
aI367
asS'PursueBehavior'
p17
(lp18
I9
aI29
aI10
aI5
aI9
aI33
aI11
aI4
aI14
aI76
aI2
asS'SeekBehavior'
p19
(lp20
I16
aI9
aI9
aI113
aI13
aI18
aI6
aI1
aI12
aI56
aI0
asss.