(dp0
S'learn_scores'
p1
(lp2
F2416.0
aF2887.0
aF2801.0
aF-51.0
aF1129.0
aF50.0
aF2805.0
aF2430.0
aF3243.0
aF-129.0
asS'test_scores'
p3
(lp4
F95.0
asS'behavior_count'
p5
(dp6
I1
(dp7
S'FleeBehavior'
p8
(lp9
I64
aI96
aI278
aI36
aI173
aI57
aI231
aI250
aI242
aI28
aI31
asS'PursueBehavior'
p10
(lp11
I214
aI157
aI58
aI25
aI53
aI12
aI140
aI66
aI63
aI17
aI45
asS'SeekBehavior'
p12
(lp13
I56
aI50
aI53
aI1
aI66
aI2
aI14
aI44
aI42
aI4
aI0
assI2
(dp14
S'FleeBehavior'
p15
(lp16
I40
aI54
aI37
aI2
aI59
aI3
aI34
aI22
aI88
aI4
aI1
asS'PursueBehavior'
p17
(lp18
I103
aI104
aI149
aI15
aI37
aI9
aI144
aI144
aI64
aI16
aI1
asS'SeekBehavior'
p19
(lp20
I191
aI145
aI203
aI45
aI196
aI59
aI207
aI194
aI195
aI29
aI73
assI3
(dp21
S'FleeBehavior'
p22
(lp23
I211
aI78
aI87
aI11
aI104
aI14
aI112
aI115
aI87
aI11
aI25
asS'PursueBehavior'
p24
(lp25
I77
aI161
aI251
aI49
aI120
aI54
aI183
aI141
aI215
aI38
aI10
asS'SeekBehavior'
p26
(lp27
I46
aI64
aI51
aI1
aI67
aI3
aI90
aI104
aI45
aI0
aI40
assI4
(dp28
S'FleeBehavior'
p29
(lp30
I108
aI63
aI105
aI4
aI33
aI8
aI29
aI22
aI102
aI1
aI0
asS'PursueBehavior'
p31
(lp32
I59
aI84
aI77
aI3
aI28
aI2
aI112
aI18
aI44
aI4
aI0
asS'SeekBehavior'
p33
(lp34
I167
aI156
aI207
aI54
aI230
aI60
aI244
aI320
aI201
aI44
aI75
asss.