(dp0
S'learn_scores'
p1
(lp2
F-287.0
aF-242.0
aF-215.0
aF-327.0
aF-287.0
aF-125.0
aF-81.0
aF-139.0
aF-245.0
aF3.0
asS'test_scores'
p3
(lp4
F-230.0
asS'behavior_count'
p5
(dp6
I1
(dp7
S'FleeBehavior'
p8
(lp9
I14
aI27
aI3
aI19
aI12
aI33
aI47
aI38
aI58
aI55
aI321
asS'PursueBehavior'
p10
(lp11
I10
aI2
aI16
aI99
aI8
aI6
aI29
aI7
aI71
aI4
aI0
asS'SeekBehavior'
p12
(lp13
I4
aI3
aI16
aI20
aI8
aI6
aI296
aI5
aI37
aI9
aI0
assI2
(dp14
S'FleeBehavior'
p15
(lp16
I16
aI5
aI5
aI21
aI14
aI22
aI53
aI35
aI70
aI45
aI321
asS'PursueBehavior'
p17
(lp18
I7
aI11
aI16
aI16
aI7
aI11
aI34
aI6
aI11
aI12
aI0
asS'SeekBehavior'
p19
(lp20
I5
aI16
aI14
aI100
aI7
aI12
aI284
aI8
aI85
aI10
aI0
asss.