(dp0
S'learn_scores'
p1
(lp2
F641.0
aF2602.0
aF2850.0
aF2830.0
aF1722.0
aF1795.0
aF3036.0
aF2661.0
aF2855.0
aF2204.0
asS'test_scores'
p3
(lp4
F-331.0
asS'behavior_count'
p5
(dp6
I1
(dp7
S'FleeBehavior'
p8
(lp9
I22
aI70
aI112
aI125
aI125
aI100
aI38
aI8
aI64
aI54
aI0
asS'PursueBehavior'
p10
(lp11
I22
aI109
aI51
aI54
aI67
aI112
aI49
aI196
aI63
aI18
aI0
asS'SeekBehavior'
p12
(lp13
I105
aI209
aI177
aI181
aI107
aI114
aI267
aI125
aI208
aI285
aI22
assI2
(dp14
S'FleeBehavior'
p15
(lp16
I33
aI76
aI100
aI69
aI147
aI53
aI33
aI16
aI108
aI18
aI0
asS'PursueBehavior'
p17
(lp18
I52
aI144
aI125
aI179
aI55
aI151
aI77
aI194
aI40
aI175
aI22
asS'SeekBehavior'
p19
(lp20
I64
aI168
aI115
aI112
aI96
aI122
aI244
aI119
aI187
aI164
aI0
assI3
(dp21
S'FleeBehavior'
p22
(lp23
I63
aI265
aI187
aI191
aI132
aI216
aI318
aI211
aI164
aI290
aI22
asS'PursueBehavior'
p24
(lp25
I62
aI69
aI106
aI119
aI123
aI56
aI15
aI20
aI23
aI49
aI0
asS'SeekBehavior'
p26
(lp27
I24
aI54
aI47
aI50
aI43
aI54
aI21
aI98
aI148
aI18
aI0
assI4
(dp28
S'FleeBehavior'
p29
(lp30
I11
aI114
aI99
aI65
aI85
aI122
aI34
aI21
aI11
aI47
aI0
asS'PursueBehavior'
p31
(lp32
I10
aI70
aI71
aI53
aI117
aI25
aI142
aI16
aI27
aI145
aI0
asS'SeekBehavior'
p33
(lp34
I128
aI204
aI170
aI242
aI96
aI178
aI178
aI292
aI297
aI165
aI21
asss.