(dp0
S'learn_scores'
p1
(lp2
F-308.0
aF-288.0
aF190.0
aF-305.0
aF-64.0
aF-94.0
aF-128.0
aF-79.0
aF-233.0
aF-188.0
asS'test_scores'
p3
(lp4
F-134.0
asS'behavior_count'
p5
(dp6
I1
(dp7
S'FleeBehavior'
p8
(lp9
I15
aI89
aI19
aI8
aI36
aI50
aI33
aI34
aI5
aI0
aI10
asS'PursueBehavior'
p10
(lp11
I4
aI65
aI16
aI6
aI33
aI40
aI16
aI24
aI29
aI23
aI36
asS'SeekBehavior'
p12
(lp13
I10
aI85
aI45
aI11
aI86
aI105
aI0
aI22
aI10
aI15
aI39
assI2
(dp14
S'FleeBehavior'
p15
(lp16
I9
aI46
aI19
aI2
aI13
aI56
aI11
aI8
aI2
aI11
aI22
asS'PursueBehavior'
p17
(lp18
I13
aI64
aI29
aI16
aI23
aI63
aI1
aI19
aI37
aI26
aI0
asS'SeekBehavior'
p19
(lp20
I6
aI129
aI32
aI7
aI119
aI75
aI36
aI53
aI5
aI1
aI62
assI3
(dp21
S'FleeBehavior'
p22
(lp23
I13
aI85
aI22
aI6
aI31
aI83
aI15
aI36
aI8
aI8
aI33
asS'PursueBehavior'
p24
(lp25
I9
aI99
aI35
aI17
aI49
aI80
aI14
aI37
aI25
aI21
aI51
asS'SeekBehavior'
p26
(lp27
I6
aI55
aI23
aI2
aI74
aI31
aI19
aI6
aI10
aI9
aI0
asss.