(dp0
S'learn_scores'
p1
(lp2
F196.0
aF-179.0
aF-308.0
aF-170.0
aF-135.0
aF189.0
aF-204.0
aF-500.0
aF-143.0
aF-194.0
asS'test_scores'
p3
(lp4
F-269.0
asS'behavior_count'
p5
(dp6
I1
(dp7
S'FleeBehavior'
p8
(lp9
I87
aI14
aI12
aI16
aI23
aI31
aI23
aI175
aI27
aI9
aI4
asS'PursueBehavior'
p10
(lp11
I53
aI8
aI7
aI5
aI20
aI42
aI57
aI132
aI5
aI43
aI0
asS'SeekBehavior'
p12
(lp13
I25
aI18
aI10
aI20
aI13
aI29
aI35
aI144
aI11
aI53
aI26
assI2
(dp14
S'FleeBehavior'
p15
(lp16
I43
aI25
aI1
aI38
aI19
aI37
aI57
aI184
aI0
aI46
aI30
asS'PursueBehavior'
p17
(lp18
I95
aI14
aI24
aI1
aI23
aI37
aI32
aI123
aI33
aI42
aI0
asS'SeekBehavior'
p19
(lp20
I26
aI1
aI3
aI2
aI14
aI27
aI26
aI144
aI10
aI17
aI0
asss.