(dp0
S'learn_scores'
p1
(lp2
F1527.0
aF2864.0
aF972.0
aF2416.0
aF2637.0
aF2463.0
aF2832.0
aF189.0
aF-131.0
aF1573.0
asS'test_scores'
p3
(lp4
F462.0
asS'behavior_count'
p5
(dp6
I1
(dp7
S'FleeBehavior'
p8
(lp9
I47
aI91
aI87
aI125
aI95
aI98
aI109
aI32
aI17
aI101
aI0
asS'PursueBehavior'
p10
(lp11
I94
aI146
aI54
aI145
aI131
aI123
aI155
aI23
aI0
aI105
aI0
asS'SeekBehavior'
p12
(lp13
I133
aI89
aI87
aI104
aI127
aI106
aI94
aI37
aI25
aI82
aI168
assI2
(dp14
S'FleeBehavior'
p15
(lp16
I73
aI109
aI47
aI102
aI115
aI69
aI71
aI15
aI1
aI26
aI0
asS'PursueBehavior'
p17
(lp18
I121
aI112
aI92
aI143
aI171
aI129
aI167
aI39
aI38
aI110
aI151
asS'SeekBehavior'
p19
(lp20
I79
aI105
aI89
aI129
aI67
aI129
aI120
aI37
aI3
aI151
aI17
assI3
(dp21
S'FleeBehavior'
p22
(lp23
I92
aI118
aI71
aI117
aI138
aI76
aI75
aI58
aI35
aI189
aI168
asS'PursueBehavior'
p24
(lp25
I74
aI111
aI85
aI67
aI118
aI101
aI115
aI12
aI1
aI49
aI0
asS'SeekBehavior'
p26
(lp27
I107
aI97
aI72
aI190
aI97
aI150
aI168
aI21
aI6
aI49
aI0
assI4
(dp28
S'FleeBehavior'
p29
(lp30
I85
aI162
aI67
aI107
aI145
aI109
aI54
aI4
aI3
aI87
aI1
asS'PursueBehavior'
p31
(lp32
I78
aI93
aI54
aI112
aI84
aI122
aI95
aI52
aI31
aI140
aI167
asS'SeekBehavior'
p33
(lp34
I110
aI71
aI107
aI155
aI124
aI96
aI209
aI35
aI7
aI60
aI0
asss.