(dp0
S'learn_scores'
p1
(lp2
F-127.0
aF-548.0
aF-261.0
aF-115.0
aF-155.0
aF-207.0
aF-313.0
aF-189.0
aF-519.0
aF-209.0
asS'test_scores'
p3
(lp4
F83.0
asS'behavior_count'
p5
(dp6
I1
(dp7
S'FleeBehavior'
p8
(lp9
I21
aI290
aI32
aI4
aI29
aI12
aI31
aI11
aI83
aI14
aI5
asS'PursueBehavior'
p10
(lp11
I10
aI177
aI8
aI125
aI14
aI1
aI85
aI27
aI133
aI3
aI0
asS'SeekBehavior'
p12
(lp13
I17
aI32
aI32
aI57
aI33
aI25
aI118
aI72
aI214
aI63
aI293
assI2
(dp14
S'FleeBehavior'
p15
(lp16
I19
aI398
aI62
aI102
aI53
aI34
aI112
aI89
aI290
aI70
aI289
asS'PursueBehavior'
p17
(lp18
I20
aI65
aI3
aI61
aI16
aI2
aI52
aI16
aI14
aI5
aI8
asS'SeekBehavior'
p19
(lp20
I9
aI36
aI6
aI23
aI7
aI1
aI70
aI5
aI125
aI4
aI0
asss.