(dp0
S'learn_scores'
p1
(lp2
F-125.0
aF-251.0
aF-168.0
aF-147.0
aF-218.0
aF-130.0
aF17.0
aF-153.0
aF-87.0
aF-221.0
asS'test_scores'
p3
(lp4
F-308.0
asS'behavior_count'
p5
(dp6
I1
(dp7
S'FleeBehavior'
p8
(lp9
I11
aI4
aI5
aI11
aI6
aI5
aI16
aI18
aI22
aI5
aI0
asS'PursueBehavior'
p10
(lp11
I13
aI11
aI35
aI16
aI9
aI9
aI30
aI12
aI14
aI73
aI0
asS'SeekBehavior'
p12
(lp13
I22
aI16
aI49
aI71
aI24
aI37
aI37
aI44
aI122
aI94
aI29
assI2
(dp14
S'FleeBehavior'
p15
(lp16
I13
aI3
aI12
aI36
aI0
aI2
aI16
aI2
aI14
aI7
aI0
asS'PursueBehavior'
p17
(lp18
I13
aI3
aI41
aI21
aI6
aI5
aI13
aI14
aI13
aI28
aI0
asS'SeekBehavior'
p19
(lp20
I20
aI25
aI36
aI40
aI32
aI43
aI54
aI58
aI130
aI136
aI28
assI3
(dp21
S'FleeBehavior'
p22
(lp23
I28
aI7
aI32
aI59
aI34
aI40
aI53
aI68
aI102
aI131
aI28
asS'PursueBehavior'
p24
(lp25
I9
aI11
aI17
aI10
aI1
aI0
aI17
aI5
aI17
aI6
aI0
asS'SeekBehavior'
p26
(lp27
I9
aI13
aI39
aI28
aI3
aI10
aI13
aI1
aI38
aI34
aI0
asss.