(dp0
S'learn_scores'
p1
(lp2
F57.0
aF-222.0
aF-319.0
aF-260.0
aF-225.0
aF-240.0
aF-325.0
aF-235.0
aF-378.0
aF-190.0
asS'test_scores'
p3
(lp4
F-344.0
asS'behavior_count'
p5
(dp6
I1
(dp7
S'FleeBehavior'
p8
(lp9
I58
aI0
aI48
aI8
aI5
aI34
aI12
aI55
aI44
aI10
aI0
asS'PursueBehavior'
p10
(lp11
I21
aI14
aI148
aI27
aI15
aI54
aI99
aI65
aI101
aI2
aI0
asS'SeekBehavior'
p12
(lp13
I45
aI19
aI44
aI36
aI26
aI73
aI135
aI66
aI144
aI89
aI215
assI2
(dp14
S'FleeBehavior'
p15
(lp16
I58
aI16
aI198
aI41
aI39
aI94
aI131
aI127
aI196
aI81
aI210
asS'PursueBehavior'
p17
(lp18
I38
aI14
aI23
aI3
aI6
aI11
aI45
aI7
aI45
aI11
aI5
asS'SeekBehavior'
p19
(lp20
I27
aI3
aI19
aI27
aI1
aI55
aI70
aI51
aI48
aI9
aI0
asss.