(dp0
S'learn_scores'
p1
(lp2
F3027.0
aF358.0
aF1748.0
aF-331.0
aF2633.0
aF621.0
aF2812.0
aF2616.0
aF244.0
aF2854.0
asS'test_scores'
p3
(lp4
F2636.0
asS'behavior_count'
p5
(dp6
I1
(dp7
S'FleeBehavior'
p8
(lp9
I49
aI28
aI51
aI3
aI35
aI7
aI55
aI40
aI4
aI29
aI0
asS'PursueBehavior'
p10
(lp11
I157
aI48
aI89
aI19
aI174
aI69
aI96
aI215
aI48
aI37
aI343
asS'SeekBehavior'
p12
(lp13
I157
aI27
aI143
aI0
aI148
aI74
aI227
aI119
aI35
aI270
aI11
assI2
(dp14
S'FleeBehavior'
p15
(lp16
I150
aI50
aI124
aI14
aI203
aI56
aI144
aI231
aI36
aI128
aI240
asS'PursueBehavior'
p17
(lp18
I136
aI24
aI31
aI1
aI47
aI24
aI113
aI61
aI39
aI108
aI114
asS'SeekBehavior'
p19
(lp20
I77
aI29
aI127
aI7
aI107
aI70
aI121
aI82
aI11
aI100
aI0
assI3
(dp21
S'FleeBehavior'
p22
(lp23
I93
aI10
aI44
aI1
aI51
aI22
aI79
aI38
aI12
aI65
aI11
asS'PursueBehavior'
p24
(lp25
I113
aI83
aI196
aI21
aI73
aI123
aI217
aI270
aI71
aI225
aI340
asS'SeekBehavior'
p26
(lp27
I157
aI10
aI42
aI0
aI233
aI5
aI82
aI66
aI3
aI46
aI3
assI4
(dp28
S'FleeBehavior'
p29
(lp30
I149
aI60
aI133
aI20
aI211
aI115
aI215
aI293
aI57
aI264
aI226
asS'PursueBehavior'
p31
(lp32
I159
aI21
aI89
aI1
aI78
aI27
aI127
aI43
aI26
aI33
aI125
asS'SeekBehavior'
p33
(lp34
I55
aI21
aI60
aI0
aI68
aI7
aI36
aI38
aI3
aI39
aI3
asss.