(dp0
S'learn_scores'
p1
(lp2
F25.0
aF-211.0
aF-161.0
aF-333.0
aF-286.0
aF-263.0
aF-256.0
aF-335.0
aF-135.0
aF-237.0
asS'test_scores'
p3
(lp4
F-173.0
asS'behavior_count'
p5
(dp6
I1
(dp7
S'FleeBehavior'
p8
(lp9
I237
aI80
aI18
aI1
aI3
aI1
aI2
aI1
aI7
aI6
aI0
asS'PursueBehavior'
p10
(lp11
I30
aI20
aI17
aI0
aI62
aI106
aI45
aI1
aI11
aI15
aI0
asS'SeekBehavior'
p12
(lp13
I79
aI62
aI7
aI22
aI102
aI77
aI130
aI24
aI28
aI167
aI44
assI2
(dp14
S'FleeBehavior'
p15
(lp16
I71
aI18
aI6
aI5
aI29
aI54
aI28
aI0
aI0
aI12
aI0
asS'PursueBehavior'
p17
(lp18
I38
aI21
aI10
aI0
aI64
aI69
aI64
aI2
aI2
aI61
aI0
asS'SeekBehavior'
p19
(lp20
I237
aI122
aI26
aI18
aI74
aI61
aI84
aI23
aI44
aI114
aI43
assI3
(dp21
S'FleeBehavior'
p22
(lp23
I111
aI11
aI35
aI19
aI32
aI125
aI52
aI23
aI42
aI157
aI43
asS'PursueBehavior'
p24
(lp25
I202
aI124
aI4
aI0
aI60
aI10
aI58
aI1
aI1
aI5
aI0
asS'SeekBehavior'
p26
(lp27
I33
aI26
aI3
aI4
aI74
aI49
aI66
aI1
aI2
aI25
aI0
asss.