(dp0
S'learn_scores'
p1
(lp2
F-475.0
aF-207.0
aF-170.0
aF-140.0
aF-144.0
aF-154.0
aF-261.0
aF-446.0
aF-419.0
aF16.0
asS'test_scores'
p3
(lp4
F-311.0
asS'behavior_count'
p5
(dp6
I1
(dp7
S'FleeBehavior'
p8
(lp9
I194
aI32
aI37
aI28
aI36
aI0
aI34
aI228
aI139
aI34
aI0
asS'PursueBehavior'
p10
(lp11
I105
aI55
aI28
aI19
aI6
aI61
aI22
aI117
aI112
aI16
aI0
asS'SeekBehavior'
p12
(lp13
I87
aI41
aI16
aI4
aI23
aI44
aI26
aI172
aI89
aI35
aI262
assI2
(dp14
S'FleeBehavior'
p15
(lp16
I269
aI58
aI59
aI27
aI13
aI54
aI48
aI233
aI114
aI65
aI226
asS'PursueBehavior'
p17
(lp18
I66
aI42
aI8
aI16
aI29
aI15
aI25
aI146
aI102
aI11
aI0
asS'SeekBehavior'
p19
(lp20
I50
aI28
aI14
aI8
aI22
aI36
aI9
aI138
aI124
aI9
aI36
asss.