(dp0
S'learn_scores'
p1
(lp2
F184.0
aF-222.0
aF-369.0
aF-34.0
aF-162.0
aF-275.0
aF-153.0
aF-260.0
aF-224.0
aF-130.0
asS'test_scores'
p3
(lp4
F-310.0
asS'behavior_count'
p5
(dp6
I1
(dp7
S'FleeBehavior'
p8
(lp9
I67
aI1
aI5
aI23
aI0
aI3
aI3
aI1
aI0
aI6
aI0
asS'PursueBehavior'
p10
(lp11
I12
aI2
aI7
aI17
aI22
aI2
aI11
aI2
aI1
aI3
aI0
asS'SeekBehavior'
p12
(lp13
I38
aI40
aI8
aI65
aI61
aI81
aI50
aI27
aI34
aI42
aI191
assI2
(dp14
S'FleeBehavior'
p15
(lp16
I21
aI13
aI1
aI23
aI11
aI30
aI5
aI1
aI0
aI0
aI0
asS'PursueBehavior'
p17
(lp18
I63
aI7
aI2
aI21
aI22
aI32
aI1
aI3
aI1
aI1
aI0
asS'SeekBehavior'
p19
(lp20
I33
aI22
aI17
aI61
aI50
aI23
aI57
aI26
aI34
aI50
aI190
assI3
(dp21
S'FleeBehavior'
p22
(lp23
I38
aI21
aI16
aI54
aI36
aI52
aI50
aI27
aI35
aI48
aI190
asS'PursueBehavior'
p24
(lp25
I28
aI11
aI1
aI28
aI21
aI4
aI0
aI1
aI0
aI1
aI0
asS'SeekBehavior'
p26
(lp27
I50
aI10
aI2
aI22
aI25
aI29
aI13
aI2
aI0
aI1
aI0
asss.