(dp0
S'learn_scores'
p1
(lp2
F-168.0
aF81.0
aF-134.0
aF-167.0
aF-269.0
aF-85.0
aF-233.0
aF-285.0
aF-240.0
aF-6.0
asS'test_scores'
p3
(lp4
F-205.0
asS'behavior_count'
p5
(dp6
I1
(dp7
S'FleeBehavior'
p8
(lp9
I27
aI15
aI27
aI15
aI26
aI106
aI24
aI37
aI42
aI78
aI116
asS'PursueBehavior'
p10
(lp11
I47
aI170
aI12
aI22
aI2
aI22
aI4
aI11
aI2
aI11
aI0
asS'SeekBehavior'
p12
(lp13
I15
aI35
aI16
aI51
aI1
aI28
aI5
aI58
aI7
aI18
aI0
assI2
(dp14
S'FleeBehavior'
p15
(lp16
I38
aI19
aI8
aI17
aI9
aI99
aI22
aI53
aI33
aI62
aI115
asS'PursueBehavior'
p17
(lp18
I37
aI151
aI22
aI52
aI11
aI28
aI5
aI43
aI10
aI18
aI0
asS'SeekBehavior'
p19
(lp20
I13
aI50
aI24
aI19
aI9
aI28
aI6
aI10
aI8
aI27
aI0
asss.