(dp0
S'learn_scores'
p1
(lp2
F-188.0
aF-190.0
aF-271.0
aF128.0
aF-172.0
aF-186.0
aF-237.0
aF-276.0
aF-266.0
aF-174.0
asS'test_scores'
p3
(lp4
F-269.0
asS'behavior_count'
p5
(dp6
I1
(dp7
S'FleeBehavior'
p8
(lp9
I18
aI27
aI71
aI67
aI22
aI64
aI20
aI5
aI72
aI1
aI7
asS'PursueBehavior'
p10
(lp11
I5
aI14
aI44
aI38
aI33
aI47
aI19
aI42
aI96
aI56
aI209
asS'SeekBehavior'
p12
(lp13
I15
aI30
aI67
aI38
aI38
aI26
aI9
aI40
aI49
aI38
aI4
assI2
(dp14
S'FleeBehavior'
p15
(lp16
I12
aI27
aI28
aI56
aI12
aI52
aI0
aI27
aI60
aI8
aI138
asS'PursueBehavior'
p17
(lp18
I17
aI19
aI72
aI34
aI46
aI19
aI33
aI28
aI67
aI61
aI0
asS'SeekBehavior'
p19
(lp20
I9
aI25
aI81
aI53
aI34
aI65
aI15
aI32
aI90
aI26
aI81
assI3
(dp21
S'FleeBehavior'
p22
(lp23
I24
aI28
aI51
aI32
aI51
aI82
aI15
aI38
aI70
aI46
aI61
asS'PursueBehavior'
p24
(lp25
I14
aI35
aI53
aI11
aI14
aI44
aI32
aI26
aI83
aI32
aI158
asS'SeekBehavior'
p26
(lp27
I0
aI7
aI77
aI100
aI27
aI10
aI0
aI23
aI63
aI16
aI0
asss.