(dp0
S'learn_scores'
p1
(lp2
F-161.0
aF-181.0
aF-312.0
aF-221.0
aF-138.0
aF-214.0
aF-245.0
aF-170.0
aF-296.0
aF-166.0
asS'test_scores'
p3
(lp4
F0.0
asS'behavior_count'
p5
(dp6
I1
(dp7
S'FleeBehavior'
p8
(lp9
I26
aI32
aI27
aI12
aI2
aI3
aI1
aI0
aI0
aI2
aI0
asS'PursueBehavior'
p10
(lp11
I25
aI13
aI30
aI105
aI4
aI63
aI0
aI1
aI1
aI1
aI0
asS'SeekBehavior'
p12
(lp13
I61
aI7
aI206
aI15
aI43
aI59
aI34
aI39
aI25
aI84
aI81
assI2
(dp14
S'FleeBehavior'
p15
(lp16
I23
aI9
aI98
aI23
aI2
aI4
aI0
aI4
aI3
aI2
aI0
asS'PursueBehavior'
p17
(lp18
I67
aI12
aI74
aI39
aI9
aI61
aI1
aI0
aI1
aI24
aI0
asS'SeekBehavior'
p19
(lp20
I21
aI30
aI90
aI70
aI38
aI60
aI34
aI36
aI22
aI60
aI81
assI3
(dp21
S'FleeBehavior'
p22
(lp23
I77
aI34
aI168
aI55
aI47
aI82
aI32
aI38
aI25
aI82
aI80
asS'PursueBehavior'
p24
(lp25
I20
aI6
aI31
aI33
aI1
aI15
aI0
aI2
aI0
aI3
aI0
asS'SeekBehavior'
p26
(lp27
I14
aI11
aI63
aI43
aI1
aI28
aI3
aI0
aI1
aI1
aI0
asss.