(dp0
S'learn_scores'
p1
(lp2
F-156.0
aF-235.0
aF-215.0
aF-88.0
aF-258.0
aF-450.0
aF-44.0
aF-253.0
aF-278.0
aF-127.0
asS'test_scores'
p3
(lp4
F131.0
asS'behavior_count'
p5
(dp6
I1
(dp7
S'FleeBehavior'
p8
(lp9
I37
aI30
aI67
aI44
aI3
aI138
aI18
aI26
aI0
aI6
aI0
asS'PursueBehavior'
p10
(lp11
I31
aI10
aI12
aI44
aI3
aI107
aI26
aI7
aI28
aI29
aI103
asS'SeekBehavior'
p12
(lp13
I9
aI16
aI47
aI71
aI22
aI126
aI71
aI31
aI1
aI13
aI67
assI2
(dp14
S'FleeBehavior'
p15
(lp16
I10
aI25
aI16
aI45
aI9
aI109
aI18
aI17
aI6
aI18
aI53
asS'PursueBehavior'
p17
(lp18
I51
aI15
aI83
aI49
aI12
aI129
aI18
aI39
aI9
aI11
aI3
asS'SeekBehavior'
p19
(lp20
I16
aI16
aI26
aI64
aI7
aI132
aI79
aI7
aI14
aI19
aI114
assI3
(dp21
S'FleeBehavior'
p22
(lp23
I35
aI20
aI67
aI45
aI19
aI135
aI19
aI19
aI14
aI3
aI32
asS'PursueBehavior'
p24
(lp25
I11
aI26
aI22
aI58
aI8
aI150
aI57
aI43
aI10
aI41
aI138
asS'SeekBehavior'
p26
(lp27
I30
aI10
aI36
aI55
aI1
aI85
aI38
aI1
aI5
aI4
aI0
asss.