(dp0
S'learn_scores'
p1
(lp2
F2833.0
aF1068.0
aF2429.0
aF-223.0
aF2811.0
aF-222.0
aF2836.0
aF2658.0
aF1013.0
aF2412.0
asS'test_scores'
p3
(lp4
F2633.0
asS'behavior_count'
p5
(dp6
I1
(dp7
S'FleeBehavior'
p8
(lp9
I90
aI62
aI150
aI6
aI113
aI6
aI49
aI70
aI46
aI89
aI86
asS'PursueBehavior'
p10
(lp11
I194
aI92
aI161
aI38
aI219
aI36
aI248
aI212
aI136
aI209
aI271
asS'SeekBehavior'
p12
(lp13
I73
aI48
aI50
aI0
aI47
aI1
aI57
aI50
aI36
aI80
aI0
assI2
(dp14
S'FleeBehavior'
p15
(lp16
I73
aI26
aI64
aI12
aI110
aI21
aI66
aI123
aI71
aI109
aI191
asS'PursueBehavior'
p17
(lp18
I154
aI116
aI234
aI32
aI212
aI22
aI226
aI152
aI106
aI200
aI166
asS'SeekBehavior'
p19
(lp20
I130
aI60
aI63
aI0
aI57
aI0
aI62
aI57
aI40
aI69
aI0
assI3
(dp21
S'FleeBehavior'
p22
(lp23
I107
aI86
aI78
aI10
aI78
aI1
aI122
aI104
aI57
aI39
aI0
asS'PursueBehavior'
p24
(lp25
I81
aI47
aI86
aI1
aI60
aI4
aI32
aI24
aI10
aI33
aI0
asS'SeekBehavior'
p26
(lp27
I169
aI69
aI197
aI32
aI241
aI38
aI200
aI204
aI150
aI306
aI357
asss.