(dp0
S'learn_scores'
p1
(lp2
F-55.0
aF-140.0
aF-514.0
aF-315.0
aF0.0
aF-192.0
aF-489.0
aF-205.0
aF-293.0
aF-128.0
asS'test_scores'
p3
(lp4
F-218.0
asS'behavior_count'
p5
(dp6
I1
(dp7
S'FleeBehavior'
p8
(lp9
I32
aI11
aI134
aI10
aI31
aI7
aI126
aI54
aI22
aI0
aI0
asS'PursueBehavior'
p10
(lp11
I18
aI20
aI23
aI22
aI13
aI43
aI105
aI12
aI61
aI19
aI0
asS'SeekBehavior'
p12
(lp13
I36
aI20
aI308
aI204
aI37
aI53
aI139
aI50
aI121
aI60
aI129
assI2
(dp14
S'FleeBehavior'
p15
(lp16
I25
aI29
aI44
aI53
aI44
aI51
aI245
aI99
aI178
aI62
aI125
asS'PursueBehavior'
p17
(lp18
I32
aI9
aI41
aI31
aI14
aI26
aI30
aI13
aI13
aI15
aI4
asS'SeekBehavior'
p19
(lp20
I29
aI13
aI379
aI152
aI22
aI26
aI95
aI3
aI12
aI2
aI0
asss.