(dp0
S'learn_scores'
p1
(lp2
F-269.0
aF-340.0
aF-155.0
aF-314.0
aF35.0
aF-42.0
aF-429.0
aF-234.0
aF-192.0
aF-192.0
asS'test_scores'
p3
(lp4
F-314.0
asS'behavior_count'
p5
(dp6
I1
(dp7
S'FleeBehavior'
p8
(lp9
I5
aI71
aI19
aI131
aI23
aI13
aI21
aI66
aI13
aI23
aI0
asS'PursueBehavior'
p10
(lp11
I15
aI87
aI27
aI41
aI73
aI24
aI192
aI12
aI50
aI51
aI0
asS'SeekBehavior'
p12
(lp13
I10
aI93
aI20
aI63
aI170
aI76
aI87
aI37
aI50
aI29
aI25
assI2
(dp14
S'FleeBehavior'
p15
(lp16
I10
aI97
aI44
aI75
aI36
aI41
aI56
aI91
aI28
aI34
aI25
asS'PursueBehavior'
p17
(lp18
I7
aI47
aI12
aI104
aI182
aI61
aI192
aI19
aI15
aI1
aI0
asS'SeekBehavior'
p19
(lp20
I13
aI107
aI9
aI55
aI48
aI10
aI51
aI4
aI69
aI68
aI0
asss.