(dp0
S'learn_scores'
p1
(lp2
F671.0
aF2618.0
aF2587.0
aF-170.0
aF211.0
aF2810.0
aF3207.0
aF-322.0
aF2644.0
aF2824.0
asS'test_scores'
p3
(lp4
F2824.0
asS'behavior_count'
p5
(dp6
I1
(dp7
S'FleeBehavior'
p8
(lp9
I82
aI134
aI210
aI32
aI28
aI204
aI261
aI10
aI216
aI222
aI173
asS'PursueBehavior'
p10
(lp11
I49
aI170
aI107
aI8
aI30
aI136
aI82
aI21
aI78
aI80
aI170
asS'SeekBehavior'
p12
(lp13
I38
aI68
aI86
aI1
aI2
aI40
aI40
aI2
aI52
aI64
aI23
assI2
(dp14
S'FleeBehavior'
p15
(lp16
I11
aI57
aI59
aI1
aI6
aI46
aI74
aI1
aI37
aI36
aI9
asS'PursueBehavior'
p17
(lp18
I66
aI112
aI174
aI5
aI27
aI124
aI112
aI1
aI111
aI125
aI84
asS'SeekBehavior'
p19
(lp20
I92
aI203
aI170
aI34
aI27
aI210
aI197
aI30
aI198
aI205
aI273
assI3
(dp21
S'FleeBehavior'
p22
(lp23
I66
aI144
aI141
aI11
aI24
aI134
aI157
aI10
aI164
aI197
aI143
asS'PursueBehavior'
p24
(lp25
I70
aI165
aI172
aI28
aI17
aI188
aI150
aI22
aI94
aI132
aI100
asS'SeekBehavior'
p26
(lp27
I33
aI63
aI90
aI1
aI18
aI58
aI76
aI0
aI88
aI37
aI123
assI4
(dp28
S'FleeBehavior'
p29
(lp30
I39
aI79
aI128
aI8
aI3
aI65
aI47
aI2
aI66
aI123
aI13
asS'PursueBehavior'
p31
(lp32
I13
aI30
aI63
aI4
aI15
aI47
aI79
aI1
aI56
aI35
aI22
asS'SeekBehavior'
p33
(lp34
I117
aI263
aI212
aI28
aI41
aI268
aI257
aI29
aI224
aI208
aI331
asss.