(dp0
S'learn_scores'
p1
(lp2
F-175.0
aF-260.0
aF-498.0
aF-193.0
aF-167.0
aF2.0
aF-148.0
aF-246.0
aF-242.0
aF-599.0
asS'test_scores'
p3
(lp4
F143.0
asS'behavior_count'
p5
(dp6
I1
(dp7
S'FleeBehavior'
p8
(lp9
I24
aI173
aI16
aI22
aI33
aI103
aI38
aI37
aI61
aI100
aI128
asS'PursueBehavior'
p10
(lp11
I60
aI18
aI376
aI59
aI22
aI59
aI18
aI10
aI1
aI119
aI0
asS'SeekBehavior'
p12
(lp13
I12
aI20
aI27
aI23
aI33
aI197
aI13
aI20
aI1
aI191
aI0
assI2
(dp14
S'FleeBehavior'
p15
(lp16
I23
aI168
aI78
aI35
aI32
aI110
aI42
aI38
aI56
aI76
aI128
asS'PursueBehavior'
p17
(lp18
I10
aI22
aI326
aI49
aI16
aI49
aI18
aI9
aI4
aI270
aI0
asS'SeekBehavior'
p19
(lp20
I63
aI20
aI14
aI19
aI40
aI199
aI8
aI19
aI2
aI63
aI0
asss.