(dp0
S'learn_scores'
p1
(lp2
F-233.0
aF-226.0
aF-215.0
aF-269.0
aF-233.0
aF-179.0
aF-309.0
aF73.0
aF-191.0
aF-187.0
asS'test_scores'
p3
(lp4
F-139.0
asS'behavior_count'
p5
(dp6
I1
(dp7
S'FleeBehavior'
p8
(lp9
I6
aI14
aI12
aI2
aI7
aI20
aI83
aI6
aI28
aI16
aI0
asS'PursueBehavior'
p10
(lp11
I15
aI23
aI34
aI27
aI20
aI58
aI128
aI69
aI66
aI39
aI50
asS'SeekBehavior'
p12
(lp13
I12
aI10
aI50
aI1
aI6
aI22
aI19
aI13
aI8
aI13
aI0
assI2
(dp14
S'FleeBehavior'
p15
(lp16
I7
aI20
aI69
aI26
aI9
aI40
aI84
aI55
aI38
aI52
aI49
asS'PursueBehavior'
p17
(lp18
I14
aI12
aI11
aI2
aI16
aI12
aI85
aI16
aI43
aI3
aI0
asS'SeekBehavior'
p19
(lp20
I12
aI15
aI16
aI2
aI8
aI48
aI61
aI17
aI20
aI13
aI0
assI3
(dp21
S'FleeBehavior'
p22
(lp23
I10
aI13
aI21
aI5
aI2
aI9
aI96
aI12
aI26
aI0
aI0
asS'PursueBehavior'
p24
(lp25
I6
aI8
aI15
aI0
aI0
aI3
aI23
aI2
aI1
aI3
aI0
asS'SeekBehavior'
p26
(lp27
I17
aI25
aI60
aI25
aI31
aI88
aI111
aI74
aI74
aI65
aI49
asss.