(dp0
S'learn_scores'
p1
(lp2
F-143.0
aF-160.0
aF-170.0
aF-234.0
aF-10.0
aF-219.0
aF-269.0
aF124.0
aF-157.0
aF-58.0
asS'test_scores'
p3
(lp4
F-150.0
asS'behavior_count'
p5
(dp6
I1
(dp7
S'FleeBehavior'
p8
(lp9
I10
aI70
aI17
aI15
aI43
aI34
aI1
aI51
aI18
aI33
aI0
asS'PursueBehavior'
p10
(lp11
I34
aI11
aI6
aI8
aI53
aI77
aI28
aI84
aI51
aI76
aI71
asS'SeekBehavior'
p12
(lp13
I10
aI30
aI17
aI12
aI15
aI19
aI1
aI52
aI9
aI50
aI0
assI2
(dp14
S'FleeBehavior'
p15
(lp16
I12
aI30
aI7
aI20
aI32
aI35
aI15
aI68
aI18
aI80
aI0
asS'PursueBehavior'
p17
(lp18
I11
aI72
aI3
aI11
aI13
aI34
aI0
aI43
aI6
aI20
aI0
asS'SeekBehavior'
p19
(lp20
I31
aI9
aI30
aI4
aI66
aI60
aI15
aI75
aI54
aI58
aI70
assI3
(dp21
S'FleeBehavior'
p22
(lp23
I33
aI22
aI5
aI21
aI66
aI50
aI22
aI116
aI72
aI53
aI70
asS'PursueBehavior'
p24
(lp25
I14
aI30
aI20
aI8
aI29
aI44
aI5
aI49
aI3
aI40
aI0
asS'SeekBehavior'
p26
(lp27
I6
aI59
aI15
aI5
aI16
aI35
aI3
aI21
aI3
aI65
aI0
asss.