(dp0
S'learn_scores'
p1
(lp2
F-215.0
aF-236.0
aF-278.0
aF211.0
aF-51.0
aF-92.0
aF-285.0
aF-182.0
aF-329.0
aF-229.0
asS'test_scores'
p3
(lp4
F-154.0
asS'behavior_count'
p5
(dp6
I1
(dp7
S'FleeBehavior'
p8
(lp9
I21
aI122
aI14
aI21
aI184
aI36
aI72
aI20
aI33
aI49
aI0
asS'PursueBehavior'
p10
(lp11
I38
aI13
aI6
aI26
aI62
aI34
aI50
aI61
aI142
aI106
aI255
asS'SeekBehavior'
p12
(lp13
I107
aI22
aI9
aI43
aI96
aI93
aI44
aI22
aI25
aI25
aI0
assI2
(dp14
S'FleeBehavior'
p15
(lp16
I23
aI25
aI15
aI47
aI181
aI53
aI21
aI41
aI85
aI43
aI0
asS'PursueBehavior'
p17
(lp18
I105
aI122
aI10
aI23
aI107
aI63
aI107
aI9
aI62
aI34
aI0
asS'SeekBehavior'
p19
(lp20
I37
aI10
aI4
aI20
aI53
aI47
aI38
aI53
aI52
aI103
aI254
assI3
(dp21
S'FleeBehavior'
p22
(lp23
I41
aI17
aI17
aI27
aI47
aI56
aI80
aI53
aI109
aI139
aI254
asS'PursueBehavior'
p24
(lp25
I102
aI115
aI6
aI38
aI133
aI55
aI65
aI22
aI53
aI19
aI0
asS'SeekBehavior'
p26
(lp27
I22
aI24
aI6
aI25
aI161
aI51
aI21
aI27
aI37
aI22
aI0
asss.