(dp0
S'learn_scores'
p1
(lp2
F1737.0
aF2657.0
aF850.0
aF3257.0
aF-159.0
aF324.0
aF475.0
aF1479.0
aF1431.0
aF2645.0
asS'test_scores'
p3
(lp4
F3071.0
asS'behavior_count'
p5
(dp6
I1
(dp7
S'FleeBehavior'
p8
(lp9
I49
aI63
aI31
aI46
aI2
aI3
aI40
aI7
aI14
aI49
aI27
asS'PursueBehavior'
p10
(lp11
I63
aI106
aI89
aI96
aI32
aI59
aI101
aI108
aI110
aI68
aI274
asS'SeekBehavior'
p12
(lp13
I232
aI164
aI61
aI191
aI25
aI45
aI14
aI187
aI156
aI228
aI18
assI2
(dp14
S'FleeBehavior'
p15
(lp16
I93
aI159
aI73
aI150
aI27
aI102
aI26
aI100
aI181
aI199
aI256
asS'PursueBehavior'
p17
(lp18
I99
aI66
aI34
aI100
aI1
aI2
aI27
aI14
aI62
aI76
aI37
asS'SeekBehavior'
p19
(lp20
I152
aI108
aI74
aI83
aI31
aI2
aI102
aI188
aI36
aI70
aI26
assI3
(dp21
S'FleeBehavior'
p22
(lp23
I39
aI45
aI15
aI80
aI2
aI3
aI49
aI32
aI22
aI43
aI8
asS'PursueBehavior'
p24
(lp25
I204
aI241
aI141
aI224
aI57
aI98
aI104
aI227
aI241
aI252
aI309
asS'SeekBehavior'
p26
(lp27
I101
aI47
aI25
aI29
aI0
aI5
aI2
aI43
aI16
aI50
aI2
assI4
(dp28
S'FleeBehavior'
p29
(lp30
I214
aI216
aI114
aI195
aI53
aI101
aI35
aI62
aI225
aI184
aI272
asS'PursueBehavior'
p31
(lp32
I44
aI71
aI39
aI75
aI2
aI2
aI21
aI132
aI42
aI103
aI45
asS'SeekBehavior'
p33
(lp34
I86
aI46
aI27
aI63
aI4
aI3
aI99
aI107
aI12
aI58
aI2
asss.