(dp0
S'learn_scores'
p1
(lp2
F2478.0
aF3038.0
aF2876.0
aF2642.0
aF2584.0
aF3015.0
aF2675.0
aF2459.0
aF3016.0
aF3133.0
aF2837.0
aF3045.0
aF3060.0
aF2642.0
aF2445.0
aF2642.0
aF2446.0
aF2791.0
aF2667.0
aF-85.0
aF2644.0
aF2420.0
aF1350.0
aF3022.0
aF2622.0
aF-279.0
aF2850.0
aF2818.0
aF2631.0
aF2426.0
aF645.0
aF3260.0
aF634.0
aF2842.0
aF2630.0
aF2651.0
aF3061.0
aF2861.0
aF2782.0
aF2663.0
aF2870.0
aF2827.0
aF2836.0
aF2845.0
aF2823.0
aF2636.0
aF1040.0
aF2589.0
aF2858.0
aF2834.0
aF2465.0
aF-99.0
aF405.0
aF-64.0
aF2650.0
aF2668.0
aF3248.0
aF2452.0
aF993.0
aF812.0
aF2643.0
aF2633.0
aF2437.0
aF3005.0
aF734.0
aF2637.0
aF-2.0
aF2612.0
aF2668.0
aF1562.0
aF2834.0
aF2430.0
aF2617.0
aF2850.0
aF2659.0
aF2479.0
aF2860.0
aF-331.0
aF2860.0
aF2649.0
aF2453.0
aF2676.0
aF1000.0
aF2467.0
aF2610.0
aF699.0
aF2645.0
aF2622.0
aF2828.0
aF886.0
aF1554.0
aF2646.0
aF2642.0
aF3042.0
aF723.0
aF-211.0
aF2813.0
aF2633.0
aF2674.0
aF2845.0
asS'test_scores'
p3
(lp4
F1349.0
asS'behavior_count'
p5
(dp6
I1
(dp7
S'FleeBehavior'
p8
(lp9
I58
aI86
aI77
aI48
aI185
aI195
aI116
aI58
aI76
aI373
aI225
aI68
aI141
aI45
aI206
aI64
aI15
aI270
aI225
aI53
aI323
aI191
aI284
aI233
aI190
aI17
aI155
aI140
aI122
aI51
aI39
aI49
aI81
aI120
aI39
aI209
aI63
aI53
aI125
aI259
aI76
aI92
aI17
aI39
aI238
aI316
aI181
aI177
aI134
aI103
aI111
aI30
aI78
aI55
aI216
aI162
aI146
aI41
aI32
aI20
aI178
aI119
aI232
aI264
aI44
aI223
aI70
aI329
aI269
aI281
aI213
aI152
aI160
aI204
aI100
aI99
aI152
aI19
aI145
aI175
aI236
aI285
aI112
aI232
aI148
aI46
aI151
aI269
aI128
aI29
aI275
aI185
aI130
aI163
aI38
aI3
aI50
aI36
aI117
aI114
aI81
asS'PursueBehavior'
p10
(lp11
I158
aI135
aI193
aI30
aI69
aI106
aI101
aI11
aI222
aI47
aI59
aI148
aI48
aI294
aI126
aI183
aI288
aI77
aI87
aI1
aI12
aI11
aI11
aI47
aI11
aI0
aI8
aI84
aI227
aI302
aI81
aI242
aI53
aI222
aI104
aI32
aI137
aI64
aI130
aI24
aI183
aI22
aI104
aI194
aI87
aI27
aI14
aI41
aI181
aI216
aI199
aI2
aI6
aI0
aI9
aI14
aI100
aI12
aI38
aI5
aI11
aI35
aI11
aI17
aI26
aI34
aI2
aI32
aI9
aI33
aI40
aI60
aI150
aI42
aI182
aI186
aI42
aI1
aI142
aI22
aI92
aI9
aI4
aI15
aI50
aI19
aI99
aI85
aI142
aI126
aI56
aI143
aI209
aI37
aI6
aI2
aI43
aI31
aI86
aI130
aI231
asS'SeekBehavior'
p12
(lp13
I96
aI131
aI44
aI270
aI152
aI74
aI98
aI262
aI76
aI37
aI69
aI129
aI141
aI9
aI13
aI101
aI41
aI52
aI11
aI2
aI11
aI168
aI6
aI88
aI167
aI13
aI177
aI148
aI10
aI11
aI16
aI39
aI3
aI6
aI217
aI98
aI129
aI212
aI153
aI44
aI61
aI249
aI233
aI112
aI42
aI11
aI26
aI183
aI17
aI37
aI15
aI18
aI32
aI0
aI115
aI146
aI96
aI285
aI98
aI174
aI158
aI203
aI110
aI104
aI87
aI96
aI1
aI17
aI44
aI45
aI103
aI148
aI63
aI94
aI49
aI26
aI136
aI2
aI43
aI144
aI9
aI20
aI64
aI76
aI182
aI76
aI95
aI14
aI92
aI9
aI16
aI16
aI9
aI148
aI114
aI37
aI284
aI290
aI113
aI101
aI0
assI2
(dp14
S'FleeBehavior'
p15
(lp16
I73
aI89
aI61
aI146
aI152
aI87
aI153
aI95
aI85
aI201
aI82
aI77
aI74
aI130
aI113
aI80
aI136
aI118
aI41
aI13
aI189
aI103
aI146
aI33
aI128
aI1
aI28
aI36
aI53
aI74
aI63
aI159
aI103
aI171
aI6
aI60
aI51
aI15
aI87
aI191
aI50
aI202
aI164
aI110
aI155
aI153
aI5
aI11
aI131
aI76
aI14
aI2
aI34
aI5
aI164
aI122
aI75
aI222
aI69
aI114
aI108
aI17
aI13
aI126
aI8
aI52
aI6
aI217
aI109
aI179
aI214
aI81
aI134
aI113
aI70
aI24
aI170
aI1
aI12
aI12
aI170
aI59
aI60
aI7
aI224
aI108
aI172
aI140
aI101
aI23
aI88
aI157
aI179
aI82
aI109
aI1
aI173
aI70
aI72
aI112
aI115
asS'PursueBehavior'
p17
(lp18
I83
aI157
aI163
aI130
aI147
aI127
aI49
aI112
aI192
aI186
aI121
aI208
aI78
aI151
aI164
aI180
aI84
aI206
aI107
aI41
aI122
aI81
aI146
aI231
aI125
aI2
aI91
aI105
aI103
aI258
aI34
aI155
aI7
aI129
aI156
aI150
aI238
aI59
aI147
aI128
aI162
aI105
aI109
aI93
aI79
aI82
aI79
aI158
aI98
aI109
aI226
aI14
aI77
aI45
aI88
aI103
aI158
aI106
aI91
aI77
aI217
aI145
aI288
aI202
aI116
aI248
aI66
aI129
aI100
aI142
aI113
aI143
aI186
aI106
aI122
aI71
aI123
aI15
aI106
aI41
aI104
aI20
aI22
aI17
aI143
aI20
aI150
aI117
aI173
aI134
aI218
aI159
aI151
aI121
aI39
aI40
aI178
aI149
aI218
aI183
aI76
asS'SeekBehavior'
p19
(lp20
I156
aI106
aI90
aI72
aI107
aI161
aI113
aI124
aI97
aI70
aI150
aI60
aI178
aI67
aI68
aI88
aI124
aI75
aI175
aI1
aI35
aI186
aI9
aI104
aI115
aI26
aI221
aI231
aI203
aI32
aI39
aI16
aI27
aI48
aI198
aI129
aI40
aI255
aI174
aI8
aI108
aI56
aI81
aI142
aI133
aI119
aI136
aI232
aI103
aI171
aI85
aI33
aI5
aI5
aI88
aI97
aI109
aI10
aI8
aI7
aI22
aI195
aI52
aI57
aI33
aI53
aI0
aI32
aI113
aI38
aI29
aI136
aI53
aI121
aI139
aI216
aI37
aI6
aI212
aI288
aI63
aI235
aI98
aI299
aI13
aI13
aI23
aI111
aI88
aI7
aI40
aI28
aI18
aI145
aI10
aI1
aI26
aI138
aI26
aI50
aI120
assI3
(dp21
S'FleeBehavior'
p22
(lp23
I101
aI124
aI145
aI121
aI279
aI117
aI98
aI128
aI96
aI196
aI147
aI144
aI107
aI75
aI70
aI39
aI142
aI38
aI101
aI18
aI156
aI179
aI94
aI108
aI54
aI4
aI158
aI194
aI112
aI232
aI85
aI54
aI40
aI20
aI124
aI48
aI179
aI213
aI6
aI87
aI180
aI263
aI119
aI120
aI96
aI228
aI35
aI148
aI159
aI179
aI230
aI3
aI1
aI3
aI81
aI84
aI69
aI11
aI45
aI113
aI294
aI166
aI109
aI78
aI58
aI84
aI21
aI18
aI55
aI221
aI188
aI11
aI36
aI148
aI24
aI46
aI175
aI12
aI191
aI203
aI90
aI91
aI134
aI59
aI217
aI108
aI35
aI273
aI150
aI5
aI16
aI93
aI16
aI264
aI5
aI0
aI57
aI11
aI9
aI56
aI0
asS'PursueBehavior'
p24
(lp25
I141
aI96
aI65
aI93
aI54
aI140
aI99
aI37
aI159
aI149
aI127
aI68
aI87
aI219
aI134
aI183
aI51
aI97
aI71
aI2
aI21
aI101
aI137
aI144
aI232
aI24
aI119
aI101
aI113
aI53
aI17
aI179
aI38
aI263
aI93
aI118
aI112
aI51
aI219
aI183
aI72
aI43
aI87
aI79
aI110
aI66
aI137
aI226
aI147
aI100
aI32
aI32
aI92
aI50
aI150
aI42
aI85
aI241
aI17
aI7
aI12
aI44
aI177
aI97
aI31
aI87
aI47
aI319
aI229
aI30
aI45
aI15
aI30
aI93
aI251
aI140
aI10
aI2
aI98
aI10
aI19
aI212
aI33
aI214
aI17
aI26
aI269
aI71
aI121
aI154
aI293
aI227
aI284
aI60
aI114
aI0
aI30
aI28
aI11
aI58
aI4
asS'SeekBehavior'
p26
(lp27
I70
aI132
aI104
aI134
aI73
aI118
aI118
aI166
aI119
aI112
aI79
aI133
aI136
aI54
aI141
aI126
aI151
aI264
aI151
aI35
aI169
aI90
aI69
aI116
aI82
aI1
aI63
aI77
aI134
aI79
aI34
aI97
aI58
aI65
aI143
aI173
aI38
aI65
aI183
aI57
aI68
aI57
aI148
aI146
aI161
aI60
aI48
aI27
aI26
aI77
aI63
aI14
aI22
aI1
aI109
aI196
aI188
aI86
aI105
aI78
aI41
aI147
aI67
aI210
aI68
aI182
aI4
aI41
aI38
aI108
aI123
aI334
aI307
aI99
aI56
aI125
aI145
aI7
aI41
aI128
aI228
aI11
aI13
aI50
aI146
aI7
aI41
aI24
aI91
aI5
aI37
aI24
aI48
aI24
aI38
aI41
aI290
aI318
aI296
aI231
aI307
asss.