(dp0
S'learn_scores'
p1
(lp2
F2636.0
aF-206.0
aF3051.0
aF2850.0
aF1312.0
aF2665.0
aF3026.0
aF3036.0
aF2432.0
aF1344.0
asS'test_scores'
p3
(lp4
F2860.0
asS'behavior_count'
p5
(dp6
I1
(dp7
S'FleeBehavior'
p8
(lp9
I138
aI24
aI100
aI91
aI116
aI132
aI104
aI82
aI136
aI59
aI0
asS'PursueBehavior'
p10
(lp11
I107
aI12
aI148
aI138
aI103
aI109
aI135
aI105
aI160
aI75
aI0
asS'SeekBehavior'
p12
(lp13
I109
aI11
aI91
aI111
aI80
aI84
aI125
aI167
aI62
aI102
aI330
assI2
(dp14
S'FleeBehavior'
p15
(lp16
I103
aI22
aI145
aI114
aI121
aI100
aI81
aI113
aI76
aI38
aI34
asS'PursueBehavior'
p17
(lp18
I147
aI1
aI113
aI172
aI89
aI128
aI136
aI145
aI164
aI107
aI295
asS'SeekBehavior'
p19
(lp20
I104
aI24
aI81
aI54
aI89
aI97
aI147
aI96
aI118
aI91
aI1
assI3
(dp21
S'FleeBehavior'
p22
(lp23
I143
aI10
aI117
aI96
aI82
aI86
aI81
aI176
aI121
aI122
aI328
asS'PursueBehavior'
p24
(lp25
I100
aI16
aI94
aI113
aI132
aI99
aI66
aI115
aI80
aI48
aI2
asS'SeekBehavior'
p26
(lp27
I111
aI20
aI128
aI131
aI84
aI140
aI217
aI63
aI157
aI66
aI0
assI4
(dp28
S'FleeBehavior'
p29
(lp30
I138
aI24
aI90
aI60
aI47
aI126
aI89
aI126
aI56
aI36
aI4
asS'PursueBehavior'
p31
(lp32
I118
aI9
aI136
aI167
aI165
aI126
aI193
aI94
aI144
aI105
aI292
asS'SeekBehavior'
p33
(lp34
I98
aI13
aI113
aI113
aI86
aI73
aI82
aI134
aI158
aI95
aI34
asss.