(dp0
S'learn_scores'
p1
(lp2
F-467.0
aF-235.0
aF-242.0
aF-152.0
aF-229.0
aF-153.0
aF-369.0
aF-242.0
aF159.0
aF-333.0
asS'test_scores'
p3
(lp4
F-143.0
asS'behavior_count'
p5
(dp6
I1
(dp7
S'FleeBehavior'
p8
(lp9
I113
aI7
aI15
aI11
aI8
aI4
aI4
aI11
aI19
aI94
aI0
asS'PursueBehavior'
p10
(lp11
I110
aI31
aI9
aI18
aI28
aI59
aI16
aI16
aI59
aI288
aI43
asS'SeekBehavior'
p12
(lp13
I195
aI8
aI9
aI34
aI3
aI41
aI0
aI5
aI54
aI52
aI0
assI2
(dp14
S'FleeBehavior'
p15
(lp16
I295
aI20
aI14
aI16
aI19
aI34
aI13
aI19
aI41
aI150
aI40
asS'PursueBehavior'
p17
(lp18
I81
aI9
aI12
aI14
aI10
aI22
aI4
aI7
aI62
aI254
aI3
asS'SeekBehavior'
p19
(lp20
I42
aI16
aI7
aI33
aI10
aI48
aI3
aI6
aI29
aI30
aI0
assI3
(dp21
S'FleeBehavior'
p22
(lp23
I195
aI18
aI2
aI17
aI9
aI62
aI1
aI1
aI29
aI181
aI0
asS'PursueBehavior'
p24
(lp25
I128
aI3
aI0
aI5
aI0
aI9
aI0
aI3
aI6
aI17
aI0
asS'SeekBehavior'
p26
(lp27
I94
aI24
aI31
aI41
aI30
aI32
aI18
aI28
aI96
aI236
aI43
asss.