(dp0
S'learn_scores'
p1
(lp2
F141.0
aF435.0
aF-248.0
aF-150.0
aF-232.0
aF-260.0
aF-147.0
aF70.0
aF-207.0
aF-245.0
asS'test_scores'
p3
(lp4
F-311.0
asS'behavior_count'
p5
(dp6
I1
(dp7
S'FleeBehavior'
p8
(lp9
I141
aI114
aI28
aI5
aI10
aI5
aI5
aI12
aI2
aI23
aI0
asS'PursueBehavior'
p10
(lp11
I47
aI57
aI2
aI12
aI59
aI11
aI16
aI135
aI4
aI212
aI0
asS'SeekBehavior'
p12
(lp13
I52
aI25
aI39
aI33
aI84
aI14
aI47
aI164
aI72
aI111
aI222
assI2
(dp14
S'FleeBehavior'
p15
(lp16
I53
aI31
aI6
aI17
aI49
aI1
aI13
aI127
aI1
aI28
aI0
asS'PursueBehavior'
p17
(lp18
I50
aI98
aI10
aI16
aI25
aI1
aI16
aI104
aI9
aI60
aI0
asS'SeekBehavior'
p19
(lp20
I136
aI66
aI53
aI17
aI78
aI28
aI39
aI80
aI67
aI257
aI221
assI3
(dp21
S'FleeBehavior'
p22
(lp23
I44
aI73
aI27
aI45
aI72
aI30
aI66
aI80
aI70
aI270
aI221
asS'PursueBehavior'
p24
(lp25
I154
aI59
aI15
aI1
aI44
aI0
aI2
aI125
aI5
aI23
aI0
asS'SeekBehavior'
p26
(lp27
I41
aI63
aI26
aI4
aI36
aI0
aI0
aI105
aI2
aI52
aI0
asss.