(dp0
S'learn_scores'
p1
(lp2
F-257.0
aF-158.0
aF-53.0
aF-245.0
aF-140.0
aF96.0
aF35.0
aF-162.0
aF-855.0
aF64.0
asS'test_scores'
p3
(lp4
F-348.0
asS'behavior_count'
p5
(dp6
I1
(dp7
S'FleeBehavior'
p8
(lp9
I14
aI1
aI95
aI2
aI27
aI15
aI17
aI37
aI166
aI30
aI2
asS'PursueBehavior'
p10
(lp11
I41
aI43
aI48
aI6
aI11
aI22
aI183
aI0
aI309
aI61
aI0
asS'SeekBehavior'
p12
(lp13
I13
aI25
aI221
aI27
aI23
aI38
aI46
aI46
aI331
aI136
aI297
assI2
(dp14
S'FleeBehavior'
p15
(lp16
I50
aI34
aI279
aI25
aI52
aI39
aI192
aI74
aI414
aI192
aI293
asS'PursueBehavior'
p17
(lp18
I9
aI25
aI14
aI9
aI1
aI23
aI29
aI6
aI143
aI20
aI6
asS'SeekBehavior'
p19
(lp20
I8
aI10
aI70
aI1
aI7
aI12
aI25
aI2
aI248
aI14
aI0
asss.