(dp0
S'learn_scores'
p1
(lp2
F-201.0
aF-170.0
aF-190.0
aF-481.0
aF-229.0
aF-272.0
aF-264.0
aF196.0
aF-195.0
aF-333.0
asS'test_scores'
p3
(lp4
F-216.0
asS'behavior_count'
p5
(dp6
I1
(dp7
S'FleeBehavior'
p8
(lp9
I16
aI22
aI2
aI53
aI17
aI16
aI1
aI18
aI31
aI30
aI0
asS'PursueBehavior'
p10
(lp11
I84
aI9
aI35
aI149
aI3
aI25
aI1
aI17
aI24
aI99
aI0
asS'SeekBehavior'
p12
(lp13
I22
aI20
aI24
aI190
aI20
aI52
aI33
aI40
aI51
aI155
aI36
assI2
(dp14
S'FleeBehavior'
p15
(lp16
I19
aI30
aI31
aI45
aI34
aI63
aI22
aI61
aI97
aI201
aI33
asS'PursueBehavior'
p17
(lp18
I87
aI2
aI22
aI24
aI5
aI14
aI12
aI2
aI2
aI52
aI3
asS'SeekBehavior'
p19
(lp20
I16
aI18
aI8
aI322
aI0
aI15
aI1
aI11
aI6
aI31
aI0
asss.