(dp0
S'learn_scores'
p1
(lp2
F-254.0
aF-197.0
aF-196.0
aF-482.0
aF-141.0
aF-781.0
aF-207.0
aF-333.0
aF-438.0
aF-301.0
asS'test_scores'
p3
(lp4
F-548.0
asS'behavior_count'
p5
(dp6
I1
(dp7
S'FleeBehavior'
p8
(lp9
I139
aI36
aI67
aI174
aI49
aI177
aI33
aI19
aI282
aI72
aI5
asS'PursueBehavior'
p10
(lp11
I20
aI1
aI3
aI135
aI2
aI288
aI2
aI1
aI48
aI29
aI0
asS'SeekBehavior'
p12
(lp13
I16
aI1
aI37
aI124
aI11
aI227
aI3
aI3
aI29
aI21
aI424
assI2
(dp14
S'FleeBehavior'
p15
(lp16
I133
aI33
aI30
aI125
aI3
aI257
aI2
aI0
aI64
aI23
aI424
asS'PursueBehavior'
p17
(lp18
I19
aI5
aI71
aI187
aI51
aI199
aI35
aI22
aI272
aI83
aI4
asS'SeekBehavior'
p19
(lp20
I22
aI0
aI6
aI121
aI8
aI235
aI0
aI1
aI22
aI16
aI0
asss.