(dp0
S'learn_scores'
p1
(lp2
F-288.0
aF-435.0
aF175.0
aF-134.0
aF-279.0
aF-55.0
aF-172.0
aF-179.0
aF-166.0
aF-186.0
asS'test_scores'
p3
(lp4
F-260.0
asS'behavior_count'
p5
(dp6
I1
(dp7
S'FleeBehavior'
p8
(lp9
I105
aI76
aI17
aI14
aI13
aI33
aI11
aI0
aI45
aI145
aI0
asS'PursueBehavior'
p10
(lp11
I43
aI139
aI34
aI15
aI1
aI31
aI12
aI8
aI7
aI14
aI0
asS'SeekBehavior'
p12
(lp13
I91
aI131
aI75
aI15
aI15
aI82
aI20
aI31
aI25
aI128
aI30
assI2
(dp14
S'FleeBehavior'
p15
(lp16
I88
aI171
aI59
aI19
aI12
aI49
aI25
aI22
aI33
aI201
aI30
asS'PursueBehavior'
p17
(lp18
I90
aI93
aI41
aI9
aI3
aI82
aI14
aI11
aI19
aI27
aI0
asS'SeekBehavior'
p19
(lp20
I61
aI81
aI25
aI16
aI14
aI15
aI4
aI6
aI25
aI59
aI0
asss.