(dp0
S'learn_scores'
p1
(lp2
F-339.0
aF-148.0
aF-186.0
aF-426.0
aF240.0
aF-242.0
aF-262.0
aF-150.0
aF-175.0
aF-155.0
asS'test_scores'
p3
(lp4
F11.0
asS'behavior_count'
p5
(dp6
I1
(dp7
S'FleeBehavior'
p8
(lp9
I40
aI1
aI7
aI102
aI15
aI10
aI13
aI2
aI24
aI2
aI0
asS'PursueBehavior'
p10
(lp11
I139
aI18
aI12
aI99
aI22
aI0
aI41
aI12
aI4
aI16
aI0
asS'SeekBehavior'
p12
(lp13
I71
aI40
aI27
aI136
aI194
aI22
aI89
aI47
aI58
aI58
aI280
assI2
(dp14
S'FleeBehavior'
p15
(lp16
I25
aI19
aI35
aI202
aI205
aI31
aI116
aI33
aI79
aI52
aI272
asS'PursueBehavior'
p17
(lp18
I58
aI24
aI3
aI22
aI13
aI0
aI19
aI19
aI2
aI21
aI8
asS'SeekBehavior'
p19
(lp20
I166
aI16
aI8
aI113
aI12
aI1
aI7
aI9
aI4
aI3
aI0
asss.