(dp0
S'learn_scores'
p1
(lp2
F-470.0
aF-278.0
aF-252.0
aF-338.0
aF-12.0
aF-143.0
aF-176.0
aF-136.0
aF-317.0
aF70.0
asS'test_scores'
p3
(lp4
F-218.0
asS'behavior_count'
p5
(dp6
I1
(dp7
S'FleeBehavior'
p8
(lp9
I273
aI10
aI34
aI28
aI28
aI12
aI39
aI6
aI80
aI26
aI0
asS'PursueBehavior'
p10
(lp11
I84
aI5
aI15
aI41
aI22
aI20
aI48
aI44
aI89
aI61
aI39
asS'SeekBehavior'
p12
(lp13
I24
aI13
aI14
aI190
aI33
aI11
aI10
aI7
aI69
aI14
aI0
assI2
(dp14
S'FleeBehavior'
p15
(lp16
I27
aI17
aI31
aI98
aI34
aI19
aI35
aI13
aI100
aI25
aI0
asS'PursueBehavior'
p17
(lp18
I278
aI8
aI20
aI124
aI23
aI8
aI27
aI2
aI80
aI7
aI0
asS'SeekBehavior'
p19
(lp20
I76
aI3
aI12
aI36
aI26
aI16
aI34
aI42
aI58
aI69
aI38
assI3
(dp21
S'FleeBehavior'
p22
(lp23
I72
aI23
aI37
aI19
aI42
aI9
aI43
aI56
aI100
aI52
aI38
asS'PursueBehavior'
p24
(lp25
I46
aI2
aI16
aI51
aI21
aI16
aI33
aI0
aI82
aI29
aI0
asS'SeekBehavior'
p26
(lp27
I263
aI3
aI10
aI188
aI20
aI18
aI20
aI0
aI56
aI19
aI0
asss.