(dp0
S'learn_scores'
p1
(lp2
F191.0
aF-134.0
aF-83.0
aF17.0
aF-183.0
aF-167.0
aF-405.0
aF-35.0
aF-256.0
aF-379.0
asS'test_scores'
p3
(lp4
F-251.0
asS'behavior_count'
p5
(dp6
I1
(dp7
S'FleeBehavior'
p8
(lp9
I52
aI11
aI77
aI44
aI9
aI30
aI66
aI24
aI27
aI74
aI2
asS'PursueBehavior'
p10
(lp11
I32
aI27
aI54
aI25
aI26
aI15
aI126
aI48
aI10
aI97
aI24
asS'SeekBehavior'
p12
(lp13
I26
aI6
aI53
aI15
aI29
aI3
aI164
aI34
aI40
aI119
aI5
assI2
(dp14
S'FleeBehavior'
p15
(lp16
I47
aI11
aI51
aI4
aI13
aI6
aI50
aI28
aI31
aI67
aI8
asS'PursueBehavior'
p17
(lp18
I34
aI16
aI65
aI34
aI18
aI21
aI172
aI42
aI21
aI136
aI0
asS'SeekBehavior'
p19
(lp20
I28
aI17
aI67
aI45
aI33
aI21
aI133
aI36
aI24
aI87
aI23
assI3
(dp21
S'FleeBehavior'
p22
(lp23
I16
aI17
aI71
aI19
aI22
aI31
aI159
aI77
aI44
aI124
aI12
asS'PursueBehavior'
p24
(lp25
I55
aI21
aI30
aI11
aI29
aI0
aI74
aI28
aI29
aI92
aI19
asS'SeekBehavior'
p26
(lp27
I38
aI6
aI82
aI53
aI13
aI17
aI122
aI1
aI3
aI73
aI0
asss.