(dp0
S'learn_scores'
p1
(lp2
F-232.0
aF167.0
aF-109.0
aF-259.0
aF-314.0
aF-157.0
aF-229.0
aF-179.0
aF-238.0
aF-130.0
asS'test_scores'
p3
(lp4
F-247.0
asS'behavior_count'
p5
(dp6
I1
(dp7
S'FleeBehavior'
p8
(lp9
I13
aI69
aI8
aI3
aI1
aI9
aI5
aI0
aI5
aI1
aI0
asS'PursueBehavior'
p10
(lp11
I105
aI13
aI23
aI30
aI1
aI11
aI42
aI1
aI68
aI2
aI0
asS'SeekBehavior'
p12
(lp13
I25
aI52
aI49
aI47
aI33
aI48
aI53
aI38
aI76
aI48
aI158
assI2
(dp14
S'FleeBehavior'
p15
(lp16
I15
aI70
aI19
aI5
aI2
aI6
aI3
aI1
aI4
aI2
aI0
asS'PursueBehavior'
p17
(lp18
I109
aI20
aI21
aI30
aI1
aI23
aI4
aI5
aI53
aI1
aI0
asS'SeekBehavior'
p19
(lp20
I19
aI44
aI40
aI45
aI31
aI38
aI93
aI33
aI92
aI48
aI157
assI3
(dp21
S'FleeBehavior'
p22
(lp23
I45
aI25
aI44
aI40
aI17
aI41
aI79
aI32
aI131
aI43
aI157
asS'PursueBehavior'
p24
(lp25
I84
aI18
aI11
aI18
aI8
aI2
aI5
aI2
aI4
aI3
aI0
asS'SeekBehavior'
p26
(lp27
I14
aI90
aI25
aI22
aI9
aI24
aI15
aI5
aI14
aI4
aI0
asss.