(dp0
S'learn_scores'
p1
(lp2
F2803.0
aF2837.0
aF1341.0
aF256.0
aF355.0
aF3262.0
aF2837.0
aF2804.0
aF-243.0
aF3259.0
asS'test_scores'
p3
(lp4
F3000.0
asS'behavior_count'
p5
(dp6
I1
(dp7
S'FleeBehavior'
p8
(lp9
I80
aI58
aI35
aI6
aI3
aI47
aI53
aI16
aI2
aI21
aI0
asS'PursueBehavior'
p10
(lp11
I49
aI74
aI69
aI15
aI6
aI68
aI69
aI110
aI1
aI63
aI10
asS'SeekBehavior'
p12
(lp13
I258
aI221
aI116
aI83
aI86
aI213
aI231
aI260
aI31
aI247
aI380
assI2
(dp14
S'FleeBehavior'
p15
(lp16
I206
aI104
aI103
aI79
aI78
aI182
aI238
aI302
aI23
aI205
aI277
asS'PursueBehavior'
p17
(lp18
I112
aI66
aI97
aI13
aI13
aI28
aI41
aI43
aI10
aI90
aI113
asS'SeekBehavior'
p19
(lp20
I69
aI183
aI19
aI12
aI4
aI118
aI74
aI41
aI0
aI36
aI0
assI3
(dp21
S'FleeBehavior'
p22
(lp23
I91
aI219
aI43
aI19
aI45
aI215
aI103
aI108
aI5
aI47
aI62
asS'PursueBehavior'
p24
(lp25
I220
aI97
aI159
aI74
aI35
aI85
aI219
aI185
aI25
aI195
aI214
asS'SeekBehavior'
p26
(lp27
I76
aI37
aI17
aI11
aI15
aI28
aI31
aI93
aI3
aI89
aI114
assI4
(dp28
S'FleeBehavior'
p29
(lp30
I123
aI77
aI151
aI77
aI75
aI220
aI202
aI280
aI31
aI181
aI355
asS'PursueBehavior'
p31
(lp32
I169
aI238
aI14
aI1
aI7
aI85
aI99
aI58
aI0
aI77
aI1
asS'SeekBehavior'
p33
(lp34
I95
aI38
aI54
aI26
aI13
aI23
aI52
aI48
aI2
aI73
aI34
asss.