(dp0
S'learn_scores'
p1
(lp2
F-158.0
aF57.0
aF319.0
aF-287.0
aF-287.0
aF-326.0
aF-200.0
aF-226.0
aF142.0
aF-214.0
asS'test_scores'
p3
(lp4
F-238.0
asS'behavior_count'
p5
(dp6
I1
(dp7
S'FleeBehavior'
p8
(lp9
I9
aI37
aI90
aI10
aI9
aI8
aI5
aI2
aI16
aI31
aI0
asS'PursueBehavior'
p10
(lp11
I33
aI49
aI46
aI9
aI8
aI13
aI34
aI32
aI92
aI65
aI159
asS'SeekBehavior'
p12
(lp13
I37
aI28
aI36
aI8
aI10
aI5
aI2
aI3
aI21
aI29
aI0
assI2
(dp14
S'FleeBehavior'
p15
(lp16
I44
aI50
aI53
aI16
aI16
aI15
aI13
aI11
aI40
aI63
aI0
asS'PursueBehavior'
p17
(lp18
I7
aI31
aI96
aI5
aI4
aI1
aI2
aI0
aI17
aI4
aI0
asS'SeekBehavior'
p19
(lp20
I27
aI33
aI23
aI6
aI7
aI10
aI26
aI26
aI71
aI58
aI159
assI3
(dp21
S'FleeBehavior'
p22
(lp23
I38
aI44
aI23
aI14
aI19
aI21
aI38
aI34
aI79
aI92
aI158
asS'PursueBehavior'
p24
(lp25
I7
aI47
aI121
aI7
aI4
aI3
aI1
aI1
aI18
aI30
aI0
asS'SeekBehavior'
p26
(lp27
I33
aI23
aI27
aI6
aI4
aI2
aI1
aI2
aI31
aI3
aI0
asss.