(dp0
S'learn_scores'
p1
(lp2
F-579.0
aF-126.0
aF-186.0
aF-269.0
aF-149.0
aF-137.0
aF-177.0
aF-233.0
aF-156.0
aF-233.0
asS'test_scores'
p3
(lp4
F193.0
asS'behavior_count'
p5
(dp6
I1
(dp7
S'FleeBehavior'
p8
(lp9
I117
aI13
aI63
aI11
aI32
aI20
aI27
aI11
aI176
aI6
aI0
asS'PursueBehavior'
p10
(lp11
I110
aI18
aI20
aI10
aI20
aI23
aI27
aI23
aI36
aI27
aI118
asS'SeekBehavior'
p12
(lp13
I173
aI16
aI24
aI9
aI8
aI5
aI4
aI0
aI15
aI1
aI0
assI2
(dp14
S'FleeBehavior'
p15
(lp16
I112
aI19
aI55
aI2
aI13
aI8
aI13
aI1
aI169
aI10
aI1
asS'PursueBehavior'
p17
(lp18
I141
aI15
aI33
aI15
aI22
aI24
aI38
aI25
aI41
aI24
aI117
asS'SeekBehavior'
p19
(lp20
I147
aI12
aI18
aI13
aI24
aI15
aI7
aI8
aI17
aI0
aI0
assI3
(dp21
S'FleeBehavior'
p22
(lp23
I167
aI11
aI55
aI3
aI29
aI15
aI14
aI3
aI23
aI1
aI0
asS'PursueBehavior'
p24
(lp25
I118
aI20
aI29
aI20
aI21
aI25
aI43
aI29
aI187
aI32
aI118
asS'SeekBehavior'
p26
(lp27
I115
aI15
aI22
aI7
aI9
aI7
aI1
aI2
aI17
aI1
aI0
asss.