(dp0
S'learn_scores'
p1
(lp2
F2452.0
aF904.0
aF2420.0
aF2600.0
aF2781.0
aF2441.0
aF2629.0
aF2415.0
aF2870.0
aF1061.0
aF2459.0
aF2823.0
aF2662.0
aF2470.0
aF2484.0
aF2632.0
aF3046.0
aF2838.0
aF2451.0
aF2465.0
aF2677.0
aF2653.0
aF2452.0
aF2446.0
aF2839.0
aF2821.0
aF2655.0
aF3271.0
aF2645.0
aF2654.0
aF2654.0
aF2648.0
aF3247.0
aF2460.0
aF122.0
aF2429.0
aF2633.0
aF2468.0
aF2459.0
aF2619.0
aF2654.0
aF2436.0
aF2648.0
aF2393.0
aF2424.0
aF2864.0
aF2438.0
aF122.0
aF413.0
aF2632.0
aF2467.0
aF2465.0
aF2449.0
aF2442.0
aF2824.0
aF2404.0
aF2474.0
aF2671.0
aF2641.0
aF2335.0
aF2429.0
aF137.0
aF2646.0
aF2435.0
aF2471.0
aF2658.0
aF2437.0
aF2484.0
aF608.0
aF1202.0
aF671.0
aF2839.0
aF2863.0
aF549.0
aF2470.0
aF755.0
aF2648.0
aF2666.0
aF2616.0
aF2805.0
aF2637.0
aF2750.0
aF2453.0
aF2444.0
aF2647.0
aF2423.0
aF2432.0
aF2462.0
aF397.0
aF2637.0
aF1232.0
aF2854.0
aF2444.0
aF2434.0
aF2847.0
aF2853.0
aF2446.0
aF2662.0
aF2648.0
aF2642.0
asS'test_scores'
p3
(lp4
F2470.0
asS'behavior_count'
p5
(dp6
I1
(dp7
S'FleeBehavior'
p8
(lp9
I111
aI44
aI85
aI94
aI102
aI146
aI102
aI128
aI150
aI36
aI91
aI67
aI194
aI57
aI177
aI121
aI96
aI96
aI168
aI90
aI55
aI79
aI41
aI107
aI138
aI94
aI79
aI135
aI217
aI58
aI74
aI115
aI48
aI95
aI22
aI121
aI46
aI152
aI69
aI102
aI80
aI88
aI140
aI12
aI154
aI158
aI91
aI48
aI13
aI139
aI10
aI103
aI119
aI67
aI79
aI67
aI160
aI43
aI256
aI20
aI142
aI1
aI9
aI94
aI181
aI28
aI10
aI51
aI71
aI40
aI5
aI74
aI183
aI130
aI157
aI3
aI151
aI11
aI133
aI68
aI213
aI112
aI238
aI19
aI171
aI14
aI70
aI67
aI115
aI185
aI9
aI109
aI247
aI10
aI83
aI86
aI43
aI180
aI158
aI150
aI293
asS'PursueBehavior'
p10
(lp11
I63
aI89
aI164
aI145
aI120
aI104
aI103
aI122
aI62
aI68
aI93
aI132
aI57
aI95
aI53
aI67
aI121
aI135
aI86
aI97
aI177
aI228
aI199
aI16
aI182
aI54
aI210
aI166
aI107
aI192
aI190
aI25
aI96
aI15
aI80
aI57
aI219
aI5
aI256
aI12
aI147
aI257
aI7
aI259
aI152
aI155
aI154
aI26
aI30
aI123
aI121
aI10
aI211
aI12
aI99
aI309
aI8
aI107
aI15
aI84
aI68
aI34
aI217
aI12
aI125
aI206
aI222
aI243
aI11
aI197
aI92
aI41
aI130
aI5
aI8
aI78
aI22
aI247
aI17
aI303
aI15
aI312
aI13
aI80
aI9
aI180
aI10
aI251
aI5
aI18
aI187
aI64
aI82
aI48
aI242
aI188
aI14
aI83
aI176
aI10
aI25
asS'SeekBehavior'
p12
(lp13
I164
aI24
aI121
aI151
aI187
aI99
aI156
aI125
aI108
aI136
aI147
aI168
aI77
aI168
aI76
aI170
aI127
aI121
aI85
aI138
aI81
aI30
aI98
aI221
aI31
aI221
aI46
aI18
aI21
aI86
aI72
aI202
aI199
aI220
aI7
aI183
aI92
aI165
aI6
aI257
aI109
aI9
aI195
aI126
aI60
aI13
aI107
aI5
aI64
aI96
aI192
aI212
aI11
aI269
aI188
aI10
aI148
aI169
aI78
aI351
aI151
aI49
aI118
aI249
aI13
aI98
aI121
aI12
aI41
aI22
aI43
aI236
aI14
aI7
aI155
aI85
aI169
aI66
aI224
aI14
aI125
aI16
aI86
aI247
aI163
aI173
aI278
aI10
aI24
aI150
aI63
aI163
aI17
aI298
aI18
aI63
aI287
aI65
aI8
aI188
aI2
assI2
(dp14
S'FleeBehavior'
p15
(lp16
I163
aI7
aI75
aI129
aI101
aI135
aI117
aI178
aI145
aI67
aI92
aI76
aI94
aI48
aI55
aI59
aI169
aI194
aI194
aI94
aI84
aI123
aI122
aI200
aI106
aI108
aI148
aI103
aI31
aI57
aI59
aI196
aI173
aI123
aI51
aI158
aI134
aI37
aI186
aI192
aI89
aI150
aI16
aI48
aI222
aI71
aI12
aI34
aI103
aI102
aI35
aI143
aI9
aI83
aI294
aI67
aI75
aI144
aI11
aI60
aI57
aI48
aI159
aI21
aI210
aI12
aI296
aI4
aI17
aI145
aI14
aI82
aI8
aI61
aI149
aI70
aI74
aI178
aI100
aI325
aI12
aI336
aI42
aI94
aI27
aI11
aI28
aI81
aI19
aI30
aI152
aI86
aI18
aI211
aI15
aI229
aI10
aI146
aI7
aI17
aI300
asS'PursueBehavior'
p17
(lp18
I108
aI64
aI119
aI128
aI107
aI112
aI128
aI87
aI88
aI116
aI143
aI123
aI51
aI107
aI149
aI188
aI127
aI92
aI115
aI141
aI173
aI124
aI6
aI135
aI87
aI93
aI160
aI132
aI177
aI231
aI98
aI55
aI112
aI39
aI57
aI75
aI121
aI274
aI84
aI17
aI104
aI185
aI159
aI31
aI74
aI136
aI14
aI40
aI2
aI112
aI148
aI11
aI167
aI253
aI37
aI110
aI229
aI39
aI97
aI193
aI290
aI3
aI11
aI223
aI98
aI258
aI10
aI191
aI39
aI106
aI102
aI113
aI36
aI79
aI158
aI6
aI20
aI136
aI86
aI12
aI109
aI24
aI219
aI16
aI227
aI233
aI9
aI206
aI4
aI165
aI8
aI129
aI237
aI13
aI183
aI54
aI281
aI23
aI184
aI21
aI20
asS'SeekBehavior'
p19
(lp20
I67
aI85
aI176
aI133
aI201
aI102
aI116
aI110
aI87
aI56
aI96
aI168
aI183
aI165
aI102
aI111
aI48
aI66
aI30
aI90
aI56
aI90
aI210
aI9
aI158
aI168
aI27
aI84
aI137
aI48
aI179
aI91
aI58
aI168
aI1
aI128
aI102
aI11
aI61
aI162
aI143
aI19
aI167
aI318
aI70
aI119
aI326
aI4
aI2
aI144
aI140
aI171
aI165
aI12
aI35
aI209
aI12
aI136
aI241
aI202
aI14
aI32
aI174
aI111
aI11
aI62
aI47
aI111
aI67
aI8
aI23
aI156
aI283
aI1
aI13
aI89
aI248
aI10
aI188
aI48
aI232
aI80
aI76
aI236
aI89
aI123
aI321
aI41
aI120
aI158
aI98
aI121
aI91
aI132
aI145
aI54
aI53
aI159
aI151
aI310
aI0
asss.