(dp0
S'learn_scores'
p1
(lp2
F2430.0
aF2651.0
aF190.0
aF2410.0
aF2177.0
aF3055.0
aF941.0
aF-266.0
aF2480.0
aF1736.0
asS'test_scores'
p3
(lp4
F3078.0
asS'behavior_count'
p5
(dp6
I1
(dp7
S'FleeBehavior'
p8
(lp9
I54
aI89
aI14
aI31
aI89
aI43
aI33
aI0
aI12
aI36
aI19
asS'PursueBehavior'
p10
(lp11
I150
aI124
aI37
aI129
aI76
aI121
aI86
aI22
aI70
aI136
aI278
asS'SeekBehavior'
p12
(lp13
I156
aI126
aI10
aI220
aI169
aI171
aI101
aI5
aI228
aI133
aI15
assI2
(dp14
S'FleeBehavior'
p15
(lp16
I192
aI93
aI26
aI111
aI229
aI224
aI126
aI23
aI144
aI129
aI175
asS'PursueBehavior'
p17
(lp18
I78
aI109
aI8
aI23
aI52
aI64
aI26
aI0
aI107
aI27
aI117
asS'SeekBehavior'
p19
(lp20
I90
aI137
aI27
aI246
aI53
aI47
aI68
aI3
aI59
aI148
aI20
assI3
(dp21
S'FleeBehavior'
p22
(lp23
I71
aI67
aI17
aI27
aI9
aI50
aI20
aI1
aI32
aI53
aI0
asS'PursueBehavior'
p24
(lp25
I218
aI165
aI41
aI223
aI280
aI162
aI138
aI24
aI258
aI217
aI309
asS'SeekBehavior'
p26
(lp27
I71
aI107
aI3
aI130
aI44
aI123
aI62
aI1
aI20
aI34
aI3
assI4
(dp28
S'FleeBehavior'
p29
(lp30
I195
aI145
aI29
aI269
aI123
aI181
aI116
aI26
aI245
aI247
aI224
asS'PursueBehavior'
p31
(lp32
I80
aI80
aI16
aI77
aI90
aI136
aI35
aI0
aI58
aI15
aI86
asS'SeekBehavior'
p33
(lp34
I85
aI114
aI15
aI34
aI120
aI18
aI69
aI0
aI7
aI42
aI2
asss.