(dp0
S'learn_scores'
p1
(lp2
F2853.0
aF2467.0
aF295.0
aF2882.0
aF2657.0
aF1269.0
aF2417.0
aF1143.0
aF2660.0
aF2860.0
aF1807.0
aF2862.0
aF2442.0
aF2845.0
aF472.0
aF2610.0
aF464.0
aF349.0
aF2809.0
aF2589.0
aF2875.0
aF3274.0
aF2845.0
aF2839.0
aF2442.0
aF2865.0
aF90.0
aF3071.0
aF2622.0
aF636.0
aF709.0
aF2641.0
aF2845.0
aF2653.0
aF2858.0
aF3226.0
aF2430.0
aF2645.0
aF1724.0
aF2660.0
aF3067.0
aF1599.0
aF2806.0
aF2473.0
aF3042.0
aF2647.0
aF2673.0
aF1551.0
aF2591.0
aF2823.0
aF816.0
aF2458.0
aF2423.0
aF2659.0
aF2673.0
aF2455.0
aF2637.0
aF2861.0
aF1734.0
aF2811.0
aF299.0
aF2650.0
aF2871.0
aF1444.0
aF2479.0
aF2631.0
aF2423.0
aF2479.0
aF2653.0
aF2455.0
aF1623.0
aF3018.0
aF1571.0
aF614.0
aF3035.0
aF2452.0
aF2668.0
aF2466.0
aF2626.0
aF2642.0
aF2449.0
aF1113.0
aF2830.0
aF1271.0
aF2652.0
aF786.0
aF320.0
aF2636.0
aF2846.0
aF2824.0
aF862.0
aF2448.0
aF1343.0
aF1169.0
aF1265.0
aF2421.0
aF2445.0
aF1128.0
aF2429.0
aF3025.0
asS'test_scores'
p3
(lp4
F1289.0
asS'behavior_count'
p5
(dp6
I1
(dp7
S'FleeBehavior'
p8
(lp9
I130
aI168
aI3
aI37
aI93
aI140
aI50
aI56
aI69
aI72
aI120
aI12
aI30
aI210
aI2
aI10
aI3
aI7
aI175
aI117
aI161
aI11
aI66
aI10
aI11
aI10
aI4
aI13
aI230
aI4
aI21
aI8
aI139
aI276
aI51
aI62
aI312
aI183
aI128
aI123
aI79
aI108
aI77
aI75
aI30
aI27
aI31
aI119
aI281
aI262
aI154
aI239
aI278
aI49
aI65
aI236
aI6
aI167
aI137
aI190
aI89
aI272
aI231
aI25
aI13
aI13
aI178
aI10
aI11
aI10
aI22
aI14
aI40
aI5
aI184
aI248
aI170
aI170
aI94
aI85
aI56
aI177
aI195
aI175
aI80
aI64
aI19
aI153
aI208
aI67
aI54
aI183
aI73
aI34
aI8
aI9
aI11
aI4
aI14
aI9
aI0
asS'PursueBehavior'
p10
(lp11
I112
aI44
aI47
aI177
aI35
aI66
aI205
aI133
aI143
aI209
aI109
aI281
aI283
aI68
aI48
aI274
aI35
aI18
aI125
aI148
aI107
aI65
aI63
aI71
aI14
aI188
aI35
aI269
aI19
aI58
aI85
aI23
aI79
aI31
aI237
aI242
aI18
aI148
aI118
aI198
aI209
aI91
aI60
aI26
aI89
aI201
aI282
aI33
aI31
aI15
aI8
aI86
aI49
aI49
aI98
aI94
aI336
aI96
aI46
aI121
aI4
aI18
aI61
aI78
aI10
aI38
aI25
aI202
aI228
aI7
aI128
aI311
aI201
aI57
aI152
aI52
aI92
aI90
aI114
aI61
aI8
aI8
aI68
aI22
aI125
aI79
aI11
aI75
aI90
aI129
aI81
aI150
aI209
aI198
aI170
aI309
aI302
aI113
aI313
aI310
aI112
asS'SeekBehavior'
p12
(lp13
I95
aI111
aI66
aI94
aI205
aI95
aI118
aI48
aI118
aI49
aI45
aI35
aI35
aI67
aI39
aI96
aI59
aI67
aI81
aI136
aI47
aI240
aI216
aI270
aI323
aI127
aI12
aI37
aI119
aI43
aI6
aI318
aI127
aI30
aI44
aI60
aI30
aI14
aI71
aI9
aI35
aI132
aI247
aI216
aI229
aI115
aI4
aI198
aI87
aI90
aI63
aI7
aI40
aI233
aI154
aI5
aI11
aI66
aI153
aI68
aI9
aI50
aI27
aI114
aI288
aI308
aI164
aI99
aI98
aI318
aI228
aI47
aI39
aI85
aI19
aI38
aI60
aI64
aI156
aI202
aI277
aI43
aI97
aI13
aI133
aI22
aI71
aI126
aI46
aI170
aI4
aI9
aI26
aI80
aI138
aI51
aI32
aI46
aI34
aI46
aI160
assI2
(dp14
S'FleeBehavior'
p15
(lp16
I133
aI145
aI4
aI63
aI52
aI76
aI165
aI107
aI25
aI88
aI88
aI5
aI266
aI93
aI42
aI119
aI26
aI84
aI181
aI96
aI213
aI204
aI135
aI9
aI248
aI118
aI7
aI21
aI66
aI37
aI18
aI141
aI207
aI248
aI171
aI166
aI317
aI53
aI142
aI132
aI23
aI94
aI40
aI9
aI44
aI132
aI21
aI218
aI215
aI153
aI102
aI83
aI69
aI49
aI15
aI114
aI29
aI79
aI198
aI241
aI89
aI156
aI77
aI68
aI102
aI168
aI55
aI23
aI16
aI242
aI273
aI153
aI105
aI85
aI132
aI238
aI227
aI106
aI156
aI174
aI7
aI12
aI64
aI12
aI24
aI47
aI35
aI89
aI16
aI78
aI7
aI70
aI99
aI159
aI211
aI235
aI240
aI106
aI206
aI28
aI115
asS'PursueBehavior'
p17
(lp18
I121
aI138
aI82
aI188
aI177
aI83
aI133
aI29
aI44
aI104
aI37
aI57
aI40
aI105
aI9
aI30
aI4
aI2
aI149
aI296
aI62
aI65
aI56
aI155
aI33
aI177
aI26
aI220
aI293
aI58
aI90
aI184
aI97
aI51
aI63
aI90
aI35
aI276
aI136
aI183
aI217
aI112
aI206
aI96
aI158
aI47
aI134
aI116
aI174
aI105
aI12
aI23
aI88
aI138
aI51
aI73
aI251
aI140
aI104
aI121
aI12
aI174
aI133
aI70
aI197
aI174
aI184
aI100
aI111
aI83
aI89
aI129
aI75
aI43
aI149
aI90
aI74
aI45
aI167
aI92
aI62
aI150
aI226
aI158
aI228
aI59
aI58
aI256
aI289
aI93
aI54
aI154
aI199
aI141
aI93
aI120
aI92
aI53
aI143
aI227
aI91
asS'SeekBehavior'
p19
(lp20
I83
aI40
aI30
aI57
aI104
aI142
aI75
aI101
aI261
aI138
aI149
aI266
aI42
aI147
aI38
aI231
aI66
aI5
aI51
aI9
aI40
aI47
aI154
aI187
aI67
aI30
aI18
aI78
aI9
aI10
aI3
aI24
aI41
aI38
aI98
aI108
aI8
aI16
aI38
aI15
aI83
aI125
aI138
aI212
aI146
aI164
aI162
aI16
aI10
aI109
aI110
aI226
aI210
aI144
aI251
aI148
aI73
aI110
aI34
aI17
aI1
aI10
aI109
aI78
aI12
aI17
aI128
aI188
aI210
aI10
aI16
aI90
aI99
aI19
aI74
aI10
aI21
aI173
aI41
aI82
aI272
aI66
aI70
aI40
aI86
aI58
aI7
aI9
aI39
aI195
aI78
aI118
aI9
aI12
aI12
aI14
aI13
aI4
aI12
aI110
aI66
assI3
(dp21
S'FleeBehavior'
p22
(lp23
I68
aI145
aI72
aI92
aI83
aI144
aI133
aI66
aI110
aI117
aI160
aI284
aI98
aI138
aI3
aI22
aI2
aI13
aI42
aI120
aI145
aI74
aI47
aI17
aI66
aI281
aI49
aI136
aI60
aI16
aI25
aI179
aI221
aI213
aI176
aI112
aI72
aI156
aI91
aI65
aI209
aI23
aI72
aI38
aI201
aI164
aI212
aI282
aI368
aI241
aI160
aI73
aI301
aI207
aI262
aI133
aI125
aI118
aI211
aI97
aI4
aI25
aI30
aI21
aI15
aI56
aI77
aI191
aI210
aI29
aI89
aI107
aI113
aI23
aI89
aI52
aI54
aI25
aI38
aI50
aI42
aI136
aI175
aI25
aI37
aI4
aI3
aI26
aI31
aI21
aI41
aI54
aI109
aI22
aI37
aI39
aI97
aI100
aI193
aI299
aI154
asS'PursueBehavior'
p24
(lp25
I162
aI133
aI3
aI42
aI68
aI106
aI91
aI38
aI99
aI196
aI52
aI34
aI7
aI194
aI80
aI182
aI5
aI5
aI139
aI271
aI135
aI127
aI141
aI197
aI271
aI10
aI1
aI7
aI12
aI80
aI69
aI160
aI112
aI108
aI137
aI233
aI264
aI27
aI196
aI201
aI18
aI256
aI192
aI197
aI121
aI119
aI87
aI14
aI19
aI34
aI3
aI8
aI14
aI8
aI44
aI131
aI176
aI119
aI16
aI38
aI5
aI7
aI108
aI57
aI282
aI175
aI154
aI10
aI39
aI288
aI170
aI181
aI90
aI2
aI43
aI11
aI17
aI20
aI313
aI291
aI34
aI6
aI40
aI26
aI296
aI156
aI79
aI317
aI301
aI300
aI83
aI125
aI19
aI8
aI12
aI10
aI6
aI25
aI14
aI47
aI90
asS'SeekBehavior'
p26
(lp27
I107
aI45
aI40
aI174
aI182
aI51
aI149
aI133
aI121
aI17
aI62
aI10
aI243
aI13
aI5
aI176
aI89
aI73
aI200
aI10
aI35
aI115
aI157
aI137
aI11
aI34
aI1
aI176
aI296
aI8
aI17
aI10
aI12
aI16
aI19
aI19
aI24
aI162
aI29
aI64
aI96
aI52
aI120
aI82
aI26
aI60
aI18
aI53
aI12
aI92
aI61
aI251
aI52
aI116
aI11
aI71
aI52
aI92
aI109
aI244
aI92
aI308
aI181
aI138
aI14
aI128
aI136
aI110
aI88
aI18
aI118
aI84
aI76
aI121
aI223
aI275
aI251
aI279
aI13
aI7
aI265
aI85
aI145
aI158
aI5
aI4
aI18
aI11
aI12
aI45
aI14
aI163
aI179
aI281
aI266
aI320
aI242
aI38
aI154
aI19
aI27
asss.