(dp0
S'learn_scores'
p1
(lp2
F2622.0
aF785.0
aF1154.0
aF2839.0
aF2417.0
aF2846.0
aF2423.0
aF2862.0
aF2871.0
aF2672.0
asS'test_scores'
p3
(lp4
F1483.0
asS'behavior_count'
p5
(dp6
I1
(dp7
S'FleeBehavior'
p8
(lp9
I62
aI42
aI114
aI62
aI102
aI68
aI64
aI87
aI28
aI46
aI27
asS'PursueBehavior'
p10
(lp11
I174
aI59
aI163
aI222
aI228
aI167
aI280
aI217
aI180
aI238
aI271
asS'SeekBehavior'
p12
(lp13
I132
aI74
aI20
aI67
aI43
aI109
aI23
aI24
aI111
aI34
aI0
assI2
(dp14
S'FleeBehavior'
p15
(lp16
I112
aI49
aI123
aI136
aI135
aI88
aI88
aI52
aI136
aI57
aI179
asS'PursueBehavior'
p17
(lp18
I150
aI71
aI127
aI169
aI176
aI222
aI160
aI203
aI148
aI174
aI119
asS'SeekBehavior'
p19
(lp20
I106
aI55
aI46
aI46
aI62
aI34
aI119
aI73
aI35
aI87
aI0
assI3
(dp21
S'FleeBehavior'
p22
(lp23
I100
aI51
aI76
aI58
aI108
aI142
aI64
aI150
aI199
aI149
aI0
asS'PursueBehavior'
p24
(lp25
I99
aI45
aI47
aI93
aI57
aI10
aI9
aI38
aI7
aI34
aI0
asS'SeekBehavior'
p26
(lp27
I169
aI79
aI173
aI200
aI208
aI192
aI294
aI140
aI113
aI135
aI297
asss.