(dp0
S'learn_scores'
p1
(lp2
F1274.0
aF2659.0
aF2462.0
aF2646.0
aF2423.0
aF2664.0
aF2611.0
aF2451.0
aF2439.0
aF2641.0
aF2653.0
aF2465.0
aF2645.0
aF2599.0
aF2447.0
aF2668.0
aF3061.0
aF2649.0
aF2669.0
aF2470.0
aF2830.0
aF2649.0
aF2407.0
aF2874.0
aF2637.0
aF2603.0
aF2459.0
aF2438.0
aF830.0
aF2431.0
aF2668.0
aF2465.0
aF2430.0
aF2652.0
aF2475.0
aF2463.0
aF2649.0
aF2654.0
aF2837.0
aF2616.0
aF2448.0
aF2838.0
aF414.0
aF2873.0
aF2685.0
aF1277.0
aF1675.0
aF2657.0
aF2807.0
aF2621.0
aF2661.0
aF2454.0
aF2867.0
aF2405.0
aF2623.0
aF-239.0
aF1591.0
aF2808.0
aF259.0
aF333.0
aF2853.0
aF2657.0
aF2468.0
aF2843.0
aF2477.0
aF2654.0
aF1095.0
aF2670.0
aF2638.0
aF2455.0
aF1249.0
aF-338.0
aF2659.0
aF803.0
aF2818.0
aF2448.0
aF2619.0
aF1591.0
aF2465.0
aF2414.0
aF2658.0
aF2813.0
aF2638.0
aF2657.0
aF2838.0
aF2656.0
aF1547.0
aF2480.0
aF1610.0
aF2477.0
aF3066.0
aF2664.0
aF2446.0
aF2630.0
aF1414.0
aF2652.0
aF2776.0
aF2807.0
aF2467.0
aF2849.0
asS'test_scores'
p3
(lp4
F2643.0
asS'behavior_count'
p5
(dp6
I1
(dp7
S'FleeBehavior'
p8
(lp9
I120
aI125
aI40
aI84
aI173
aI96
aI179
aI195
aI91
aI139
aI153
aI168
aI9
aI14
aI21
aI52
aI275
aI160
aI26
aI7
aI10
aI172
aI27
aI157
aI241
aI137
aI7
aI40
aI6
aI12
aI65
aI9
aI15
aI43
aI89
aI30
aI67
aI80
aI108
aI28
aI28
aI18
aI61
aI124
aI23
aI11
aI6
aI11
aI143
aI283
aI190
aI275
aI223
aI57
aI121
aI12
aI81
aI95
aI37
aI14
aI13
aI110
aI161
aI47
aI29
aI266
aI130
aI189
aI94
aI147
aI138
aI1
aI153
aI28
aI60
aI242
aI121
aI37
aI14
aI14
aI16
aI226
aI269
aI130
aI14
aI251
aI175
aI271
aI170
aI260
aI234
aI75
aI85
aI12
aI33
aI14
aI172
aI168
aI138
aI227
aI119
asS'PursueBehavior'
p10
(lp11
I96
aI186
aI159
aI134
aI116
aI86
aI106
aI27
aI30
aI93
aI23
aI57
aI252
aI193
aI71
aI33
aI35
aI38
aI8
aI76
aI104
aI155
aI343
aI133
aI100
aI60
aI46
aI138
aI102
aI304
aI79
aI36
aI338
aI186
aI216
aI278
aI244
aI218
aI147
aI310
aI183
aI97
aI23
aI120
aI113
aI76
aI54
aI103
aI168
aI72
aI76
aI50
aI43
aI97
aI117
aI17
aI198
aI271
aI71
aI98
aI311
aI209
aI150
aI287
aI72
aI61
aI125
aI115
aI143
aI140
aI65
aI15
aI93
aI73
aI138
aI54
aI92
aI67
aI62
aI63
aI36
aI104
aI71
aI104
aI56
aI73
aI71
aI28
aI73
aI44
aI56
aI50
aI44
aI70
aI33
aI36
aI91
aI59
aI41
aI73
aI96
asS'SeekBehavior'
p12
(lp13
I61
aI20
aI129
aI126
aI78
aI144
aI94
aI117
aI230
aI117
aI161
aI100
aI84
aI184
aI251
aI237
aI19
aI143
aI287
aI237
aI246
aI14
aI13
aI26
aI12
aI190
aI278
aI174
aI53
aI43
aI178
aI280
aI7
aI109
aI10
aI19
aI30
aI38
aI98
aI36
aI131
aI237
aI13
aI73
aI169
aI147
aI236
aI219
aI72
aI14
aI63
aI11
aI57
aI231
aI129
aI1
aI11
aI16
aI4
aI6
aI13
aI14
aI11
aI13
aI212
aI9
aI31
aI16
aI115
aI48
aI49
aI3
aI85
aI7
aI174
aI46
aI158
aI236
aI249
aI299
aI280
aI47
aI12
aI99
aI282
aI10
aI8
aI11
aI78
aI9
aI34
aI201
aI215
aI278
aI260
aI288
aI151
aI156
aI144
aI41
aI132
assI2
(dp14
S'FleeBehavior'
p15
(lp16
I42
aI112
aI136
aI194
aI155
aI178
aI123
aI250
aI223
aI85
aI67
aI166
aI206
aI343
aI175
aI76
aI159
aI175
aI156
aI224
aI174
aI93
aI268
aI127
aI187
aI236
aI192
aI209
aI16
aI336
aI164
aI40
aI196
aI208
aI164
aI89
aI32
aI21
aI19
aI15
aI83
aI88
aI33
aI174
aI65
aI56
aI168
aI155
aI185
aI44
aI26
aI103
aI137
aI127
aI187
aI27
aI271
aI313
aI66
aI65
aI66
aI36
aI117
aI180
aI76
aI106
aI139
aI247
aI93
aI229
aI171
aI18
aI292
aI87
aI268
aI125
aI256
aI275
aI306
aI263
aI196
aI144
aI37
aI37
aI90
aI119
aI69
aI59
aI77
aI75
aI117
aI56
aI80
aI108
aI95
aI80
aI151
aI176
aI84
aI73
aI22
asS'PursueBehavior'
p17
(lp18
I50
aI107
aI113
aI65
aI153
aI69
aI97
aI81
aI25
aI101
aI96
aI149
aI108
aI14
aI46
aI35
aI43
aI35
aI49
aI79
aI53
aI137
aI42
aI22
aI130
aI132
aI117
aI37
aI58
aI10
aI112
aI272
aI14
aI14
aI35
aI28
aI93
aI161
aI236
aI300
aI41
aI216
aI5
aI135
aI111
aI10
aI29
aI164
aI180
aI235
aI44
aI134
aI14
aI8
aI15
aI2
aI11
aI58
aI43
aI52
aI258
aI246
aI74
aI12
aI212
aI32
aI97
aI15
aI198
aI98
aI70
aI0
aI26
aI20
aI21
aI28
aI42
aI16
aI7
aI38
aI126
aI187
aI300
aI282
aI85
aI192
aI11
aI16
aI95
aI225
aI147
aI15
aI86
aI12
aI165
aI248
aI186
aI114
aI193
aI240
aI325
asS'SeekBehavior'
p19
(lp20
I184
aI112
aI79
aI85
aI59
aI79
aI159
aI8
aI103
aI163
aI174
aI10
aI31
aI34
aI122
aI211
aI127
aI131
aI116
aI17
aI133
aI111
aI73
aI167
aI36
aI19
aI22
aI106
aI86
aI13
aI46
aI13
aI150
aI116
aI116
aI210
aI216
aI154
aI98
aI59
aI218
aI48
aI58
aI8
aI129
aI167
aI98
aI14
aI18
aI90
aI259
aI99
aI172
aI250
aI165
aI0
aI7
aI11
aI2
aI0
aI13
aI51
aI131
aI155
aI25
aI198
aI49
aI58
aI61
aI8
aI11
aI0
aI13
aI1
aI83
aI189
aI73
aI49
aI12
aI75
aI10
aI46
aI15
aI14
aI177
aI23
aI173
aI235
aI149
aI13
aI60
aI255
aI178
aI240
aI66
aI10
aI77
aI93
aI46
aI28
aI0
asss.