(dp0
S'learn_scores'
p1
(lp2
F108.0
aF-313.0
aF-185.0
aF-247.0
aF-179.0
aF-278.0
aF-128.0
aF-158.0
aF399.0
aF-167.0
asS'test_scores'
p3
(lp4
F-173.0
asS'behavior_count'
p5
(dp6
I1
(dp7
S'FleeBehavior'
p8
(lp9
I27
aI161
aI20
aI10
aI60
aI2
aI6
aI29
aI16
aI30
aI0
asS'PursueBehavior'
p10
(lp11
I66
aI138
aI21
aI14
aI23
aI18
aI29
aI33
aI74
aI42
aI44
asS'SeekBehavior'
p12
(lp13
I40
aI85
aI15
aI14
aI7
aI8
aI14
aI7
aI82
aI6
aI0
assI2
(dp14
S'FleeBehavior'
p15
(lp16
I36
aI117
aI9
aI15
aI47
aI7
aI5
aI4
aI29
aI29
aI2
asS'PursueBehavior'
p17
(lp18
I38
aI113
aI21
aI13
aI25
aI18
aI26
aI28
aI94
aI41
aI42
asS'SeekBehavior'
p19
(lp20
I59
aI153
aI25
aI10
aI18
aI3
aI17
aI37
aI49
aI7
aI0
assI3
(dp21
S'FleeBehavior'
p22
(lp23
I34
aI127
aI24
aI14
aI13
aI1
aI6
aI12
aI75
aI7
aI0
asS'PursueBehavior'
p24
(lp25
I42
aI143
aI22
aI14
aI25
aI17
aI25
aI46
aI63
aI35
aI43
asS'SeekBehavior'
p26
(lp27
I57
aI113
aI9
aI9
aI51
aI10
aI17
aI11
aI34
aI35
aI0
asss.