(dp0
S'learn_scores'
p1
(lp2
F2595.0
aF3017.0
aF2624.0
aF-4.0
aF2992.0
aF565.0
aF2405.0
aF438.0
aF1372.0
aF2421.0
asS'test_scores'
p3
(lp4
F715.0
asS'behavior_count'
p5
(dp6
I1
(dp7
S'FleeBehavior'
p8
(lp9
I114
aI58
aI139
aI9
aI97
aI6
aI18
aI6
aI3
aI62
aI0
asS'PursueBehavior'
p10
(lp11
I143
aI208
aI50
aI29
aI61
aI50
aI63
aI7
aI7
aI72
aI0
asS'SeekBehavior'
p12
(lp13
I138
aI107
aI177
aI37
aI240
aI60
aI304
aI100
aI229
aI235
aI126
assI2
(dp14
S'FleeBehavior'
p15
(lp16
I153
aI91
aI158
aI26
aI62
aI7
aI110
aI5
aI9
aI16
aI6
asS'PursueBehavior'
p17
(lp18
I100
aI143
aI105
aI33
aI233
aI33
aI72
aI66
aI87
aI281
aI39
asS'SeekBehavior'
p19
(lp20
I142
aI139
aI103
aI16
aI103
aI76
aI203
aI42
aI143
aI72
aI80
assI3
(dp21
S'FleeBehavior'
p22
(lp23
I150
aI238
aI86
aI38
aI264
aI56
aI30
aI94
aI165
aI215
aI125
asS'PursueBehavior'
p24
(lp25
I100
aI56
aI226
aI14
aI61
aI52
aI104
aI14
aI10
aI18
aI0
asS'SeekBehavior'
p26
(lp27
I145
aI79
aI54
aI22
aI73
aI8
aI251
aI4
aI63
aI136
aI0
assI4
(dp28
S'FleeBehavior'
p29
(lp30
I212
aI154
aI75
aI22
aI136
aI52
aI18
aI5
aI14
aI19
aI0
asS'PursueBehavior'
p31
(lp32
I101
aI130
aI85
aI8
aI170
aI2
aI12
aI12
aI5
aI66
aI0
asS'SeekBehavior'
p33
(lp34
I82
aI89
aI206
aI44
aI92
aI61
aI355
aI95
aI219
aI284
aI125
asss.