(dp0
S'learn_scores'
p1
(lp2
F-251.0
aF-260.0
aF-228.0
aF-188.0
aF-133.0
aF-564.0
aF-64.0
aF-52.0
aF-127.0
aF-261.0
asS'test_scores'
p3
(lp4
F119.0
asS'behavior_count'
p5
(dp6
I1
(dp7
S'FleeBehavior'
p8
(lp9
I8
aI12
aI10
aI1
aI5
aI21
aI8
aI6
aI0
aI0
aI0
asS'PursueBehavior'
p10
(lp11
I25
aI18
aI60
aI1
aI7
aI268
aI68
aI11
aI1
aI3
aI0
asS'SeekBehavior'
p12
(lp13
I29
aI0
aI69
aI36
aI42
aI186
aI59
aI106
aI47
aI69
aI282
assI2
(dp14
S'FleeBehavior'
p15
(lp16
I34
aI1
aI48
aI1
aI7
aI126
aI22
aI6
aI5
aI5
aI0
asS'PursueBehavior'
p17
(lp18
I8
aI4
aI61
aI1
aI17
aI179
aI40
aI27
aI1
aI1
aI0
asS'SeekBehavior'
p19
(lp20
I19
aI25
aI30
aI36
aI30
aI170
aI73
aI89
aI42
aI66
aI282
assI3
(dp21
S'FleeBehavior'
p22
(lp23
I16
aI20
aI65
aI19
aI50
aI122
aI80
aI87
aI47
aI69
aI282
asS'PursueBehavior'
p24
(lp25
I36
aI5
aI34
aI7
aI0
aI171
aI27
aI15
aI0
aI1
aI0
asS'SeekBehavior'
p26
(lp27
I9
aI5
aI40
aI12
aI4
aI182
aI28
aI20
aI1
aI1
aI0
asss.