(dp0
S'learn_scores'
p1
(lp2
F2677.0
aF847.0
aF2685.0
aF1632.0
aF2925.0
aF1131.0
aF2862.0
aF3008.0
aF-51.0
aF-15.0
asS'test_scores'
p3
(lp4
F52.0
asS'behavior_count'
p5
(dp6
I1
(dp7
S'FleeBehavior'
p8
(lp9
I93
aI50
aI155
aI54
aI27
aI122
aI17
aI30
aI0
aI0
aI0
asS'PursueBehavior'
p10
(lp11
I69
aI59
aI81
aI116
aI247
aI9
aI123
aI21
aI2
aI0
aI0
asS'SeekBehavior'
p12
(lp13
I151
aI74
aI69
aI168
aI191
aI89
aI188
aI331
aI70
aI66
aI99
assI2
(dp14
S'FleeBehavior'
p15
(lp16
I69
aI65
aI53
aI117
aI192
aI10
aI173
aI135
aI10
aI2
aI13
asS'PursueBehavior'
p17
(lp18
I130
aI66
aI129
aI118
aI68
aI170
aI65
aI169
aI58
aI59
aI86
asS'SeekBehavior'
p19
(lp20
I114
aI52
aI123
aI103
aI205
aI40
aI90
aI78
aI3
aI5
aI0
assI3
(dp21
S'FleeBehavior'
p22
(lp23
I105
aI106
aI127
aI170
aI85
aI25
aI292
aI318
aI65
aI64
aI99
asS'PursueBehavior'
p24
(lp25
I99
aI39
aI135
aI56
aI263
aI186
aI17
aI30
aI5
aI2
aI0
asS'SeekBehavior'
p26
(lp27
I109
aI38
aI43
aI112
aI117
aI8
aI19
aI34
aI1
aI0
aI0
assI4
(dp28
S'FleeBehavior'
p29
(lp30
I76
aI39
aI75
aI176
aI55
aI141
aI127
aI19
aI0
aI2
aI0
asS'PursueBehavior'
p31
(lp32
I108
aI49
aI79
aI58
aI196
aI1
aI62
aI26
aI2
aI4
aI0
asS'SeekBehavior'
p33
(lp34
I129
aI95
aI151
aI104
aI214
aI77
aI139
aI337
aI69
aI59
aI98
asss.