(dp0
S'learn_scores'
p1
(lp2
F2637.0
aF2614.0
aF3789.0
aF2660.0
aF1717.0
aF800.0
aF2408.0
aF2654.0
aF1358.0
aF-311.0
asS'test_scores'
p3
(lp4
F2874.0
asS'behavior_count'
p5
(dp6
I1
(dp7
S'FleeBehavior'
p8
(lp9
I105
aI187
aI133
aI130
aI108
aI88
aI185
aI163
aI138
aI6
aI24
asS'PursueBehavior'
p10
(lp11
I120
aI104
aI123
aI33
aI41
aI34
aI127
aI62
aI96
aI0
aI0
asS'SeekBehavior'
p12
(lp13
I128
aI85
aI145
aI167
aI125
aI69
aI70
aI111
aI39
aI16
aI292
assI2
(dp14
S'FleeBehavior'
p15
(lp16
I108
aI104
aI92
aI77
aI83
aI40
aI166
aI97
aI72
aI2
aI0
asS'PursueBehavior'
p17
(lp18
I127
aI97
aI168
aI142
aI67
aI62
aI150
aI101
aI92
aI20
aI292
asS'SeekBehavior'
p19
(lp20
I118
aI175
aI141
aI111
aI124
aI88
aI66
aI138
aI109
aI0
aI24
assI3
(dp21
S'FleeBehavior'
p22
(lp23
I95
aI109
aI141
aI94
aI53
aI45
aI126
aI263
aI165
aI19
aI292
asS'PursueBehavior'
p24
(lp25
I114
aI142
aI138
aI74
aI85
aI70
aI135
aI39
aI76
aI1
aI0
asS'SeekBehavior'
p26
(lp27
I144
aI125
aI122
aI162
aI135
aI75
aI121
aI34
aI31
aI2
aI24
assI4
(dp28
S'FleeBehavior'
p29
(lp30
I135
aI133
aI104
aI146
aI74
aI17
aI75
aI35
aI134
aI0
aI3
asS'PursueBehavior'
p31
(lp32
I95
aI116
aI154
aI118
aI86
aI90
aI98
aI109
aI99
aI17
aI309
asS'SeekBehavior'
p33
(lp34
I123
aI127
aI143
aI66
aI113
aI83
aI209
aI192
aI39
aI4
aI4
asss.