(dp0
S'learn_scores'
p1
(lp2
F2475.0
aF2827.0
aF2668.0
aF2619.0
aF2460.0
aF2618.0
aF1233.0
aF2461.0
aF2467.0
aF2457.0
aF2637.0
aF2849.0
aF944.0
aF2653.0
aF2573.0
aF2636.0
aF1187.0
aF622.0
aF1408.0
aF2850.0
aF2851.0
aF2661.0
aF1108.0
aF1561.0
aF2484.0
aF2467.0
aF2446.0
aF3066.0
aF-142.0
aF2642.0
aF696.0
aF2836.0
aF2442.0
aF2448.0
aF2857.0
aF2368.0
aF2569.0
aF2662.0
aF2628.0
aF2636.0
aF2702.0
aF2841.0
aF2457.0
aF2614.0
aF2824.0
aF2624.0
aF2642.0
aF2415.0
aF2671.0
aF2455.0
aF2493.0
aF2625.0
aF2672.0
aF2655.0
aF2621.0
aF2448.0
aF2626.0
aF2437.0
aF2641.0
aF41.0
aF2465.0
aF1491.0
aF2476.0
aF2661.0
aF2823.0
aF2472.0
aF2861.0
aF2457.0
aF2635.0
aF1279.0
aF2656.0
aF2853.0
aF2614.0
aF2446.0
aF-16.0
aF2436.0
aF2643.0
aF2435.0
aF3056.0
aF2409.0
aF-100.0
aF2637.0
aF1046.0
aF2485.0
aF2442.0
aF2459.0
aF2455.0
aF2656.0
aF2691.0
aF1477.0
aF2653.0
aF507.0
aF2855.0
aF2678.0
aF2446.0
aF2437.0
aF2614.0
aF2657.0
aF2447.0
aF2667.0
asS'test_scores'
p3
(lp4
F3017.0
asS'behavior_count'
p5
(dp6
I1
(dp7
S'FleeBehavior'
p8
(lp9
I100
aI139
aI101
aI188
aI59
aI92
aI162
aI231
aI27
aI150
aI246
aI17
aI14
aI197
aI149
aI195
aI50
aI37
aI69
aI29
aI69
aI231
aI65
aI52
aI209
aI24
aI22
aI141
aI21
aI67
aI65
aI59
aI157
aI86
aI33
aI72
aI115
aI183
aI133
aI149
aI214
aI187
aI37
aI85
aI52
aI55
aI60
aI46
aI76
aI82
aI46
aI30
aI90
aI64
aI83
aI192
aI224
aI41
aI60
aI26
aI36
aI109
aI92
aI206
aI182
aI90
aI104
aI78
aI78
aI49
aI57
aI43
aI119
aI207
aI57
aI45
aI87
aI59
aI166
aI147
aI25
aI56
aI45
aI27
aI55
aI23
aI65
aI59
aI96
aI58
aI113
aI53
aI83
aI34
aI118
aI78
aI131
aI158
aI35
aI112
aI150
asS'PursueBehavior'
p10
(lp11
I87
aI95
aI142
aI79
aI148
aI113
aI58
aI71
aI81
aI51
aI76
aI101
aI31
aI72
aI111
aI105
aI16
aI61
aI60
aI52
aI153
aI82
aI86
aI184
aI70
aI85
aI102
aI111
aI18
aI122
aI50
aI75
aI71
aI149
aI76
aI142
aI111
aI98
aI200
aI92
aI251
aI116
aI79
aI128
aI117
aI134
aI89
aI176
aI122
aI99
aI58
aI105
aI102
aI124
aI130
aI141
aI124
aI87
aI131
aI42
aI88
aI81
aI63
aI112
aI122
aI156
aI85
aI86
aI107
aI80
aI133
aI144
aI137
aI127
aI15
aI126
aI61
aI109
aI117
aI181
aI24
aI133
aI50
aI87
aI177
aI133
aI71
aI93
aI126
aI112
aI142
aI115
aI152
aI114
aI148
aI110
aI132
aI71
aI109
aI106
aI76
asS'SeekBehavior'
p12
(lp13
I128
aI129
aI79
aI104
aI123
aI167
aI58
aI27
aI215
aI132
aI31
aI223
aI152
aI68
aI157
aI54
aI178
aI71
aI173
aI259
aI117
aI16
aI132
aI44
aI27
aI214
aI220
aI72
aI4
aI159
aI20
aI220
aI120
aI107
aI224
aI208
aI195
aI47
aI29
aI113
aI23
aI46
aI217
aI163
aI197
aI177
aI199
aI153
aI121
aI154
aI193
aI230
aI126
aI147
aI156
aI9
aI16
aI225
aI158
aI2
aI201
aI100
aI159
aI11
aI63
aI72
aI140
aI169
aI170
aI72
aI144
aI150
aI120
aI10
aI5
aI183
aI199
aI187
aI51
aI53
aI2
aI164
aI100
aI191
aI116
aI175
aI199
aI182
aI77
aI123
aI82
aI46
aI100
aI164
aI78
aI165
aI113
aI104
aI199
aI105
aI147
assI2
(dp14
S'FleeBehavior'
p15
(lp16
I92
aI142
aI26
aI105
aI193
aI41
aI209
aI86
aI150
aI266
aI36
aI24
aI159
aI210
aI106
aI47
aI68
aI101
aI230
aI265
aI158
aI124
aI163
aI194
aI61
aI240
aI86
aI154
aI23
aI30
aI93
aI233
aI172
aI227
aI183
aI297
aI112
aI272
aI240
aI165
aI247
aI239
aI223
aI222
aI200
aI272
aI277
aI294
aI66
aI253
aI231
aI42
aI51
aI249
aI77
aI263
aI185
aI229
aI63
aI28
aI204
aI94
aI227
aI229
aI131
aI218
aI233
aI257
aI237
aI102
aI246
aI242
aI188
aI263
aI24
aI268
aI65
aI145
aI123
aI182
aI41
aI226
aI130
aI223
aI275
aI223
aI230
aI84
aI212
aI176
aI286
aI131
aI211
aI235
aI245
aI247
aI232
aI216
aI252
aI87
aI140
asS'PursueBehavior'
p17
(lp18
I50
aI101
aI189
aI186
aI113
aI241
aI37
aI191
aI114
aI58
aI216
aI174
aI32
aI114
aI244
aI277
aI92
aI42
aI63
aI64
aI40
aI106
aI111
aI75
aI230
aI68
aI251
aI108
aI19
aI298
aI40
aI88
aI127
aI105
aI88
aI117
aI288
aI46
aI84
aI162
aI223
aI96
aI89
aI144
aI102
aI80
aI48
aI69
aI137
aI66
aI59
aI306
aI169
aI60
aI259
aI64
aI164
aI114
aI275
aI38
aI117
aI184
aI75
aI93
aI219
aI89
aI84
aI68
aI78
aI96
aI75
aI82
aI172
aI68
aI51
aI79
aI256
aI199
aI170
aI191
aI9
aI112
aI57
aI70
aI57
aI98
aI95
aI239
aI81
aI107
aI37
aI76
aI89
aI71
aI95
aI96
aI128
aI86
aI80
aI225
aI180
asS'SeekBehavior'
p19
(lp20
I173
aI120
aI107
aI80
aI24
aI90
aI31
aI52
aI59
aI9
aI101
aI143
aI5
aI13
aI67
aI30
aI83
aI25
aI9
aI11
aI141
aI99
aI8
aI11
aI15
aI15
aI7
aI62
aI0
aI20
aI1
aI33
aI49
aI10
aI62
aI8
aI21
aI10
aI38
aI27
aI18
aI14
aI21
aI10
aI64
aI14
aI23
aI12
aI116
aI16
aI7
aI17
aI98
aI26
aI33
aI15
aI15
aI10
aI11
aI3
aI4
aI12
aI12
aI7
aI17
aI11
aI12
aI8
aI40
aI3
aI13
aI13
aI16
aI13
aI2
aI7
aI26
aI11
aI41
aI8
aI0
aI15
aI8
aI12
aI16
aI10
aI10
aI11
aI6
aI10
aI14
aI6
aI35
aI6
aI4
aI10
aI16
aI31
aI11
aI11
aI53
asss.