(dp0
S'learn_scores'
p1
(lp2
F-168.0
aF-247.0
aF-164.0
aF-206.0
aF-170.0
aF370.0
aF203.0
aF-193.0
aF-273.0
aF-222.0
asS'test_scores'
p3
(lp4
F-427.0
asS'behavior_count'
p5
(dp6
I1
(dp7
S'FleeBehavior'
p8
(lp9
I11
aI27
aI37
aI5
aI11
aI64
aI12
aI1
aI1
aI1
aI0
asS'PursueBehavior'
p10
(lp11
I45
aI143
aI19
aI53
aI16
aI35
aI12
aI28
aI1
aI1
aI0
asS'SeekBehavior'
p12
(lp13
I33
aI178
aI19
aI69
aI13
aI72
aI54
aI115
aI32
aI41
aI238
assI2
(dp14
S'FleeBehavior'
p15
(lp16
I12
aI28
aI7
aI26
aI3
aI46
aI11
aI14
aI3
aI2
aI0
asS'PursueBehavior'
p17
(lp18
I54
aI165
aI20
aI32
aI2
aI46
aI18
aI21
aI0
aI1
aI0
asS'SeekBehavior'
p19
(lp20
I22
aI154
aI48
aI68
aI35
aI79
aI49
aI108
aI31
aI40
aI238
assI3
(dp21
S'FleeBehavior'
p22
(lp23
I19
aI65
aI58
aI50
aI35
aI81
aI49
aI95
aI33
aI41
aI237
asS'PursueBehavior'
p24
(lp25
I56
aI85
aI9
aI17
aI1
aI41
aI18
aI13
aI0
aI0
aI0
asS'SeekBehavior'
p26
(lp27
I13
aI197
aI8
aI59
aI4
aI48
aI11
aI35
aI1
aI1
aI0
asss.