(dp0
S'learn_scores'
p1
(lp2
F1787.0
aF1324.0
aF2599.0
aF2388.0
aF2435.0
aF2839.0
aF2458.0
aF2429.0
aF552.0
aF57.0
asS'test_scores'
p3
(lp4
F2427.0
asS'behavior_count'
p5
(dp6
I1
(dp7
S'FleeBehavior'
p8
(lp9
I68
aI85
aI52
aI110
aI60
aI80
aI72
aI31
aI22
aI18
aI106
asS'PursueBehavior'
p10
(lp11
I210
aI170
aI304
aI216
aI211
aI218
aI184
aI264
aI91
aI71
aI257
asS'SeekBehavior'
p12
(lp13
I55
aI42
aI35
aI76
aI84
aI53
aI76
aI66
aI26
aI5
aI0
assI2
(dp14
S'FleeBehavior'
p15
(lp16
I58
aI105
aI75
aI103
aI107
aI88
aI69
aI62
aI49
aI36
aI210
asS'PursueBehavior'
p17
(lp18
I229
aI162
aI233
aI208
aI203
aI176
aI217
aI164
aI59
aI53
aI153
asS'SeekBehavior'
p19
(lp20
I46
aI29
aI83
aI91
aI45
aI87
aI46
aI135
aI30
aI4
aI0
assI3
(dp21
S'FleeBehavior'
p22
(lp23
I53
aI75
aI104
aI123
aI43
aI55
aI85
aI157
aI26
aI9
aI0
asS'PursueBehavior'
p24
(lp25
I84
aI41
aI37
aI50
aI124
aI45
aI9
aI16
aI4
aI1
aI0
asS'SeekBehavior'
p26
(lp27
I196
aI180
aI250
aI229
aI188
aI251
aI238
aI188
aI108
aI83
aI363
asss.