(dp0
S'learn_scores'
p1
(lp2
F86.0
aF-329.0
aF-262.0
aF-267.0
aF-20.0
aF-194.0
aF-402.0
aF-289.0
aF-509.0
aF-143.0
asS'test_scores'
p3
(lp4
F-660.0
asS'behavior_count'
p5
(dp6
I1
(dp7
S'FleeBehavior'
p8
(lp9
I102
aI80
aI31
aI37
aI57
aI16
aI100
aI34
aI127
aI3
aI0
asS'PursueBehavior'
p10
(lp11
I55
aI79
aI34
aI39
aI95
aI24
aI102
aI132
aI125
aI4
aI0
asS'SeekBehavior'
p12
(lp13
I48
aI121
aI18
aI72
aI39
aI105
aI121
aI44
aI138
aI37
aI481
assI2
(dp14
S'FleeBehavior'
p15
(lp16
I81
aI99
aI25
aI65
aI131
aI27
aI53
aI42
aI49
aI34
aI480
asS'PursueBehavior'
p17
(lp18
I59
aI131
aI32
aI28
aI29
aI14
aI223
aI141
aI291
aI3
aI0
asS'SeekBehavior'
p19
(lp20
I65
aI49
aI25
aI55
aI30
aI104
aI46
aI27
aI50
aI7
aI0
asss.