(dp0
S'learn_scores'
p1
(lp2
F-123.0
aF-214.0
aF-127.0
aF-248.0
aF-215.0
aF547.0
aF-231.0
aF-224.0
aF-189.0
aF-269.0
asS'test_scores'
p3
(lp4
F-140.0
asS'behavior_count'
p5
(dp6
I1
(dp7
S'FleeBehavior'
p8
(lp9
I16
aI90
aI17
aI463
aI11
aI93
aI7
aI5
aI6
aI60
aI0
asS'PursueBehavior'
p10
(lp11
I29
aI13
aI15
aI116
aI18
aI96
aI22
aI26
aI94
aI122
aI61
asS'SeekBehavior'
p12
(lp13
I9
aI22
aI16
aI40
aI7
aI35
aI2
aI3
aI10
aI38
aI0
assI2
(dp14
S'FleeBehavior'
p15
(lp16
I16
aI26
aI6
aI86
aI20
aI73
aI15
aI18
aI48
aI58
aI0
asS'PursueBehavior'
p17
(lp18
I13
aI80
aI4
aI402
aI8
aI53
aI0
aI1
aI1
aI36
aI0
asS'SeekBehavior'
p19
(lp20
I24
aI19
aI38
aI131
aI8
aI98
aI16
aI15
aI61
aI126
aI60
assI3
(dp21
S'FleeBehavior'
p22
(lp23
I24
aI56
aI5
aI68
aI20
aI45
aI30
aI28
aI95
aI112
aI60
asS'PursueBehavior'
p24
(lp25
I17
aI20
aI22
aI77
aI7
aI49
aI0
aI1
aI12
aI50
aI0
asS'SeekBehavior'
p26
(lp27
I12
aI49
aI21
aI473
aI9
aI129
aI1
aI5
aI3
aI57
aI0
asss.