(dp0
S'learn_scores'
p1
(lp2
F1017.0
aF2451.0
aF2607.0
aF3467.0
aF45.0
aF1551.0
aF2612.0
aF1191.0
aF1531.0
aF2631.0
aF2634.0
aF336.0
aF2385.0
aF899.0
aF2644.0
aF2646.0
aF2627.0
aF2645.0
aF2648.0
aF156.0
aF2632.0
aF1904.0
aF1550.0
aF3254.0
aF611.0
aF131.0
aF950.0
aF1913.0
aF2615.0
aF2825.0
aF2426.0
aF827.0
aF490.0
aF1490.0
aF2376.0
aF2868.0
aF2428.0
aF-196.0
aF1351.0
aF2453.0
aF2673.0
aF1983.0
aF2837.0
aF2412.0
aF2845.0
aF3250.0
aF2660.0
aF2874.0
aF3178.0
aF1793.0
aF2607.0
aF2628.0
aF3215.0
aF645.0
aF2615.0
aF762.0
aF1954.0
aF550.0
aF1717.0
aF2651.0
aF2651.0
aF2479.0
aF2805.0
aF2782.0
aF2665.0
aF633.0
aF2850.0
aF2661.0
aF3039.0
aF2793.0
aF2622.0
aF286.0
aF2622.0
aF3044.0
aF2446.0
aF2427.0
aF973.0
aF1859.0
aF3215.0
aF2412.0
aF3015.0
aF52.0
aF2606.0
aF1332.0
aF954.0
aF2677.0
aF1986.0
aF2618.0
aF3242.0
aF2825.0
aF1071.0
aF2831.0
aF1642.0
aF1642.0
aF3260.0
aF1346.0
aF458.0
aF2464.0
aF2647.0
aF140.0
asS'test_scores'
p3
(lp4
F2802.0
aF458.0
aF998.0
aF1471.0
aF2822.0
aF705.0
aF2448.0
aF3250.0
aF178.0
aF2884.0
asS'behavior_count'
p5
(dp6
I1
(dp7
S'FleeBehavior'
p8
(lp9
I34
aI108
aI116
aI125
aI2
aI141
aI153
aI117
aI206
aI157
aI149
aI17
aI76
aI83
aI115
aI138
aI123
aI154
aI173
aI17
aI142
aI114
aI108
aI128
aI53
aI24
aI55
aI138
aI93
aI165
aI110
aI83
aI9
aI122
aI192
aI158
aI105
aI31
aI58
aI155
aI202
aI205
aI190
aI145
aI154
aI124
aI146
aI89
aI193
aI221
aI134
aI225
aI178
aI43
aI144
aI89
aI110
aI106
aI70
aI82
aI179
aI107
aI135
aI33
aI100
aI66
aI172
aI178
aI177
aI227
aI191
aI80
aI162
aI209
aI100
aI119
aI96
aI151
aI116
aI117
aI165
aI48
aI148
aI98
aI64
aI176
aI114
aI117
aI161
aI132
aI53
aI186
aI121
aI119
aI104
aI91
aI34
aI194
aI152
aI39
aI87
aI43
aI87
aI165
aI79
aI54
aI143
aI120
aI57
aI113
asS'PursueBehavior'
p10
(lp11
I38
aI148
aI149
aI124
aI8
aI33
aI74
aI45
aI58
aI64
aI129
aI49
aI273
aI61
aI89
aI167
aI116
aI64
aI47
aI3
aI60
aI100
aI72
aI70
aI39
aI48
aI9
aI69
aI180
aI43
aI71
aI8
aI79
aI164
aI156
aI76
aI103
aI2
aI103
aI126
aI48
aI39
aI71
aI33
aI66
aI81
aI121
aI162
aI129
aI80
aI152
aI92
aI92
aI55
aI127
aI21
aI149
aI15
aI78
aI103
aI121
aI58
aI83
aI137
aI173
aI73
aI66
aI88
aI107
aI132
aI94
aI33
aI135
aI95
aI212
aI90
aI31
aI120
aI104
aI189
aI124
aI32
aI83
aI69
aI13
aI121
aI148
aI134
aI138
aI184
aI54
aI131
aI102
aI46
aI32
aI36
aI38
aI42
aI113
aI33
aI173
aI63
aI38
aI93
aI129
aI32
aI121
aI74
aI13
aI121
asS'SeekBehavior'
p12
(lp13
I52
aI83
aI118
aI74
aI56
aI66
aI151
aI58
aI75
aI138
aI78
aI19
aI56
aI27
aI142
aI39
aI124
aI127
aI122
aI64
aI156
aI143
aI181
aI138
aI18
aI18
aI97
aI90
aI102
aI157
aI183
aI83
aI33
aI5
aI66
aI88
aI154
aI4
aI59
aI56
aI67
aI124
aI92
aI200
aI125
aI135
aI63
aI65
aI90
aI77
aI97
aI45
aI105
aI18
aI104
aI29
aI167
aI40
aI146
aI154
aI39
aI146
aI167
aI238
aI52
aI9
aI102
aI63
aI67
aI38
aI83
aI11
aI71
aI42
aI32
aI154
aI31
aI31
aI155
aI72
aI86
aI19
aI153
aI82
aI70
aI16
aI63
aI121
aI49
aI49
aI63
aI42
aI96
aI124
aI194
aI138
aI51
aI90
aI78
aI9
aI128
aI37
aI88
aI71
aI160
aI60
aI78
aI146
aI12
aI72
assI2
(dp14
S'FleeBehavior'
p15
(lp16
I21
aI118
aI158
aI93
aI21
aI40
aI59
aI46
aI104
aI104
aI64
aI23
aI73
aI33
aI111
aI118
aI120
aI100
aI133
aI42
aI82
aI40
aI43
aI55
aI15
aI26
aI53
aI84
aI118
aI58
aI122
aI23
aI32
aI158
aI119
aI142
aI50
aI21
aI67
aI76
aI119
aI91
aI157
aI96
aI91
aI99
aI128
aI189
aI154
aI90
aI129
aI141
aI50
aI22
aI131
aI56
aI151
aI58
aI14
aI119
aI241
aI202
aI216
aI91
aI66
aI38
aI77
aI131
aI187
aI119
aI68
aI24
aI94
aI47
aI57
aI117
aI18
aI88
aI35
aI171
aI100
aI13
aI107
aI177
aI75
aI131
aI181
aI98
aI195
aI178
aI48
aI115
aI149
aI165
aI133
aI110
aI76
aI159
aI196
aI48
aI316
aI113
aI143
aI176
aI251
aI105
aI219
aI208
aI31
aI177
asS'PursueBehavior'
p17
(lp18
I37
aI98
aI193
aI126
aI28
aI82
aI139
aI91
aI145
aI110
aI116
aI27
aI273
aI86
aI133
aI119
aI150
aI129
aI112
aI22
aI188
aI227
aI221
aI215
aI46
aI55
aI90
aI137
aI134
aI251
aI130
aI64
aI33
aI15
aI120
aI96
aI156
aI7
aI61
aI91
aI98
aI142
aI76
aI222
aI173
aI177
aI175
aI96
aI190
aI132
aI170
aI141
aI152
aI16
aI135
aI16
aI139
aI26
aI166
aI100
aI62
aI70
aI64
aI268
aI166
aI62
aI140
aI63
aI74
aI153
aI197
aI85
aI214
aI228
aI267
aI176
aI108
aI140
aI178
aI98
aI112
aI66
aI171
aI26
aI47
aI151
aI91
aI142
aI63
aI114
aI102
aI165
aI113
aI54
aI158
aI139
aI28
aI92
aI86
aI29
aI65
aI28
aI58
aI79
aI78
aI34
aI111
aI125
aI47
aI71
asS'SeekBehavior'
p19
(lp20
I65
aI123
aI32
aI104
aI16
aI117
aI180
aI82
aI90
aI145
aI176
aI35
aI59
aI52
aI102
aI107
aI93
aI116
aI97
aI20
aI88
aI90
aI96
aI66
aI49
aI8
aI17
aI76
aI123
aI56
aI112
aI87
aI55
aI118
aI175
aI84
aI156
aI9
aI91
aI170
aI100
aI135
aI120
aI60
aI81
aI64
aI27
aI31
aI68
aI156
aI84
aI80
aI173
aI78
aI109
aI67
aI136
aI76
aI114
aI120
aI36
aI39
aI105
aI49
aI93
aI48
aI123
aI135
aI90
aI125
aI103
aI15
aI60
aI71
aI20
aI70
aI31
aI74
aI162
aI109
aI163
aI20
aI106
aI45
aI25
aI31
aI53
aI132
aI90
aI73
aI19
aI79
aI56
aI70
aI39
aI16
aI18
aI75
aI61
aI4
aI7
aI2
aI11
aI74
aI39
aI6
aI12
aI7
aI4
aI58
assI3
(dp21
S'FleeBehavior'
p22
(lp23
I48
aI86
aI118
aI90
aI23
aI75
aI73
aI72
aI26
aI81
aI78
aI15
aI135
aI28
aI55
aI85
aI90
aI93
aI56
aI9
aI70
aI135
aI163
aI123
aI54
aI39
aI29
aI158
aI98
aI118
aI134
aI34
aI18
aI140
aI124
aI91
aI145
aI14
aI50
aI97
aI74
aI109
aI132
aI134
aI76
aI148
aI100
aI81
aI201
aI175
aI106
aI108
aI81
aI53
aI115
aI59
aI184
aI69
aI135
aI116
aI132
aI137
aI153
aI222
aI151
aI74
aI160
aI201
aI156
aI103
aI100
aI39
aI106
aI61
aI158
aI122
aI18
aI92
aI158
aI127
aI139
aI31
aI195
aI98
aI111
aI140
aI162
aI101
aI49
aI120
aI49
aI155
aI87
aI67
aI130
aI103
aI79
aI120
aI129
aI30
aI225
aI51
aI111
aI139
aI207
aI50
aI179
aI184
aI55
aI88
asS'PursueBehavior'
p24
(lp25
I34
aI96
aI147
aI186
aI15
aI134
aI184
aI110
aI174
aI180
aI121
aI45
aI62
aI45
aI208
aI176
aI106
aI127
aI237
aI48
aI200
aI149
aI77
aI57
aI24
aI46
aI101
aI91
aI170
aI137
aI117
aI103
aI98
aI98
aI205
aI185
aI164
aI11
aI72
aI179
aI216
aI154
aI182
aI139
aI134
aI152
aI177
aI131
aI127
aI110
aI158
aI203
aI177
aI27
aI160
aI62
aI143
aI50
aI96
aI177
aI191
aI142
aI139
aI143
aI87
aI29
aI148
aI116
aI114
aI250
aI189
aI73
aI243
aI253
aI138
aI212
aI99
aI142
aI144
aI90
aI131
aI58
aI135
aI117
aI27
aI138
aI134
aI182
aI233
aI152
aI114
aI176
aI176
aI165
aI132
aI109
aI22
aI103
aI110
aI39
aI66
aI17
aI45
aI56
aI41
aI62
aI47
aI80
aI5
aI75
asS'SeekBehavior'
p26
(lp27
I41
aI157
aI118
aI47
aI27
aI30
aI121
aI37
aI139
aI98
aI157
aI25
aI208
aI98
aI83
aI83
aI167
aI125
aI49
aI27
aI88
aI72
aI120
aI156
aI31
aI4
aI30
aI48
aI107
aI110
aI113
aI37
aI4
aI53
aI85
aI46
aI53
aI12
aI97
aI61
aI27
aI105
aI39
aI105
aI135
aI40
aI53
aI104
aI84
aI92
aI119
aI51
aI117
aI35
aI100
aI17
aI99
aI41
aI63
aI46
aI16
aI32
aI93
aI43
aI87
aI45
aI32
aI12
aI81
aI44
aI79
aI12
aI19
aI32
aI48
aI29
aI40
aI68
aI73
aI161
aI105
aI9
aI54
aI33
aI8
aI35
aI28
aI89
aI66
aI93
aI6
aI28
aI55
aI57
aI68
aI53
aI21
aI103
aI104
aI11
aI97
aI75
aI56
aI134
aI120
aI33
aI116
aI76
aI22
aI143
assI4
(dp28
S'FleeBehavior'
p29
(lp30
I55
aI135
aI113
aI106
aI16
aI143
aI78
aI64
aI135
aI82
aI122
aI0
aI100
aI43
aI35
aI62
aI86
aI14
aI70
aI11
aI95
aI68
aI160
aI98
aI45
aI4
aI34
aI128
aI116
aI115
aI149
aI36
aI37
aI79
aI66
aI81
aI142
aI22
aI106
aI156
aI52
aI61
aI55
aI63
aI64
aI111
aI85
aI98
aI10
aI54
aI87
aI9
aI101
aI100
aI95
aI105
aI141
aI124
aI131
aI181
aI61
aI12
aI73
aI141
aI103
aI43
aI66
aI140
aI51
aI59
aI68
aI31
aI106
aI122
aI22
aI53
aI55
aI48
aI113
aI194
aI159
aI19
aI43
aI32
aI23
aI73
aI50
aI92
aI95
aI98
aI68
aI151
aI104
aI46
aI12
aI44
aI15
aI93
aI57
aI19
aI39
aI34
aI33
aI35
aI73
aI4
aI47
aI62
aI11
aI82
asS'PursueBehavior'
p31
(lp32
I19
aI65
aI162
aI69
aI19
aI52
aI85
aI81
aI81
aI73
aI38
aI13
aI88
aI33
aI134
aI162
aI108
aI153
aI107
aI37
aI119
aI78
aI94
aI73
aI37
aI62
aI17
aI82
aI94
aI76
aI120
aI30
aI5
aI117
aI81
aI35
aI70
aI2
aI28
aI89
aI183
aI206
aI121
aI97
aI123
aI104
aI110
aI65
aI190
aI267
aI162
aI157
aI114
aI14
aI269
aI27
aI148
aI13
aI91
aI54
aI118
aI184
aI130
aI74
aI106
aI52
aI138
aI63
aI272
aI309
aI181
aI9
aI52
aI62
aI60
aI102
aI12
aI219
aI227
aI172
aI166
aI60
aI242
aI104
aI86
aI144
aI126
aI188
aI100
aI125
aI73
aI128
aI26
aI28
aI207
aI100
aI51
aI83
aI149
aI17
aI79
aI7
aI72
aI125
aI189
aI72
aI124
aI72
aI48
aI60
asS'SeekBehavior'
p33
(lp34
I49
aI139
aI108
aI148
aI30
aI44
aI215
aI74
aI123
aI204
aI196
aI71
aI217
aI95
aI177
aI120
aI169
aI178
aI165
aI36
aI144
aI210
aI106
aI165
aI27
aI23
aI109
aI87
aI165
aI174
aI95
aI107
aI78
aI95
aI267
aI206
aI150
aI12
aI85
aI92
aI82
aI100
aI177
aI218
aI158
aI125
aI135
aI153
aI212
aI56
aI134
aI196
aI160
aI1
aI11
aI6
aI137
aI23
aI71
aI104
aI160
aI115
aI182
aI193
aI116
aI53
aI136
aI126
aI28
aI29
aI119
aI84
aI210
aI162
aI262
aI208
aI90
aI34
aI35
aI12
aI50
aI19
aI99
aI112
aI37
aI96
aI148
aI92
aI153
aI142
aI28
aI80
aI188
aI215
aI111
aI120
aI56
aI150
aI137
aI44
aI270
aI101
aI107
aI169
aI106
aI69
aI171
aI206
aI23
aI164
asss.