(dp0
S'learn_scores'
p1
(lp2
F2656.0
aF2442.0
aF2389.0
aF1021.0
aF2591.0
aF2450.0
aF628.0
aF1497.0
aF2453.0
aF2636.0
aF2597.0
aF2433.0
aF2470.0
aF2649.0
aF2463.0
aF-90.0
aF2438.0
aF2618.0
aF2447.0
aF2442.0
aF1136.0
aF2843.0
aF1230.0
aF835.0
aF2646.0
aF2466.0
aF2848.0
aF2659.0
aF1619.0
aF2867.0
aF2472.0
aF2835.0
aF2657.0
aF2436.0
aF2591.0
aF2868.0
aF2851.0
aF3060.0
aF2628.0
aF2670.0
aF2650.0
aF2460.0
aF1141.0
aF730.0
aF2434.0
aF2844.0
aF2788.0
aF2458.0
aF2421.0
aF1599.0
aF2658.0
aF2651.0
aF1500.0
aF2861.0
aF2655.0
aF1324.0
aF1056.0
aF2859.0
aF928.0
aF2826.0
aF2643.0
aF2434.0
aF2466.0
aF2674.0
aF2669.0
aF2665.0
aF2418.0
aF2635.0
aF2668.0
aF403.0
aF2467.0
aF2678.0
aF2649.0
aF2661.0
aF2423.0
aF1216.0
aF2679.0
aF108.0
aF2664.0
aF2590.0
aF2450.0
aF2635.0
aF2673.0
aF373.0
aF2650.0
aF1606.0
aF2432.0
aF2669.0
aF2631.0
aF2647.0
aF2460.0
aF2422.0
aF3057.0
aF2597.0
aF2424.0
aF2868.0
aF2670.0
aF2651.0
aF2668.0
aF2415.0
asS'test_scores'
p3
(lp4
F2668.0
aF2467.0
aF3075.0
aF2857.0
aF2480.0
aF1161.0
aF2433.0
aF2486.0
aF1079.0
aF2454.0
asS'behavior_count'
p5
(dp6
I1
(dp7
S'FleeBehavior'
p8
(lp9
I133
aI191
aI127
aI54
aI113
aI79
aI44
aI31
aI103
aI68
aI86
aI94
aI132
aI66
aI50
aI3
aI79
aI112
aI69
aI136
aI15
aI63
aI52
aI97
aI135
aI62
aI53
aI13
aI58
aI61
aI112
aI122
aI114
aI59
aI37
aI93
aI31
aI68
aI70
aI57
aI73
aI61
aI81
aI32
aI122
aI62
aI61
aI54
aI53
aI84
aI85
aI94
aI90
aI60
aI61
aI47
aI19
aI83
aI22
aI88
aI59
aI94
aI41
aI70
aI85
aI52
aI33
aI29
aI39
aI12
aI36
aI35
aI24
aI45
aI67
aI48
aI64
aI12
aI121
aI71
aI87
aI56
aI57
aI35
aI115
aI138
aI79
aI64
aI71
aI45
aI70
aI66
aI19
aI47
aI72
aI53
aI147
aI63
aI62
aI19
aI27
aI97
aI44
aI51
aI85
aI33
aI137
aI45
aI54
aI41
asS'PursueBehavior'
p10
(lp11
I92
aI60
aI120
aI62
aI123
aI89
aI56
aI83
aI70
aI115
aI154
aI117
aI120
aI110
aI110
aI15
aI113
aI123
aI77
aI23
aI69
aI178
aI48
aI43
aI102
aI107
aI94
aI177
aI125
aI203
aI75
aI83
aI137
aI83
aI133
aI80
aI109
aI159
aI134
aI99
aI85
aI145
aI30
aI59
aI121
aI128
aI160
aI175
aI126
aI124
aI52
aI120
aI121
aI73
aI179
aI165
aI96
aI121
aI88
aI176
aI184
aI142
aI128
aI85
aI73
aI102
aI102
aI127
aI59
aI17
aI110
aI70
aI139
aI116
aI98
aI67
aI100
aI29
aI62
aI122
aI141
aI71
aI92
aI23
aI76
aI96
aI120
aI107
aI126
aI114
aI100
aI128
aI67
aI197
aI121
aI78
aI111
aI119
aI158
aI88
aI51
aI92
aI87
aI63
aI95
aI79
aI62
aI49
aI32
aI71
asS'SeekBehavior'
p12
(lp13
I109
aI97
aI154
aI114
aI163
aI172
aI63
aI200
aI164
aI171
aI153
aI146
aI68
aI165
aI167
aI33
aI160
aI137
aI197
aI189
aI171
aI106
aI90
aI56
aI107
aI155
aI195
aI141
aI109
aI59
aI131
aI150
aI82
aI212
aI229
aI149
aI199
aI103
aI158
aI164
aI182
aI124
aI139
aI130
aI113
aI156
aI181
aI103
aI190
aI174
aI195
aI125
aI130
aI196
aI95
aI185
aI120
aI127
aI123
aI100
aI104
aI120
aI155
aI161
aI163
aI171
aI237
aI199
aI224
aI59
aI177
aI207
aI178
aI168
aI202
aI110
aI147
aI32
aI143
aI207
aI112
aI228
aI168
aI50
aI149
aI81
aI159
aI150
aI162
aI184
aI160
aI174
aI247
aI149
aI173
aI191
aI62
aI157
aI102
aI268
aI244
aI134
aI184
aI219
aI130
aI148
aI158
aI210
aI126
aI224
assI2
(dp14
S'FleeBehavior'
p15
(lp16
I108
aI126
aI235
aI75
aI173
aI140
aI61
aI71
aI151
aI152
aI121
aI61
aI122
aI87
aI8
aI1
aI45
aI82
aI167
aI106
aI109
aI120
aI54
aI54
aI113
aI162
aI149
aI82
aI69
aI21
aI22
aI93
aI112
aI131
aI161
aI107
aI73
aI80
aI18
aI28
aI47
aI87
aI103
aI19
aI123
aI65
aI24
aI89
aI131
aI106
aI105
aI152
aI86
aI248
aI64
aI83
aI63
aI79
aI12
aI49
aI46
aI68
aI76
aI32
aI32
aI18
aI31
aI61
aI21
aI4
aI111
aI45
aI52
aI22
aI31
aI15
aI39
aI12
aI55
aI59
aI36
aI165
aI98
aI31
aI66
aI46
aI13
aI34
aI92
aI16
aI50
aI21
aI80
aI86
aI140
aI63
aI31
aI36
aI37
aI44
aI105
aI103
aI76
aI32
aI77
aI167
aI127
aI122
aI87
aI92
asS'PursueBehavior'
p17
(lp18
I72
aI101
aI98
aI74
aI151
aI98
aI13
aI94
aI122
aI70
aI80
aI120
aI44
aI148
aI54
aI4
aI69
aI61
aI56
aI38
aI31
aI39
aI23
aI10
aI40
aI15
aI79
aI114
aI48
aI164
aI64
aI177
aI100
aI48
aI61
aI150
aI94
aI183
aI183
aI63
aI77
aI64
aI55
aI48
aI94
aI81
aI81
aI24
aI62
aI67
aI15
aI39
aI127
aI49
aI130
aI47
aI10
aI57
aI51
aI52
aI69
aI46
aI49
aI124
aI81
aI77
aI46
aI198
aI115
aI64
aI62
aI52
aI81
aI86
aI84
aI47
aI58
aI8
aI59
aI55
aI116
aI62
aI102
aI38
aI123
aI48
aI70
aI65
aI96
aI62
aI26
aI81
aI20
aI45
aI67
aI31
aI37
aI50
aI52
aI87
aI18
aI28
aI66
aI66
aI19
aI2
aI27
aI12
aI21
aI23
asS'SeekBehavior'
p19
(lp20
I154
aI121
aI68
aI80
aI75
aI102
aI88
aI148
aI64
aI132
aI192
aI176
aI154
aI106
aI265
aI45
aI238
aI229
aI120
aI204
aI115
aI188
aI113
aI131
aI191
aI147
aI114
aI135
aI174
aI138
aI232
aI85
aI121
aI175
aI177
aI65
aI172
aI67
aI161
aI229
aI216
aI179
aI92
aI153
aI139
aI200
aI297
aI219
aI176
aI209
aI212
aI148
aI128
aI32
aI141
aI267
aI161
aI195
aI169
aI263
aI232
aI242
aI199
aI160
aI208
aI230
aI295
aI96
aI186
aI20
aI150
aI215
aI208
aI221
aI252
aI162
aI214
aI52
aI212
aI286
aI188
aI128
aI117
aI38
aI151
aI221
aI275
aI222
aI171
aI265
aI254
aI266
aI233
aI262
aI159
aI228
aI252
aI253
aI233
aI244
aI199
aI192
aI173
aI235
aI214
aI90
aI203
aI170
aI104
aI221
asss.