(dp0
S'learn_scores'
p1
(lp2
F2445.0
asS'test_scores'
p3
(lp4
F2445.0
aF2786.0
aF2674.0
aF2629.0
aF2645.0
aF2446.0
aF338.0
aF2844.0
aF2442.0
aF2644.0
asS'behavior_count'
p5
(dp6
I1
(dp7
S'FleeBehavior'
p8
(lp9
I345
aI345
aI404
aI316
aI361
aI345
aI344
aI113
aI346
aI348
aI346
assI2
(dp10
S'SeekBehavior'
p11
(lp12
I345
aI345
aI404
aI316
aI361
aI345
aI344
aI112
aI346
aI348
aI346
asss.