(dp0
S'learn_scores'
p1
(lp2
F3063.0
aF2428.0
aF2461.0
aF3054.0
aF2429.0
aF2866.0
aF2448.0
aF1342.0
aF2845.0
aF2640.0
aF2806.0
aF364.0
aF2860.0
aF2834.0
aF2458.0
aF2649.0
aF426.0
aF3037.0
aF2390.0
aF2462.0
aF1405.0
aF2454.0
aF2633.0
aF2446.0
aF704.0
aF2445.0
aF405.0
aF3032.0
aF1625.0
aF2606.0
aF2614.0
aF2664.0
aF2623.0
aF2428.0
aF2851.0
aF2688.0
aF2624.0
aF2444.0
aF83.0
aF2450.0
aF2887.0
aF2652.0
aF2634.0
aF2872.0
aF2454.0
aF2446.0
aF2825.0
aF2638.0
aF2457.0
aF698.0
aF2471.0
aF167.0
aF2835.0
aF2656.0
aF2638.0
aF2661.0
aF3036.0
aF1033.0
aF2863.0
aF2437.0
aF2448.0
aF2461.0
aF2439.0
aF2618.0
aF2463.0
aF208.0
aF2846.0
aF2397.0
aF2392.0
aF2664.0
aF2461.0
aF2673.0
aF2660.0
aF2625.0
aF2634.0
aF2860.0
aF1324.0
aF2473.0
aF2652.0
aF2634.0
aF2449.0
aF2836.0
aF2451.0
aF2655.0
aF2660.0
aF-179.0
aF2635.0
aF2443.0
aF2839.0
aF2451.0
aF2838.0
aF2668.0
aF1469.0
aF3453.0
aF2446.0
aF2643.0
aF2453.0
aF2612.0
aF2423.0
aF1229.0
asS'test_scores'
p3
(lp4
F2453.0
aF1534.0
aF2861.0
aF2859.0
aF2843.0
aF2689.0
aF2432.0
aF2853.0
aF2642.0
aF2432.0
asS'behavior_count'
p5
(dp6
I1
(dp7
S'FleeBehavior'
p8
(lp9
I113
aI59
aI29
aI102
aI217
aI148
aI221
aI111
aI275
aI10
aI13
aI85
aI129
aI277
aI295
aI159
aI71
aI29
aI183
aI11
aI24
aI12
aI57
aI106
aI32
aI183
aI6
aI88
aI215
aI203
aI239
aI15
aI9
aI6
aI51
aI36
aI47
aI249
aI41
aI55
aI178
aI186
aI231
aI211
aI52
aI206
aI60
aI12
aI99
aI43
aI32
aI22
aI42
aI26
aI62
aI198
aI177
aI88
aI193
aI205
aI215
aI152
aI42
aI32
aI16
aI1
aI49
aI49
aI42
aI42
aI238
aI234
aI187
aI276
aI74
aI83
aI178
aI136
aI175
aI241
aI222
aI130
aI259
aI261
aI234
aI12
aI213
aI176
aI87
aI32
aI23
aI94
aI133
aI74
aI57
aI54
aI49
aI15
aI151
aI117
aI120
aI119
aI88
aI148
aI154
aI112
aI160
aI111
aI156
aI122
asS'PursueBehavior'
p10
(lp11
I99
aI164
aI125
aI220
aI97
aI109
aI10
aI17
aI29
aI192
aI49
aI10
aI195
aI50
aI19
aI67
aI30
aI175
aI142
aI91
aI139
aI186
aI169
aI16
aI7
aI97
aI83
aI47
aI9
aI11
aI8
aI168
aI55
aI17
aI110
aI237
aI262
aI45
aI3
aI58
aI38
aI100
aI55
aI70
aI237
aI69
aI186
aI139
aI157
aI103
aI229
aI51
aI172
aI226
aI152
aI53
aI83
aI116
aI58
aI61
aI54
aI98
aI215
aI247
aI259
aI60
aI200
aI232
aI200
aI222
aI63
aI36
aI67
aI60
aI122
aI159
aI76
aI131
aI113
aI34
aI27
aI123
aI15
aI12
aI6
aI4
aI88
aI35
aI113
aI217
aI148
aI55
aI67
aI155
aI185
aI204
aI188
aI230
aI160
aI79
aI102
aI93
aI118
aI61
aI68
aI120
aI76
aI72
aI23
aI79
asS'SeekBehavior'
p12
(lp13
I115
aI139
aI175
aI14
aI47
aI67
aI111
aI191
aI41
aI148
aI322
aI2
aI6
aI29
aI18
aI115
aI64
aI149
aI75
aI226
aI113
aI138
aI131
aI222
aI118
aI65
aI57
aI223
aI62
aI170
aI129
aI143
aI303
aI339
aI178
aI29
aI57
aI52
aI44
aI227
aI87
aI52
aI70
aI37
aI47
aI69
aI119
aI201
aI77
aI27
aI58
aI31
aI141
aI82
aI138
aI78
aI94
aI44
aI76
aI87
aI73
aI79
aI94
aI93
aI52
aI32
aI95
aI112
aI156
aI62
aI28
aI47
aI76
aI29
aI160
aI88
aI43
aI50
aI50
aI81
aI92
aI101
aI65
aI62
aI90
aI24
aI54
aI136
aI151
aI90
aI181
aI173
aI72
aI108
aI102
aI89
aI100
aI133
aI56
aI76
aI115
aI135
aI123
aI122
aI125
aI69
aI122
aI154
aI169
aI157
assI2
(dp14
S'FleeBehavior'
p15
(lp16
I60
aI62
aI78
aI94
aI190
aI139
aI49
aI73
aI103
aI11
aI236
aI33
aI52
aI11
aI96
aI9
aI11
aI14
aI207
aI94
aI130
aI170
aI258
aI253
aI6
aI19
aI2
aI12
aI21
aI19
aI56
aI208
aI21
aI24
aI168
aI13
aI16
aI23
aI41
aI135
aI9
aI9
aI225
aI112
aI264
aI9
aI49
aI245
aI259
aI155
aI282
aI86
aI318
aI295
aI247
aI200
aI60
aI104
aI229
aI112
aI18
aI7
aI11
aI8
aI16
aI7
aI138
aI61
aI19
aI7
aI59
aI143
aI91
aI14
aI13
aI162
aI28
aI14
aI17
aI14
aI52
aI131
aI33
aI245
aI280
aI14
aI165
aI74
aI193
aI268
aI224
aI163
aI202
aI186
aI275
aI297
aI194
aI232
aI203
aI213
aI284
aI320
aI315
aI312
aI277
aI217
aI325
aI280
aI292
aI336
asS'PursueBehavior'
p17
(lp18
I146
aI150
aI130
aI92
aI146
aI119
aI57
aI152
aI214
aI119
aI135
aI57
aI265
aI87
aI69
aI161
aI28
aI34
aI181
aI222
aI121
aI154
aI70
aI83
aI73
aI315
aI136
aI310
aI195
aI353
aI304
aI87
aI52
aI92
aI148
aI260
aI337
aI59
aI7
aI6
aI26
aI92
aI119
aI109
aI36
aI81
aI67
aI92
aI49
aI5
aI25
aI14
aI24
aI17
aI63
aI117
aI209
aI125
aI49
aI75
aI47
aI89
aI90
aI252
aI172
aI12
aI79
aI153
aI145
aI75
aI256
aI143
aI214
aI156
aI45
aI49
aI102
aI70
aI59
aI130
aI143
aI170
aI98
aI51
aI23
aI22
aI119
aI44
aI119
aI55
aI112
aI136
aI66
aI127
aI62
aI38
aI91
aI126
aI102
aI42
aI53
aI25
aI14
aI19
aI70
aI84
aI29
aI57
aI56
aI22
asS'SeekBehavior'
p19
(lp20
I121
aI150
aI121
aI150
aI25
aI66
aI236
aI94
aI28
aI220
aI13
aI7
aI13
aI258
aI167
aI171
aI126
aI305
aI12
aI12
aI24
aI12
aI29
aI8
aI77
aI11
aI7
aI36
aI69
aI12
aI16
aI31
aI294
aI246
aI23
aI29
aI13
aI264
aI39
aI199
aI268
aI237
aI12
aI97
aI36
aI254
aI249
aI15
aI25
aI12
aI12
aI3
aI13
aI22
aI42
aI12
aI85
aI18
aI49
aI166
aI277
aI233
aI250
aI112
aI139
aI73
aI127
aI179
aI234
aI244
aI14
aI31
aI25
aI195
aI298
aI119
aI167
aI233
aI262
aI212
aI146
aI53
aI208
aI39
aI27
aI3
aI71
aI229
aI39
aI16
aI16
aI23
aI3
aI24
aI7
aI12
aI52
aI20
aI62
aI16
aI0
aI1
aI0
aI0
aI0
aI0
aI4
aI0
aI0
aI0
asss.