(dp0
S'learn_scores'
p1
(lp2
F2602.0
aF2865.0
aF1546.0
aF2630.0
aF169.0
aF2996.0
aF2862.0
aF326.0
aF3245.0
aF2440.0
aF471.0
aF2665.0
aF2624.0
aF2843.0
aF1572.0
aF112.0
aF2691.0
aF773.0
aF2828.0
aF3230.0
aF2858.0
aF1450.0
aF3045.0
aF2084.0
aF3073.0
aF1443.0
aF2439.0
aF2435.0
aF2470.0
aF2654.0
aF1002.0
aF929.0
aF1426.0
aF1738.0
aF2429.0
aF2574.0
aF1906.0
aF3027.0
aF2780.0
aF1074.0
aF2830.0
aF3048.0
aF-356.0
aF2664.0
aF2649.0
aF3012.0
aF1008.0
aF258.0
aF3054.0
aF3023.0
aF2436.0
aF2847.0
aF2846.0
aF2818.0
aF313.0
aF2622.0
aF1589.0
aF2619.0
aF2859.0
aF2643.0
aF2639.0
aF3176.0
aF1888.0
aF974.0
aF664.0
aF3028.0
aF286.0
aF1479.0
aF2395.0
aF2795.0
aF544.0
aF1309.0
aF2659.0
aF2654.0
aF2854.0
aF908.0
aF1492.0
aF2855.0
aF1176.0
aF2595.0
aF1742.0
aF581.0
aF1370.0
aF2657.0
aF2436.0
aF740.0
aF2639.0
aF544.0
aF1026.0
aF1403.0
aF2660.0
aF2648.0
aF1529.0
aF2844.0
aF405.0
aF3020.0
aF2402.0
aF2846.0
aF432.0
aF3001.0
asS'test_scores'
p3
(lp4
F2995.0
aF25.0
aF2949.0
aF123.0
aF2811.0
aF2593.0
aF414.0
aF1364.0
aF2613.0
aF2853.0
asS'behavior_count'
p5
(dp6
I1
(dp7
S'FleeBehavior'
p8
(lp9
I177
aI124
aI14
aI106
aI22
aI105
aI64
aI58
aI164
aI66
aI52
aI232
aI46
aI79
aI268
aI62
aI178
aI51
aI152
aI194
aI81
aI15
aI55
aI42
aI46
aI29
aI36
aI30
aI11
aI95
aI63
aI112
aI48
aI93
aI57
aI130
aI174
aI143
aI124
aI53
aI211
aI116
aI15
aI189
aI201
aI138
aI90
aI27
aI186
aI104
aI106
aI136
aI66
aI23
aI56
aI294
aI108
aI106
aI142
aI221
aI62
aI126
aI129
aI109
aI35
aI181
aI42
aI165
aI170
aI87
aI135
aI209
aI73
aI192
aI243
aI77
aI160
aI134
aI80
aI147
aI125
aI47
aI37
aI42
aI64
aI29
aI93
aI135
aI146
aI92
aI88
aI82
aI54
aI111
aI31
aI43
aI114
aI42
aI53
aI157
aI159
aI24
aI153
aI30
aI167
aI144
aI27
aI72
aI161
aI122
asS'PursueBehavior'
p10
(lp11
I85
aI105
aI170
aI129
aI27
aI168
aI143
aI45
aI74
aI51
aI97
aI55
aI205
aI49
aI117
aI4
aI11
aI5
aI117
aI121
aI117
aI221
aI140
aI234
aI238
aI259
aI302
aI221
aI143
aI89
aI7
aI4
aI28
aI101
aI17
aI85
aI144
aI125
aI267
aI177
aI123
aI140
aI0
aI128
aI11
aI12
aI124
aI103
aI141
aI249
aI237
aI28
aI11
aI13
aI1
aI27
aI101
aI256
aI156
aI25
aI12
aI155
aI121
aI63
aI58
aI104
aI26
aI27
aI10
aI94
aI11
aI15
aI22
aI30
aI52
aI111
aI125
aI187
aI105
aI234
aI226
aI139
aI225
aI281
aI279
aI107
aI104
aI48
aI27
aI13
aI12
aI121
aI257
aI225
aI141
aI310
aI262
aI269
aI104
aI94
aI233
aI51
aI253
aI48
aI212
aI253
aI34
aI265
aI181
aI196
asS'SeekBehavior'
p12
(lp13
I126
aI96
aI181
aI125
aI42
aI121
aI121
aI2
aI107
aI233
aI21
aI38
aI115
aI219
aI24
aI13
aI110
aI112
aI93
aI45
aI134
aI25
aI150
aI51
aI33
aI20
aI13
aI104
aI166
aI152
aI139
aI56
aI219
aI159
aI287
aI201
aI16
aI95
aI19
aI26
aI26
aI86
aI2
aI9
aI129
aI228
aI9
aI3
aI9
aI14
aI11
aI179
aI267
aI336
aI51
aI47
aI73
aI9
aI33
aI101
aI277
aI133
aI133
aI105
aI24
aI77
aI37
aI150
aI215
aI214
aI20
aI48
aI236
aI114
aI41
aI25
aI24
aI14
aI30
aI14
aI8
aI4
aI9
aI10
aI11
aI55
aI154
aI4
aI31
aI113
aI230
aI139
aI11
aI10
aI4
aI17
aI12
aI33
aI12
aI138
aI3
aI0
aI35
aI0
aI0
aI0
aI6
aI0
aI35
aI19
assI2
(dp14
S'FleeBehavior'
p15
(lp16
I109
aI100
aI140
aI107
aI13
aI84
aI125
aI27
aI195
aI69
aI151
aI228
aI216
aI84
aI86
aI2
aI34
aI156
aI131
aI133
aI47
aI100
aI84
aI120
aI38
aI10
aI15
aI35
aI140
aI138
aI82
aI67
aI58
aI66
aI285
aI108
aI149
aI176
aI343
aI172
aI250
aI244
aI17
aI120
aI99
aI241
aI87
aI14
aI135
aI86
aI154
aI61
aI134
aI58
aI37
aI113
aI58
aI176
aI147
aI89
aI200
aI277
aI164
aI93
aI44
aI152
aI26
aI282
aI308
aI169
aI53
aI134
aI211
aI192
aI87
aI117
aI32
aI53
aI107
aI124
aI146
aI122
aI146
aI195
aI205
aI106
aI91
aI37
aI100
aI178
aI234
aI263
aI171
aI112
aI65
aI169
aI110
aI167
aI77
aI161
aI123
aI27
aI231
aI30
aI104
aI113
aI44
aI52
aI152
aI84
asS'PursueBehavior'
p17
(lp18
I129
aI178
aI136
aI139
aI29
aI199
aI47
aI10
aI72
aI11
aI3
aI39
aI121
aI12
aI20
aI0
aI13
aI8
aI84
aI160
aI207
aI44
aI178
aI92
aI248
aI277
aI319
aI296
aI12
aI95
aI52
aI60
aI213
aI209
aI20
aI268
aI144
aI51
aI11
aI13
aI10
aI7
aI0
aI80
aI194
aI86
aI52
aI37
aI62
aI14
aI14
aI148
aI24
aI28
aI43
aI175
aI152
aI159
aI55
aI136
aI11
aI42
aI181
aI166
aI61
aI31
aI38
aI17
aI13
aI54
aI6
aI9
aI9
aI15
aI187
aI89
aI269
aI248
aI8
aI11
aI15
aI5
aI5
aI12
aI14
aI5
aI39
aI97
aI79
aI33
aI14
aI28
aI5
aI13
aI8
aI38
aI134
aI161
aI58
aI103
aI189
aI8
aI131
aI47
aI195
aI165
aI0
aI151
aI188
aI158
asS'SeekBehavior'
p19
(lp20
I150
aI47
aI89
aI114
aI49
aI111
aI156
aI68
aI78
aI270
aI15
aI58
aI29
aI251
aI303
aI77
aI252
aI3
aI147
aI67
aI78
aI117
aI83
aI115
aI31
aI21
aI17
aI24
aI168
aI103
aI74
aI45
aI23
aI78
aI56
aI40
aI41
aI136
aI56
aI71
aI100
aI91
aI0
aI126
aI48
aI51
aI84
aI81
aI139
aI267
aI186
aI134
aI186
aI286
aI28
aI80
aI72
aI36
aI129
aI122
aI140
aI95
aI38
aI18
aI11
aI179
aI41
aI43
aI74
aI172
aI107
aI129
aI111
aI129
aI62
aI6
aI8
aI34
aI100
aI260
aI198
aI63
aI119
aI126
aI135
aI79
aI221
aI52
aI25
aI7
aI82
aI51
aI146
aI221
aI103
aI163
aI144
aI16
aI34
aI125
aI83
aI40
aI79
aI0
aI80
aI119
aI23
aI134
aI37
aI95
assI3
(dp21
S'FleeBehavior'
p22
(lp23
I134
aI43
aI105
aI166
aI35
aI318
aI163
aI48
aI95
aI209
aI34
aI100
aI103
aI243
aI246
aI4
aI85
aI62
aI276
aI71
aI205
aI22
aI156
aI63
aI84
aI15
aI16
aI40
aI122
aI40
aI91
aI11
aI185
aI286
aI103
aI230
aI87
aI41
aI28
aI107
aI75
aI18
aI0
aI18
aI13
aI52
aI44
aI8
aI85
aI222
aI297
aI142
aI90
aI151
aI3
aI31
aI63
aI70
aI148
aI87
aI170
aI93
aI109
aI50
aI15
aI105
aI47
aI104
aI15
aI98
aI4
aI6
aI21
aI21
aI90
aI25
aI214
aI218
aI113
aI97
aI131
aI91
aI22
aI38
aI22
aI18
aI58
aI25
aI58
aI28
aI78
aI117
aI173
aI260
aI13
aI142
aI251
aI98
aI106
aI184
aI231
aI44
aI247
aI57
aI269
aI299
aI35
aI280
aI221
aI165
asS'PursueBehavior'
p24
(lp25
I102
aI94
aI133
aI115
aI44
aI27
aI79
aI6
aI119
aI108
aI105
aI190
aI225
aI34
aI30
aI6
aI18
aI5
aI51
aI133
aI31
aI89
aI25
aI112
aI127
aI8
aI11
aI138
aI42
aI136
aI76
aI120
aI15
aI20
aI33
aI28
aI120
aI195
aI181
aI117
aI16
aI104
aI0
aI92
aI106
aI149
aI93
aI58
aI148
aI14
aI11
aI174
aI119
aI165
aI83
aI264
aI160
aI180
aI125
aI170
aI113
aI114
aI122
aI21
aI21
aI40
aI5
aI34
aI9
aI33
aI99
aI110
aI17
aI228
aI169
aI73
aI10
aI22
aI24
aI196
aI192
aI80
aI167
aI260
aI197
aI103
aI172
aI120
aI115
aI155
aI184
aI123
aI9
aI17
aI101
aI100
aI14
aI128
aI9
aI62
aI0
aI0
aI77
aI0
aI0
aI1
aI5
aI0
aI34
aI51
asS'SeekBehavior'
p26
(lp27
I152
aI188
aI127
aI79
aI12
aI49
aI86
aI50
aI131
aI33
aI30
aI35
aI38
aI70
aI133
aI69
aI196
aI100
aI35
aI156
aI96
aI150
aI164
aI152
aI106
aI285
aI324
aI177
aI156
aI160
aI41
aI41
aI94
aI47
aI225
aI158
aI127
aI127
aI201
aI32
aI269
aI220
aI17
aI216
aI222
aI177
aI85
aI66
aI103
aI131
aI46
aI27
aI135
aI56
aI22
aI73
aI58
aI121
aI58
aI90
aI68
aI207
aI152
aI206
aI80
aI217
aI53
aI204
aI371
aI264
aI63
aI156
aI293
aI87
aI77
aI114
aI85
aI95
aI77
aI102
aI36
aI18
aI81
aI35
aI135
aI69
aI121
aI41
aI31
aI35
aI68
aI102
aI139
aI69
aI62
aI128
aI123
aI118
aI54
aI143
aI164
aI31
aI117
aI20
aI110
aI97
aI27
aI57
aI122
aI121
assI4
(dp28
S'FleeBehavior'
p29
(lp30
I108
aI49
aI66
aI100
aI18
aI207
aI63
aI26
aI192
aI95
aI37
aI164
aI163
aI96
aI73
aI2
aI76
aI6
aI7
aI114
aI181
aI12
aI22
aI108
aI97
aI34
aI7
aI16
aI42
aI200
aI41
aI1
aI10
aI59
aI9
aI21
aI39
aI73
aI144
aI26
aI33
aI92
aI0
aI28
aI33
aI111
aI4
aI4
aI8
aI8
aI13
aI107
aI234
aI106
aI1
aI20
aI9
aI17
aI11
aI198
aI14
aI137
aI93
aI37
aI53
aI52
aI39
aI168
aI30
aI33
aI17
aI11
aI14
aI112
aI54
aI40
aI40
aI118
aI108
aI12
aI16
aI5
aI28
aI176
aI228
aI48
aI139
aI138
aI124
aI150
aI70
aI150
aI162
aI92
aI44
aI67
aI13
aI9
aI5
aI13
aI0
aI0
aI0
aI0
aI0
aI0
aI0
aI0
aI0
aI0
asS'PursueBehavior'
p31
(lp32
I130
aI101
aI215
aI201
aI38
aI138
aI153
aI41
aI109
aI191
aI125
aI75
aI109
aI84
aI87
aI1
aI9
aI33
aI105
aI146
aI72
aI24
aI13
aI76
aI92
aI21
aI19
aI62
aI91
aI126
aI95
aI161
aI256
aI170
aI55
aI110
aI123
aI211
aI168
aI177
aI77
aI123
aI15
aI185
aI239
aI113
aI141
aI32
aI70
aI237
aI242
aI87
aI77
aI83
aI24
aI61
aI101
aI325
aI106
aI41
aI61
aI106
aI181
aI89
aI41
aI42
aI9
aI76
aI67
aI100
aI135
aI253
aI264
aI62
aI162
aI122
aI162
aI109
aI19
aI291
aI142
aI46
aI108
aI18
aI25
aI17
aI57
aI40
aI20
aI34
aI199
aI121
aI83
aI172
aI79
aI57
aI37
aI51
aI75
aI169
aI78
aI26
aI145
aI47
aI98
aI83
aI18
aI54
aI137
aI86
asS'SeekBehavior'
p33
(lp34
I150
aI175
aI84
aI59
aI35
aI49
aI112
aI37
aI44
aI64
aI7
aI86
aI94
aI167
aI249
aI75
aI214
aI128
aI250
aI100
aI79
aI224
aI310
aI142
aI128
aI252
aI325
aI277
aI187
aI10
aI72
aI9
aI28
aI123
aI297
aI285
aI172
aI79
aI98
aI53
aI250
aI127
aI1
aI113
aI69
aI154
aI77
aI96
aI258
aI122
aI99
aI149
aI33
aI183
aI82
aI287
aI171
aI29
aI214
aI108
aI276
aI171
aI108
aI151
aI22
aI268
aI56
aI97
aI298
aI262
aI14
aI7
aI53
aI162
aI120
aI50
aI106
aI108
aI87
aI92
aI201
aI138
aI134
aI139
aI101
aI125
aI155
aI8
aI60
aI33
aI61
aI71
aI76
aI82
aI52
aI246
aI338
aI284
aI89
aI207
aI317
aI49
aI296
aI30
aI281
aI314
aI48
aI282
aI240
aI251
asss.