(dp0
S'learn_scores'
p1
(lp2
F1226.0
asS'test_scores'
p3
(lp4
F2863.0
aF2640.0
aF2665.0
aF2451.0
aF2668.0
aF2661.0
aF2670.0
aF2625.0
aF1299.0
aF2634.0
asS'behavior_count'
p5
(dp6
I1
(dp7
S'SeekBehavior'
p8
(lp9
I325
aI327
aI350
aI325
aI339
aI322
aI329
aI320
aI365
aI252
aI356
assI2
(dp10
S'PursueBehavior'
p11
(lp12
I325
aI327
aI350
aI325
aI339
aI322
aI329
aI320
aI365
aI251
aI356
asss.