(dp0
S'learn_scores'
p1
(lp2
F2454.0
aF2603.0
aF1361.0
aF2468.0
aF2626.0
asS'test_scores'
p3
(lp4
F3053.0
asS'behavior_count'
p5
(dp6
I1
(dp7
S'FleeBehavior'
p8
(lp9
I122
aI161
aI105
aI112
aI111
aI104
asS'PursueBehavior'
p10
(lp11
I99
aI158
aI65
aI98
aI169
aI71
asS'SeekBehavior'
p12
(lp13
I115
aI68
aI100
aI112
aI84
aI162
assI2
(dp14
S'FleeBehavior'
p15
(lp16
I52
aI78
aI97
aI32
aI158
aI48
asS'PursueBehavior'
p17
(lp18
I146
aI159
aI90
aI227
aI99
aI178
asS'SeekBehavior'
p19
(lp20
I138
aI150
aI82
aI63
aI107
aI111
asss.