(dp0
S'learn_scores'
p1
(lp2
F2631.0
asS'test_scores'
p3
(lp4
F2461.0
aF315.0
aF-37.0
aF2647.0
aF2815.0
aF2625.0
aF2666.0
aF2460.0
aF2459.0
aF2637.0
aF2443.0
aF2615.0
aF326.0
aF2464.0
aF2414.0
aF1092.0
aF2645.0
aF2653.0
aF97.0
aF2658.0
aF1788.0
aF2469.0
aF2665.0
aF2427.0
aF2858.0
aF1601.0
aF2634.0
aF2456.0
aF2446.0
aF2630.0
aF2658.0
aF2451.0
aF2452.0
aF3222.0
aF2471.0
aF1170.0
aF2833.0
aF2820.0
aF2671.0
aF2459.0
aF2635.0
aF2463.0
aF2818.0
aF2639.0
aF2451.0
aF2647.0
aF2683.0
aF-197.0
aF2677.0
aF2430.0
aF2615.0
aF810.0
aF2482.0
aF2870.0
aF2796.0
aF2828.0
aF2415.0
aF2662.0
aF2476.0
aF683.0
aF2445.0
aF352.0
aF2477.0
aF2669.0
aF2652.0
aF2625.0
aF2476.0
aF2637.0
aF2665.0
aF2464.0
aF2668.0
aF2408.0
aF2665.0
aF1264.0
aF2428.0
aF2451.0
aF2772.0
aF2655.0
aF2820.0
aF2447.0
aF2445.0
aF1584.0
aF2656.0
aF2673.0
aF2665.0
aF2630.0
aF171.0
aF2641.0
aF2436.0
aF702.0
aF2665.0
aF2475.0
aF2813.0
aF2680.0
aF2842.0
aF2658.0
aF2617.0
aF2832.0
aF2457.0
aF2843.0
asS'behavior_count'
p5
(dp6
I1
(dp7
S'FleeBehavior'
p8
(lp9
I359
aI329
aI116
aI58
aI343
aI375
aI365
aI324
aI330
aI331
aI353
aI347
aI375
aI75
aI326
aI376
aI199
aI345
aI337
aI74
aI332
aI293
aI321
aI325
aI363
aI332
aI320
aI356
aI334
aI344
aI360
aI332
aI339
aI338
aI368
aI319
aI261
aI357
aI370
aI319
aI331
aI355
aI327
aI372
aI351
aI339
aI343
aI307
aI38
aI313
aI360
aI375
aI141
aI308
aI320
aI394
aI362
aI375
aI328
aI314
aI138
aI345
aI129
aI313
aI321
aI338
aI365
aI314
aI353
aI325
aI326
aI322
aI382
aI325
aI277
aI362
aI339
aI418
aI335
aI370
aI343
aI345
aI317
aI334
aI317
aI325
aI360
aI100
aI349
aI354
aI138
aI325
aI315
aI377
aI310
aI348
aI332
aI373
aI358
aI333
aI347
assI2
(dp10
S'SeekBehavior'
p11
(lp12
I359
aI329
aI115
aI57
aI343
aI375
aI365
aI324
aI330
aI331
aI353
aI347
aI375
aI74
aI326
aI376
aI198
aI345
aI337
aI73
aI332
aI293
aI321
aI325
aI363
aI332
aI319
aI356
aI334
aI344
aI360
aI332
aI339
aI338
aI368
aI319
aI261
aI357
aI370
aI319
aI331
aI355
aI327
aI372
aI351
aI339
aI343
aI307
aI37
aI313
aI360
aI375
aI140
aI308
aI320
aI394
aI362
aI375
aI328
aI314
aI137
aI345
aI128
aI313
aI321
aI338
aI365
aI314
aI353
aI325
aI326
aI322
aI382
aI325
aI277
aI362
aI339
aI418
aI335
aI370
aI343
aI345
aI316
aI334
aI317
aI325
aI360
aI99
aI349
aI354
aI138
aI325
aI315
aI377
aI310
aI348
aI332
aI373
aI358
aI333
aI347
asss.