(dp0
S'learn_scores'
p1
(lp2
F2634.0
asS'test_scores'
p3
(lp4
F2647.0
aF2450.0
aF2444.0
aF1253.0
aF2605.0
aF2475.0
aF2656.0
aF-279.0
aF2628.0
aF2464.0
asS'behavior_count'
p5
(dp6
I1
(dp7
S'FleeBehavior'
p8
(lp9
I356
aI343
aI340
aI346
aI248
aI385
aI315
aI334
aI30
aI362
aI326
assI2
(dp10
S'PursueBehavior'
p11
(lp12
I356
aI343
aI340
aI346
aI247
aI385
aI315
aI334
aI29
aI362
aI326
asss.