(dp0
S'learn_scores'
p1
(lp2
F1053.0
asS'test_scores'
p3
(lp4
F211.0
aF3233.0
aF2590.0
aF2805.0
aF2616.0
aF64.0
aF431.0
aF2835.0
aF1265.0
aF2834.0
asS'behavior_count'
p5
(dp6
I1
(dp7
S'FleeBehavior'
p8
(lp9
I178
aI130
aI357
aI400
aI385
aI374
aI77
aI100
aI355
aI236
aI356
assI2
(dp10
S'SeekBehavior'
p11
(lp12
I177
aI130
aI357
aI400
aI385
aI374
aI76
aI100
aI355
aI235
aI356
assI3
(dp13
S'PursueBehavior'
p14
(lp15
I177
aI129
aI357
aI400
aI385
aI374
aI76
aI100
aI355
aI235
aI356
asss.