(dp0
I1
(dp1
S'FleeBehavior'
p2
(lp3
F0.6414006161858726
aF0.5421892680969495
aF0.9931750662832721
aF-46.156373705111655
aF-83.7311909023371
aF-74.87037974286658
aF7.069214560233807
aF19.42438622650912
aF0.39711048852598374
asS'PursueBehavior'
p4
(lp5
F0.7396730770176362
aF0.31412119286874374
aF0.6791818847008364
aF-40.765958743574096
aF-53.51550288649922
aF-4.560304816786126
aF-23.6335655923856
aF-23.18285065780101
aF0.0434793148499969
asS'SeekBehavior'
p6
(lp7
F0.35102519242304475
aF0.399603131718545
aF0.5455817482443385
aF-46.235682951453434
aF-25.463709599359486
aF-73.5375532699399
aF33.01912705489757
aF-0.763376510042181
aF0.6201559092323717
assI2
(dp8
S'FleeBehavior'
p9
(lp10
F0.01535446273687302
aF0.6486249149564591
aF0.5580507670784419
aF-46.22884396255535
aF-64.58073353085145
aF7.153696337250267
aF-36.822642710510266
aF-10.642555239157883
aF0.9356883094987457
asS'PursueBehavior'
p11
(lp12
F0.18921301366829457
aF0.50068630932201
aF0.12930873304767576
aF-51.56094115034303
aF7.050732213921725
aF-19.83726123780819
aF5.601398258913892
aF-31.240697802664265
aF0.5199605554511534
asS'SeekBehavior'
p13
(lp14
F0.26054460782153266
aF0.2451807086434803
aF0.7071606438534311
aF-45.82384028928012
aF-70.37988992628968
aF0.7210819422545676
aF-27.010386224493175
aF-17.938190298586527
aF0.7411645625401523
assI3
(dp15
S'FleeBehavior'
p16
(lp17
F0.20843922288977335
aF0.6393699444640283
aF0.13483825044400688
aF-44.3991033461426
aF-29.298059053263593
aF-15.470653381250003
aF-27.972526710685415
aF-5.2476855344784745
aF0.8354530640684587
asS'PursueBehavior'
p18
(lp19
F0.7816135306144452
aF0.9188589155881173
aF0.44388305388406624
aF-43.702673806752955
aF-54.73205182565495
aF-5.041350084873319
aF-16.112405683555128
aF-17.69314015902882
aF0.12787152838950389
asS'SeekBehavior'
p20
(lp21
F0.9334018027871465
aF0.48868803963690133
aF0.44658002226711235
aF-44.98291336998728
aF-68.68473168265288
aF-9.558022946984295
aF-48.088659291802436
aF6.3752357105387825
aF0.11258244908065884
ass.