(dp0
I1
(dp1
S'FleeBehavior'
p2
(lp3
F-20.517157604769302
aF6.415011585612228
aF-108.72312749467125
aF21.528567746981018
aF-31.001230624636012
aF0.3971737100780004
asS'PursueBehavior'
p4
(lp5
F-23.480721998935778
aF8.656726745849516
aF-59.18432953152528
aF-25.339946077277382
aF12.274474251951894
aF0.6201559092323717
asS'SeekBehavior'
p6
(lp7
F-35.20288650664844
aF6.368619574789375
aF7.820344761058648
aF-21.32928835468599
aF9.133066477554811
aF0.5455817482443385
assI2
(dp8
S'FleeBehavior'
p9
(lp10
F-21.211352847901043
aF7.417065741462709
aF-96.05997535346869
aF2.2171057777009917
aF-14.144937777830748
aF0.08937040928097073
asS'PursueBehavior'
p11
(lp12
F-23.00641557422016
aF7.702803197016638
aF-50.601371112701784
aF-30.602386997216776
aF16.493514441455456
aF0.9356883094987457
asS'SeekBehavior'
p13
(lp14
F-31.072317380583844
aF5.526075742662205
aF-78.14605901624951
aF4.446862201518096
aF-14.142979287332931
aF0.5580507670784419
ass.