(dp0
I1
(dp1
S'FleeBehavior'
p2
(lp3
F-19.278091825669414
aF-19.377303173773704
aF113.71846060328465
aF-40.10375311807471
aF71.881931819985
aF-1488.9527281472851
aF2041.5847648814395
aF0.6891026531658162
asS'PursueBehavior'
p4
(lp5
F-24.786397073879503
aF-24.1924522002187
aF-214.58763824208722
aF1558.1284764713907
aF3222.772818557335
aF-13270.759871070673
aF9037.525689754584
aF0.08937040928097073
asS'SeekBehavior'
p6
(lp7
F-39.35520371503393
aF-39.40128901111624
aF-79.11333589692195
aF-1246.724930255631
aF2836.5893765933447
aF-2380.9516598376663
aF385.9149258583897
aF0.6114014400894083
assI2
(dp8
S'FleeBehavior'
p9
(lp10
F-5.41519740788742
aF-5.058918441508177
aF5.363869971345492
aF65.27576166527943
aF-64.96300082752383
aF22.687165381490434
aF-7.364519408353924
aF0.5202194549550928
asS'PursueBehavior'
p11
(lp12
F-19.552196062161435
aF-19.138769196970856
aF10.256230430154151
aF-31.687466794624715
aF-11.518910219956712
aF-14.833529323342027
aF-16.141145911527005
aF0.12930873304767576
asS'SeekBehavior'
p13
(lp14
F-6.016543813968914
aF-6.064467556483207
aF3.982271522525819
aF-73.13549971166063
aF9.967765296606245
aF-17.293053142024924
aF-8.81120138182192
aF0.2256204788553109
assI3
(dp15
S'FleeBehavior'
p16
(lp17
F-6.705942870228576
aF-6.522828831593735
aF14.184270138103038
aF28.50726335940645
aF-306.3153089970552
aF593.614890928311
aF-300.429081126163
aF0.6393699444640283
asS'PursueBehavior'
p18
(lp19
F-18.25607293824676
aF-18.298180955615916
aF11.360611296684835
aF-623.9091115980035
aF-71.16982502432462
aF184.7668873792523
aF-131.7488464933651
aF0.11258244908065884
asS'SeekBehavior'
p20
(lp21
F-1.19951582843199
aF-0.7876512660062418
aF-2.4019265292336636
aF-539.9617362470586
aF166.3031580852605
aF-101.49957489544833
aF-78.4063545148223
aF0.9334018027871465
ass.