(dp0
I1
(dp1
S'FleeBehavior'
p2
(lp3
F-51.26267898694172
aF-482.9846488608978
aF-38.55835247585997
aF-15.280822451971975
aF-24.49301430374345
aF29.774113296100765
aF0.9370951079120425
asS'PursueBehavior'
p4
(lp5
F-74.37369815920766
aF-82.0669562358875
aF-22.9095013786346
aF-20.03587966149362
aF-3.5330057076398833
aF-12.829475266819147
aF0.6791818847008364
asS'SeekBehavior'
p6
(lp7
F-20.790933723971047
aF-121.6363464396425
aF8.557845288603916
aF-10.342473529623392
aF-54.981990126132345
aF-29.642333493163243
aF0.6001575513874905
assI2
(dp8
S'FleeBehavior'
p9
(lp10
F-58.54077494576352
aF-82.41928064556299
aF-36.75005740598162
aF36.03022016290925
aF-57.24982902146268
aF4.151651555764255
aF0.01535446273687302
asS'PursueBehavior'
p11
(lp12
F-55.95226769643241
aF-86.4996773426596
aF-29.508134871375255
aF-16.081797627264997
aF-68.8973822730194
aF39.422000113629025
aF0.685180873334678
asS'SeekBehavior'
p13
(lp14
F-22.429349340968095
aF-140.01259260216762
aF14.455116096393521
aF-46.54385857527458
aF-49.708626280256354
aF-4.818461271011438
aF0.7421654272510059
assI3
(dp15
S'FleeBehavior'
p16
(lp17
F-47.806134728808686
aF-57.503009906118045
aF12.450611599708676
aF-39.86734232082866
aF-27.569811267191298
aF-25.77458094583997
aF0.7262219421299841
asS'PursueBehavior'
p18
(lp19
F-109.68996542102381
aF-47.47852178138389
aF-16.686153834007598
aF-29.789476575235796
aF-23.710517484644935
aF-5.97389286757177
aF0.8354530640684587
asS'SeekBehavior'
p20
(lp21
F-236.97287822491612
aF31.301361071681725
aF-33.378625187921195
aF45.57918364678375
aF-10.787321159566156
aF-43.52711970814167
aF0.6393699444640283
assI4
(dp22
S'FleeBehavior'
p23
(lp24
F-45.3622672901126
aF-67.81879456427663
aF-28.220210556599163
aF-2.8758445071107825
aF-40.62606153452974
aF-10.456055617955132
aF0.5040733566749224
asS'PursueBehavior'
p25
(lp26
F-133.47085022353167
aF-39.15800836917909
aF-52.16909199793054
aF65.5404775349606
aF-76.14249773367165
aF12.423940323222267
aF0.5468261592315946
asS'SeekBehavior'
p27
(lp28
F-118.11615295737693
aF0.8067939566108424
aF-13.641469899892455
aF-12.204681640208694
aF-14.58723891321106
aF-38.1403100018485
aF0.6641389778783747
ass.