(dp0
I1
(dp1
S'FleeBehavior'
p2
(lp3
F-89.29583844695937
aF-102.19963390156327
aF-38.11729501384017
aF-23.706191090977704
aF0.8117339283379406
asS'PursueBehavior'
p4
(lp5
F-129.9662923618887
aF-47.468576964145385
aF-49.44550356420152
aF1.6777290611838407
aF0.02368026428915737
asS'SeekBehavior'
p6
(lp7
F-74.97289926358911
aF-121.2346867381468
aF-42.92137220024817
aF-26.413617234240895
aF0.35102519242304475
assI2
(dp8
S'FleeBehavior'
p9
(lp10
F-100.53636421122604
aF-104.1797559699438
aF-20.96396517291937
aF-34.89456546112726
aF0.31412119286874374
asS'PursueBehavior'
p11
(lp12
F-81.43421277703044
aF-114.89929614049598
aF-13.525669129333844
aF-55.279665505242235
aF0.5580507670784419
asS'SeekBehavior'
p13
(lp14
F-31.207704806882855
aF-145.17513797297073
aF-12.481719077152542
aF-53.07607649981674
aF0.31275910418830544
ass.