(dp0
I1
(dp1
S'FleeBehavior'
p2
(lp3
F-40.834589642834935
aF-50.03790533000572
aF-35.99284310891852
aF-2.0845023640442095
aF0.8117339283379406
asS'PursueBehavior'
p4
(lp5
F-33.90734977511986
aF-84.56991671154118
aF-50.280787320054536
aF-7.223869376386048
aF0.02368026428915737
asS'SeekBehavior'
p6
(lp7
F-34.142787530224794
aF-132.33741426656687
aF-44.385252270553075
aF-14.77480814768769
aF0.35102519242304475
assI2
(dp8
S'FleeBehavior'
p9
(lp10
F-31.577762927959824
aF-118.82718473159346
aF-15.017605146910467
aF-44.026985773935714
aF0.31412119286874374
asS'PursueBehavior'
p11
(lp12
F-31.204304244256527
aF-120.31239875711331
aF-3.329532244528992
aF-45.46050580429165
aF0.5580507670784419
asS'SeekBehavior'
p13
(lp14
F-16.963403723249698
aF-120.10206704898602
aF0.12783270669883423
aF-48.68975424483198
aF0.31275910418830544
ass.