(dp0
I1
(dp1
S'FleeBehavior'
p2
(lp3
F-50.323505577693794
aF-29.48538488881976
aF-10.098710595396348
aF-27.41684324122713
aF0.8117339283379406
asS'PursueBehavior'
p4
(lp5
F-60.1034222534369
aF25.05310152256627
aF-21.951174102336587
aF-25.4243263020661
aF0.02368026428915737
asS'SeekBehavior'
p6
(lp7
F-49.222629257469094
aF-17.1219497175865
aF-19.380561335072418
aF-22.17583058268285
aF0.35102519242304475
assI2
(dp8
S'FleeBehavior'
p9
(lp10
F-28.976943931269993
aF-39.521796180489396
aF-14.83544533544276
aF-7.250700419629805
aF0.31412119286874374
aF-28.909163486658592
aF-38.956648336799056
aF-7.356082265420481
aF-15.366230835394166
aF0.31275910418830544
asS'PursueBehavior'
p11
(lp12
F-18.086498580248577
aF-78.05565319188506
aF-6.377592079303468
aF-12.659053340936135
aF0.2256204788553109
aF-18.750432881603214
aF-77.6310169263719
aF-13.02007880448492
aF-5.915078285422964
aF0.7411645625401523
asS'SeekBehavior'
p13
(lp14
F-19.999211625426724
aF-97.16882657465925
aF-9.75973946210053
aF-12.532121529902485
aF0.5580507670784419
aF-20.646101060042916
aF-96.69208643455414
aF-12.734844410613126
aF-9.377115633105754
aF0.7421654272510059
ass.