(dp0
I1
(dp1
S'FleeBehavior'
p2
(lp3
F-49.97174989072598
aF-10.747407350040938
aF-8.814720030273737
aF-7.456003442306447
aF-7.33314610666421
aF-44.62688046589906
aF0.9370951079120425
asS'PursueBehavior'
p4
(lp5
F-29.288073091809856
aF-159.85358517928896
aF18.43525104580131
aF0.5948822108202062
aF-11.04974247306531
aF-65.00262335253481
aF0.6791818847008364
asS'SeekBehavior'
p6
(lp7
F-42.715574642742425
aF-29.92677721427122
aF-14.078576829188117
aF-17.693713257766344
aF52.50773140190338
aF-60.34535864298305
aF0.6001575513874905
assI2
(dp8
S'FleeBehavior'
p9
(lp10
F-23.59830169795647
aF76.88693446682502
aF175.9144217948186
aF-119.96204955554093
aF-20.930695088311577
aF-74.64848057307182
aF0.01535446273687302
aF-23.54103566298136
aF76.81069400267653
aF-120.25266002377744
aF176.34527084049282
aF-21.153831124633665
aF-74.29398159619018
aF0.7421654272510059
asS'PursueBehavior'
p11
(lp12
F-24.592536669429336
aF55.303701667218384
aF24.344207250012992
aF-2.276744219401495
aF-4.415227415678073
aF-47.46566940204844
aF0.6393699444640283
aF-25.367034399762538
aF55.306009052939324
aF-1.7782160275282626
aF24.464144291046786
aF-4.543712566224862
aF-46.758037734982956
aF0.8354530640684587
asS'SeekBehavior'
p13
(lp14
F-18.185070809584253
aF10.38470871226705
aF-4.106034770762546
aF-47.378225545175894
aF0.5780697623603335
aF39.270092291153105
aF0.685180873334678
aF-18.774623938778355
aF10.831858606969481
aF-47.34422162648917
aF-4.1620024657376895
aF0.8531355928270337
aF39.1276470160567
aF0.7262219421299841
assI3
(dp15
S'FleeBehavior'
p16
(lp17
F2281.0362694470564
aF-2616.8517449167834
aF-1239.5129826588536
aF2620.0206683649762
aF365.5924141158839
aF-242.1654518369063
aF0.5040733566749224
aF2280.841074814252
aF-2617.2278505073396
aF2620.2323253441014
aF-1239.0407037655395
aF365.44294671258194
aF-242.04206826813186
aF0.6641389778783747
aF2280.912282977591
aF-2616.5060064436607
aF365.27339727225717
aF-1239.8316911527372
aF2620.0416472544334
aF-242.35451184738793
aF0.5468261592315946
asS'PursueBehavior'
p18
(lp19
F2819.242322273864
aF2034.4511099477909
aF2846.1424224197544
aF8070.778984937257
aF-4012.315158973038
aF-7349.69071079176
aF0.6914121621654642
aF2819.1844574277843
aF2034.2705891060846
aF8070.187242268374
aF2846.1888994625915
aF-4012.722583977328
aF-7350.21825779418
aF0.4074282148976369
aF2818.9671842573066
aF2034.3522223182167
aF-4012.963388357716
aF2845.864816258676
aF8070.466035203681
aF-7349.584905832331
aF0.24418147768811838
asS'SeekBehavior'
p20
(lp21
F15811.065719935921
aF-318553.5454197211
aF-5761.77818980745
aF20678.691528129802
aF-8843.422578139089
aF-10052.237275990039
aF0.6525462731106453
aF15811.38989265996
aF-318553.38532803016
aF20678.32640247088
aF-5761.230143233919
aF-8843.382418615602
aF-10052.188204097176
aF0.12331731974208837
aF15811.332457031001
aF-318553.6434547053
aF-8843.118092686494
aF-5761.990994917014
aF20678.60016219103
aF-10052.396002364658
aF0.7861254580305923
assI4
(dp22
S'FleeBehavior'
p23
(lp24
F28930161.60560988
aF-323033376.94396317
aF-21297828.31966114
aF42199858.38174561
aF-613971.211486235
aF-10593910.769847376
aF0.25505074159136165
aF28930161.06266783
aF-323033377.50491154
aF42199858.65907505
aF-21297828.860524178
aF-613971.2274793533
aF-10593910.968306048
aF0.38648520120388374
aF28930160.995510086
aF-323033377.52204525
aF-613971.6037343887
aF-21297828.535546303
aF42199858.50157955
aF-10593910.462576373
aF0.4642451343144194
aF28930160.86588286
aF-323033376.81271374
aF-10593910.551026804
aF-21297828.908242226
aF42199858.04418114
aF-613971.791022673
aF0.36393002310089295
asS'PursueBehavior'
p25
(lp26
F1068997.6160648998
aF108066508.47770391
aF-29148228.955060706
aF121106673.8078274
aF-55080138.07946599
aF-45678380.182727434
aF0.48263067066968734
aF1068997.9347675976
aF108066508.701043
aF121106674.12128107
aF-29148228.7876489
aF-55080138.53855718
aF-45678379.56447563
aF0.6994095503494305
aF1068997.6874149975
aF108066508.66337667
aF-55080138.48614324
aF-29148229.409291968
aF121106674.032185
aF-45678379.60726891
aF0.21073734647921805
aF1068997.4520786938
aF108066508.48630415
aF-45678380.33177147
aF-29148229.58125089
aF121106673.50191157
aF-55080137.880483754
aF0.7524255804686443
asS'SeekBehavior'
p27
(lp28
F32651050.992924407
aF-475242669.004257
aF224314789.60222012
aF-81280372.44588454
aF-73895145.59567232
aF-95727215.54825349
aF0.920485696188865
aF32651050.676029876
aF-475242668.41338426
aF-81280373.07895263
aF224314790.2856117
aF-73895145.60136004
aF-95727215.81656022
aF0.5206254072390057
aF32651051.071106628
aF-475242669.0058153
aF-73895145.603687
aF224314789.57479244
aF-81280372.55110152
aF-95727215.67246003
aF0.9752279960847298
aF32651050.756832793
aF-475242668.252055
aF-95727216.00198884
aF224314790.14845806
aF-81280372.8033293
aF-73895145.27576037
aF0.2826676721986725
ass.